 PhysXCommon_64

 Timestamp is 6329c3ae (Tue Sep 20 14:44:14 2022)

 Preferred load address is 0000000180000000

 Start         Length     Name                   Class
 0001:00000000 00004490H .text$di                CODE
 0001:00004490 00193060H .text$mn                CODE
 0001:001974f0 00000020H .text$mn$00             CODE
 0001:00197510 00000970H .text$x                 CODE
 0002:00000000 000002d0H .idata$5                DATA
 0002:000002d0 00000010H .00cfg                  DATA
 0002:000002e0 00000008H .CRT$XCA                DATA
 0002:000002e8 00001428H .CRT$XCU                DATA
 0002:00001710 00000008H .CRT$XCZ                DATA
 0002:00001718 00000008H .CRT$XIA                DATA
 0002:00001720 00000018H .CRT$XIC                DATA
 0002:00001738 00000008H .CRT$XIZ                DATA
 0002:00001740 00000008H .CRT$XPA                DATA
 0002:00001748 00000010H .CRT$XPX                DATA
 0002:00001758 00000008H .CRT$XPXA               DATA
 0002:00001760 00000008H .CRT$XPZ                DATA
 0002:00001768 00000008H .CRT$XTA                DATA
 0002:00001770 00000010H .CRT$XTZ                DATA
 0002:00001778 00000000H .gfids$y                DATA
 0002:00001780 0000eee8H .rdata                  DATA
 0002:00010668 00000464H .rdata$r                DATA
 0002:00010acc 00000414H .rdata$zzzdbg           DATA
 0002:00010ee0 00000008H .rtc$IAA                DATA
 0002:00010ee8 00000008H .rtc$IZZ                DATA
 0002:00010ef0 00000008H .rtc$TAA                DATA
 0002:00010ef8 00000008H .rtc$TZZ                DATA
 0002:00010f00 00013280H .xdata                  DATA
 0002:00024180 00000084H .xdata$x                DATA
 0002:00024204 00000020H .didat$2                DATA
 0002:00024224 00000024H .didat$3                DATA
 0002:00024248 00000088H .didat$4                DATA
 0002:000242d0 00000308H .didat$6                DATA
 0002:000245d8 00000088H .didat$7                DATA
 0002:00024660 0000a8d8H .edata                  DATA
 0002:0002ef38 00000014H .idata$2                DATA
 0002:0002ef4c 00000014H .idata$3                DATA
 0002:0002ef60 000002d0H .idata$4                DATA
 0002:0002f230 00000694H .idata$6                DATA
 0003:00000000 00001480H .data                   DATA
 0003:00001480 000006e0H .data$r                 DATA
 0003:00001b60 00000090H .didat$5                DATA
 0003:00001bf0 00004380H .bss                    DATA
 0004:00000000 0000abfcH .pdata                  DATA
 0005:00000000 000006e0H _RDATA                  DATA
 0006:00000000 00000018H .gehcont$y              DATA
 0007:00000000 000000a0H .rsrc$01                DATA
 0007:000000a0 000004b0H .rsrc$02                DATA

  Address         Publics by Value              Rva+Base               Lib:Object

 0000:00000000       __hybrid_auxiliary_iat     0000000000000000     <absolute>
 0000:00000000       __enclave_config           0000000000000000     <absolute>
 0000:00000000       __guard_fids_count         0000000000000000     <absolute>
 0000:00000000       __hybrid_code_map          0000000000000000     <absolute>
 0000:00000000       __guard_iat_table          0000000000000000     <absolute>
 0000:00000000       ___safe_se_handler_count   0000000000000000     <absolute>
 0000:00000000       __volatile_metadata        0000000000000000     <absolute>
 0000:00000000       __hybrid_code_map_count    0000000000000000     <absolute>
 0000:00000000       __dynamic_value_reloc_table 0000000000000000     <absolute>
 0000:00000000       __guard_fids_table         0000000000000000     <absolute>
 0000:00000000       __guard_iat_count          0000000000000000     <absolute>
 0000:00000000       __guard_longjmp_table      0000000000000000     <absolute>
 0000:00000000       ___safe_se_handler_table   0000000000000000     <absolute>
 0000:00000000       __guard_longjmp_count      0000000000000000     <absolute>
 0000:00000100       __guard_flags              0000000000000100     <absolute>
 0000:00000000       __ImageBase                0000000180000000     <linker-defined>
 0001:00004490       ?CompleteBoxPruning@Cm@physx@@YA_NPEBVPxBounds3@2@IAEAV?$Array@IV?$ReflectionAllocator@I@shdfnd@physx@@@shdfnd@2@AEBVAxes@Gu@2@@Z 0000000180005490 f   CmBoxPruning.obj
 0001:000047a0       ?BipartiteBoxPruning@Cm@physx@@YA_NPEBVPxBounds3@2@I0IAEAV?$Array@IV?$ReflectionAllocator@I@shdfnd@physx@@@shdfnd@2@AEBVAxes@Gu@2@@Z 00000001800057a0 f   CmBoxPruning.obj
 0001:00004db0       ??0Allocator@shdfnd@physx@@QEAA@PEBD@Z 0000000180005db0 f i CmBoxPruning.obj
 0001:00004dc0       ??0PxFoundation@physx@@QEAA@AEBV01@@Z 0000000180005dc0 f i CmBoxPruning.obj
 0001:00004dd0       ??0PxFoundation@physx@@QEAA@XZ 0000000180005dd0 f i CmBoxPruning.obj
 0001:00004de0       ??1PxFoundation@physx@@MEAA@XZ 0000000180005de0 f i CmBoxPruning.obj
 0001:00004df0       ??4Allocator@shdfnd@physx@@QEAAAEAV012@$$QEAV012@@Z 0000000180005df0 f i CmBoxPruning.obj
 0001:00004e00       ??4Allocator@shdfnd@physx@@QEAAAEAV012@AEBV012@@Z 0000000180005e00 f i CmBoxPruning.obj
 0001:00004e10       ??4PxFoundation@physx@@QEAAAEAV01@AEBV01@@Z 0000000180005e10 f i CmBoxPruning.obj
 0001:00004e20       ??_EPxFoundation@physx@@MEAAPEAXI@Z 0000000180005e20 f i CmBoxPruning.obj
 0001:00004eb0       ??_FAllocator@shdfnd@physx@@QEAAXXZ 0000000180005eb0 f i CmBoxPruning.obj
 0001:00004ec0       ??_GPxFoundation@physx@@MEAAPEAXI@Z 0000000180005ec0 f i CmBoxPruning.obj
 0001:00004ef0       ??_I@YAXPEAX_K1P6AX0@Z@Z   0000000180005ef0 f i CmBoxPruning.obj
 0001:00004f50       ?GetNbHits@RadixSort@Cm@physx@@QEBAIXZ 0000000180005f50 f i CmBoxPruning.obj
 0001:00004f60       ?GetNbTotalCalls@RadixSort@Cm@physx@@QEBAIXZ 0000000180005f60 f i CmBoxPruning.obj
 0001:00004f70       ?GetRanks@RadixSort@Cm@physx@@QEBAPEBIXZ 0000000180005f70 f i CmBoxPruning.obj
 0001:00004f80       ?GetRecyclable@RadixSort@Cm@physx@@QEBAPEAIXZ 0000000180005f80 f i CmBoxPruning.obj
 0001:00004f90       ?growAndPushBack@?$Array@IV?$ReflectionAllocator@I@shdfnd@physx@@@shdfnd@physx@@IEAAAEAIAEBI@Z 0000000180005f90 f i CmBoxPruning.obj
 0001:000050c0       ?invalidateRanks@RadixSort@Cm@physx@@QEAAXXZ 00000001800060c0 f i CmBoxPruning.obj
 0001:000050d0       ?PxCreateCollection@@YAPEAVPxCollection@physx@@XZ 00000001800060d0 f   CmCollection.obj
 0001:000051d0       ?add@Collection@Cm@physx@@UEAAXAEAVPxBase@3@_K@Z 00000001800061d0 f   CmCollection.obj
 0001:000052c0       ?remove@Collection@Cm@physx@@UEAAXAEAVPxBase@3@@Z 00000001800062c0 f   CmCollection.obj
 0001:00005330       ?contains@Collection@Cm@physx@@UEBA_NAEAVPxBase@3@@Z 0000000180006330 f   CmCollection.obj
 0001:00005360       ?addId@Collection@Cm@physx@@UEAAXAEAVPxBase@3@_K@Z 0000000180006360 f   CmCollection.obj
 0001:00005400       ?removeId@Collection@Cm@physx@@UEAAX_K@Z 0000000180006400 f   CmCollection.obj
 0001:00005480       ?find@Collection@Cm@physx@@UEBAPEAVPxBase@3@_K@Z 0000000180006480 f   CmCollection.obj
 0001:000054b0       ?add@Collection@Cm@physx@@UEAAXAEAVPxCollection@3@@Z 00000001800064b0 f   CmCollection.obj
 0001:00005650       ?remove@Collection@Cm@physx@@UEAAXAEAVPxCollection@3@@Z 0000000180006650 f   CmCollection.obj
 0001:00005770       ?getNbObjects@Collection@Cm@physx@@UEBAIXZ 0000000180006770 f   CmCollection.obj
 0001:00005780       ?getObject@Collection@Cm@physx@@UEBAAEAVPxBase@3@I@Z 0000000180006780 f   CmCollection.obj
 0001:000057a0       ?getObjects@Collection@Cm@physx@@UEBAIPEAPEAVPxBase@3@II@Z 00000001800067a0 f   CmCollection.obj
 0001:00005800       ?getNbIds@Collection@Cm@physx@@UEBAIXZ 0000000180006800 f   CmCollection.obj
 0001:00005810       ?getId@Collection@Cm@physx@@UEBA_KAEBVPxBase@3@@Z 0000000180006810 f   CmCollection.obj
 0001:00005840       ?getIds@Collection@Cm@physx@@UEBAIPEA_KII@Z 0000000180006840 f   CmCollection.obj
 0001:00005910       ??1PxCollection@physx@@MEAA@XZ 0000000180006910 f i CmCollection.obj
 0001:00005920       ??4MutexImpl@shdfnd@physx@@QEAAAEAV012@AEBV012@@Z 0000000180006920 f i CmCollection.obj
 0001:00005930       ??_ECollection@Cm@physx@@UEAAPEAXI@Z 0000000180006930 f i CmCollection.obj
 0001:00005930       ??_GCollection@Cm@physx@@UEAAPEAXI@Z 0000000180006930 f i CmCollection.obj
 0001:000059e0       ??_GPxCollection@physx@@MEAAPEAXI@Z 00000001800069e0 f i CmCollection.obj
 0001:000059e0       ??_EPxCollection@physx@@MEAAPEAXI@Z 00000001800069e0 f i CmCollection.obj
 0001:00005a10       ?__empty_global_delete@@YAXPEAX@Z 0000000180006a10 f i CmCollection.obj
 0001:00005a20       ?__empty_global_delete@@YAXPEAX_K@Z 0000000180006a20 f i CmCollection.obj
 0001:00005a30       ?create@?$HashBase@V?$Pair@$$CB_KPEAVPxBase@physx@@@shdfnd@physx@@_KU?$Hash@_K@23@UGetKey@?$HashMapBase@_KPEAVPxBase@physx@@U?$Hash@_K@shdfnd@2@VNonTrackingAllocator@42@@internal@23@VNonTrackingAllocator@23@$00@internal@shdfnd@physx@@QEAAPEAV?$Pair@$$CB_KPEAVPxBase@physx@@@34@AEB_KAEA_N@Z 0000000180006a30 f i CmCollection.obj
 0001:00005bd0       ?create@?$HashBase@V?$Pair@QEAVPxBase@physx@@_K@shdfnd@physx@@PEAVPxBase@3@U?$Hash@PEAVPxBase@physx@@@23@UGetKey@?$HashMapBase@PEAVPxBase@physx@@_KU?$Hash@PEAVPxBase@physx@@@shdfnd@2@VNonTrackingAllocator@42@@internal@23@VNonTrackingAllocator@23@$00@internal@shdfnd@physx@@QEAAPEAV?$Pair@QEAVPxBase@physx@@_K@34@AEBQEAVPxBase@4@AEA_N@Z 0000000180006bd0 f i CmCollection.obj
 0001:00005d70       ?erase@?$HashBase@V?$Pair@$$CB_KPEAVPxBase@physx@@@shdfnd@physx@@_KU?$Hash@_K@23@UGetKey@?$HashMapBase@_KPEAVPxBase@physx@@U?$Hash@_K@shdfnd@2@VNonTrackingAllocator@42@@internal@23@VNonTrackingAllocator@23@$00@internal@shdfnd@physx@@QEAA_NAEB_K@Z 0000000180006d70 f i CmCollection.obj
 0001:00005f20       ?erase@?$HashBase@V?$Pair@QEAVPxBase@physx@@_K@shdfnd@physx@@PEAVPxBase@3@U?$Hash@PEAVPxBase@physx@@@23@UGetKey@?$HashMapBase@PEAVPxBase@physx@@_KU?$Hash@PEAVPxBase@physx@@@shdfnd@2@VNonTrackingAllocator@42@@internal@23@VNonTrackingAllocator@23@$00@internal@shdfnd@physx@@QEAA_NAEBQEAVPxBase@4@@Z 0000000180006f20 f i CmCollection.obj
 0001:000060d0       ?find@?$HashMapBase@PEAVPxBase@physx@@_KU?$Hash@PEAVPxBase@physx@@@shdfnd@2@VNonTrackingAllocator@42@@internal@shdfnd@physx@@QEBAPEBV?$Pair@QEAVPxBase@physx@@_K@34@AEBQEAVPxBase@4@@Z 00000001800070d0 f i CmCollection.obj
 0001:00006180       ?find@?$HashMapBase@_KPEAVPxBase@physx@@U?$Hash@_K@shdfnd@2@VNonTrackingAllocator@42@@internal@shdfnd@physx@@QEBAPEBV?$Pair@$$CB_KPEAVPxBase@physx@@@34@AEB_K@Z 0000000180007180 f i CmCollection.obj
 0001:00006230       ?getAllocator@Foundation@shdfnd@physx@@QEAAAEAVPxAllocatorCallback@3@XZ 0000000180007230 f i CmCollection.obj
 0001:00006240       ?getAllocatorCallback@Foundation@shdfnd@physx@@UEAAAEAVPxAllocatorCallback@3@XZ 0000000180007240 f i CmCollection.obj
 0001:00006250       ?getErrorCallback@Foundation@shdfnd@physx@@UEAAAEAVPxErrorCallback@3@XZ 0000000180007250 f i CmCollection.obj
 0001:00006260       ?getErrorLevel@Foundation@shdfnd@physx@@UEBA?AW4Enum@PxErrorCode@3@XZ 0000000180007260 f i CmCollection.obj
 0001:00006270       ?getInternalErrorCallback@Foundation@shdfnd@physx@@QEAAAEAVPxErrorCallback@3@XZ 0000000180007270 f i CmCollection.obj
 0001:00006280       ?getNamedAllocMap@Foundation@shdfnd@physx@@QEAAAEAV?$HashMap@PEBVNamedAllocator@shdfnd@physx@@PEBDU?$Hash@PEBVNamedAllocator@shdfnd@physx@@@23@VNonTrackingAllocator@23@@23@XZ 0000000180007280 f i CmCollection.obj
 0001:00006290       ?getNamedAllocMutex@Foundation@shdfnd@physx@@QEAAAEAV?$MutexT@VAllocator@shdfnd@physx@@@23@XZ 0000000180007290 f i CmCollection.obj
 0001:000062a0       ?getReportAllocationNames@Foundation@shdfnd@physx@@UEBA_NXZ 00000001800072a0 f i CmCollection.obj
 0001:000062b0       ?getTempAllocFreeTable@Foundation@shdfnd@physx@@QEAAAEAV?$Array@PEATTempAllocatorChunk@shdfnd@physx@@VAllocator@23@@23@XZ 00000001800072b0 f i CmCollection.obj
 0001:000062c0       ?getTempAllocMutex@Foundation@shdfnd@physx@@QEAAAEAV?$MutexT@VAllocator@shdfnd@physx@@@23@XZ 00000001800072c0 f i CmCollection.obj
 0001:000062d0       ?release@Collection@Cm@physx@@UEAAXXZ 00000001800072d0 f i CmCollection.obj
 0001:000062f0       ?reserveInternal@?$HashBase@V?$Pair@$$CB_KPEAVPxBase@physx@@@shdfnd@physx@@_KU?$Hash@_K@23@UGetKey@?$HashMapBase@_KPEAVPxBase@physx@@U?$Hash@_K@shdfnd@2@VNonTrackingAllocator@42@@internal@23@VNonTrackingAllocator@23@$00@internal@shdfnd@physx@@AEAAXI@Z 00000001800072f0 f i CmCollection.obj
 0001:000064e0       ?reserveInternal@?$HashBase@V?$Pair@QEAVPxBase@physx@@_K@shdfnd@physx@@PEAVPxBase@3@U?$Hash@PEAVPxBase@physx@@@23@UGetKey@?$HashMapBase@PEAVPxBase@physx@@_KU?$Hash@PEAVPxBase@physx@@@shdfnd@2@VNonTrackingAllocator@42@@internal@23@VNonTrackingAllocator@23@$00@internal@shdfnd@physx@@AEAAXI@Z 00000001800074e0 f i CmCollection.obj
 0001:000066d0       ?setErrorLevel@Foundation@shdfnd@physx@@UEAAXW4Enum@PxErrorCode@3@@Z 00000001800076d0 f i CmCollection.obj
 0001:000066e0       ?setReportAllocationNames@Foundation@shdfnd@physx@@UEAAX_N@Z 00000001800076e0 f i CmCollection.obj
 0001:000066f0       ?PxTransformFromPlaneEquation@physx@@YA?AVPxTransform@1@AEBVPxPlane@1@@Z 00000001800076f0 f   CmMathUtils.obj
 0001:000068c0       ?PxTransformFromSegment@physx@@YA?AVPxTransform@1@AEBVPxVec3@1@0PEAM@Z 00000001800078c0 f   CmMathUtils.obj
 0001:00006a30       ??0PtrTable@Cm@physx@@QEAA@XZ 0000000180007a30 f   CmPtrTable.obj
 0001:00006a50       ??1PtrTable@Cm@physx@@QEAA@XZ 0000000180007a50 f   CmPtrTable.obj
 0001:00006a60       ?add@PtrTable@Cm@physx@@QEAAXPEAXAEAVPtrTableStorageManager@23@@Z 0000000180007a60 f   CmPtrTable.obj
 0001:00006b30       ?replaceWithLast@PtrTable@Cm@physx@@QEAAXIAEAVPtrTableStorageManager@23@@Z 0000000180007b30 f   CmPtrTable.obj
 0001:00006c30       ?clear@PtrTable@Cm@physx@@QEAAXAEAVPtrTableStorageManager@23@@Z 0000000180007c30 f   CmPtrTable.obj
 0001:00006cb0       ?find@PtrTable@Cm@physx@@QEBAIPEBX@Z 0000000180007cb0 f   CmPtrTable.obj
 0001:00006cf0       ?exportExtraData@PtrTable@Cm@physx@@QEAAXAEAVPxSerializationContext@3@@Z 0000000180007cf0 f   CmPtrTable.obj
 0001:00006d40       ?importExtraData@PtrTable@Cm@physx@@QEAAXAEAVPxDeserializationContext@3@@Z 0000000180007d40 f   CmPtrTable.obj
 0001:00006d70       ?getBinaryMetaData@PtrTable@Cm@physx@@SAXAEAVPxOutputStream@3@@Z 0000000180007d70 f   CmPtrTable.obj
 0001:00006f30       ?realloc@PtrTable@Cm@physx@@AEAAXIIAEAVPtrTableStorageManager@23@@Z 0000000180007f30 f   CmPtrTable.obj
 0001:00006fc0       ??0PtrTable@Cm@physx@@QEAA@W4PxEMPTY@2@@Z 0000000180007fc0 f i CmPtrTable.obj
 0001:00006fe0       ??4PtrTable@Cm@physx@@QEAAAEAU012@AEBU012@@Z 0000000180007fe0 f i CmPtrTable.obj
 0001:00006ff0       ?getCount@PtrTable@Cm@physx@@QEBAIXZ 0000000180007ff0 f i CmPtrTable.obj
 0001:00007000       ?getPtrs@PtrTable@Cm@physx@@QEAAPEAPEAXXZ 0000000180008000 f i CmPtrTable.obj
 0001:00007010       ?getPtrs@PtrTable@Cm@physx@@QEBAPEBQEAXXZ 0000000180008010 f i CmPtrTable.obj
 0001:00007020       ??0RadixSort@Cm@physx@@QEAA@XZ 0000000180008020 f   CmRadixSort.obj
 0001:00007060       ??1RadixSort@Cm@physx@@UEAA@XZ 0000000180008060 f   CmRadixSort.obj
 0001:00007080       ?Sort@RadixSort@Cm@physx@@QEAAAEAV123@PEBIIW4RadixHint@23@@Z 0000000180008080 f   CmRadixSort.obj
 0001:00007710       ?Sort@RadixSort@Cm@physx@@QEAAAEAV123@PEBMI@Z 0000000180008710 f   CmRadixSort.obj
 0001:00007ec0       ?SetBuffers@RadixSort@Cm@physx@@QEAA_NPEAI00PEAPEAI@Z 0000000180008ec0 f   CmRadixSort.obj
 0001:00007f00       ??_ERadixSort@Cm@physx@@UEAAPEAXI@Z 0000000180008f00 f i CmRadixSort.obj
 0001:00007f90       ??_GRadixSort@Cm@physx@@UEAAPEAXI@Z 0000000180008f90 f i CmRadixSort.obj
 0001:00007fc0       ??0RadixSortBuffered@Cm@physx@@QEAA@XZ 0000000180008fc0 f   CmRadixSortBuffered.obj
 0001:00007ff0       ??1RadixSortBuffered@Cm@physx@@UEAA@XZ 0000000180008ff0 f   CmRadixSortBuffered.obj
 0001:00008020       ?reset@RadixSortBuffered@Cm@physx@@QEAAXXZ 0000000180009020 f   CmRadixSortBuffered.obj
 0001:000080a0       ?Sort@RadixSortBuffered@Cm@physx@@QEAAAEAV123@PEBIIW4RadixHint@23@@Z 00000001800090a0 f   CmRadixSortBuffered.obj
 0001:00008140       ?Sort@RadixSortBuffered@Cm@physx@@QEAAAEAV123@PEBMI@Z 0000000180009140 f   CmRadixSortBuffered.obj
 0001:000081d0       ?Resize@RadixSortBuffered@Cm@physx@@AEAA_NI@Z 00000001800091d0 f   CmRadixSortBuffered.obj
 0001:000082c0       ??_ERadixSortBuffered@Cm@physx@@UEAAPEAXI@Z 00000001800092c0 f i CmRadixSortBuffered.obj
 0001:000083f0       ??_GRadixSortBuffered@Cm@physx@@UEAAPEAXI@Z 00000001800093f0 f i CmRadixSortBuffered.obj
 0001:00008440       ?CheckResize@RadixSortBuffered@Cm@physx@@AEAAXI@Z 0000000180009440 f i CmRadixSortBuffered.obj
 0001:00008480       ??6RenderOutput@Cm@physx@@QEAAAEAV012@W4Primitive@012@@Z 0000000180009480 f   CmRenderOutput.obj
 0001:000084a0       ??6RenderOutput@Cm@physx@@QEAAAEAV012@I@Z 00000001800094a0 f   CmRenderOutput.obj
 0001:000084b0       ??6RenderOutput@Cm@physx@@QEAAAEAV012@AEBVPxMat44@2@@Z 00000001800094b0 f   CmRenderOutput.obj
 0001:00008520       ??6RenderOutput@Cm@physx@@QEAAAEAV012@AEBVPxTransform@2@@Z 0000000180009520 f   CmRenderOutput.obj
 0001:000086b0       ??6RenderOutput@Cm@physx@@QEAAAEAV012@VPxVec3@2@@Z 00000001800096b0 f   CmRenderOutput.obj
 0001:00008c10       ??6RenderOutput@Cm@physx@@QEAAAEAV012@AEBUDebugText@12@@Z 0000000180009c10 f   CmRenderOutput.obj
 0001:00008e30       ?outputCapsule@RenderOutput@Cm@physx@@QEAAAEAV123@MMAEBVPxMat44@3@@Z 0000000180009e30 f   CmRenderOutput.obj
 0001:000098f0       ??0DebugText@Cm@physx@@QEAA@AEBVPxVec3@2@MPEBDZZ 000000018000a8f0 f   CmRenderOutput.obj
 0001:00009950       ??6Cm@physx@@YAAEAVRenderOutput@01@AEAV201@AEBUDebugBox@01@@Z 000000018000a950 f   CmRenderOutput.obj
 0001:00009e50       ??6Cm@physx@@YAAEAVRenderOutput@01@AEAV201@AEBUDebugArrow@01@@Z 000000018000ae50 f   CmRenderOutput.obj
 0001:0000a250       ??6Cm@physx@@YAAEAVRenderOutput@01@AEAV201@AEBUDebugBasis@01@@Z 000000018000b250 f   CmRenderOutput.obj
 0001:0000a350       ??6Cm@physx@@YAAEAVRenderOutput@01@AEAV201@AEBUDebugCircle@01@@Z 000000018000b350 f   CmRenderOutput.obj
 0001:0000a440       ??6Cm@physx@@YAAEAVRenderOutput@01@AEAV201@AEBUDebugArc@01@@Z 000000018000b440 f   CmRenderOutput.obj
 0001:0000a540       ??0DebugText@Cm@physx@@QEAA@$$QEAU012@@Z 000000018000b540 f i CmRenderOutput.obj
 0001:0000a620       ??0DebugText@Cm@physx@@QEAA@AEBU012@@Z 000000018000b620 f i CmRenderOutput.obj
 0001:0000a700       ??0RenderOutput@Cm@physx@@QEAA@AEAVRenderBuffer@12@@Z 000000018000b700 f i CmRenderOutput.obj
 0001:0000a750       ??0RenderOutput@Cm@physx@@QEAA@AEBV012@@Z 000000018000b750 f i CmRenderOutput.obj
 0001:0000a7f0       ??4DebugText@Cm@physx@@QEAAAEAU012@$$QEAU012@@Z 000000018000b7f0 f i CmRenderOutput.obj
 0001:0000a860       ??4DebugText@Cm@physx@@QEAAAEAU012@AEBU012@@Z 000000018000b860 f i CmRenderOutput.obj
 0001:0000a8d0       ?allocate@?$Array@DV?$ReflectionAllocator@D@shdfnd@physx@@@shdfnd@physx@@IEAAPEADI@Z 000000018000b8d0 f i CmRenderOutput.obj
 0001:0000a950       ?allocate@?$Array@UPxDebugLine@physx@@V?$ReflectionAllocator@UPxDebugLine@physx@@@shdfnd@2@@shdfnd@physx@@IEAAPEAUPxDebugLine@3@I@Z 000000018000b950 f i CmRenderOutput.obj
 0001:0000a9f0       ?allocate@?$Array@UPxDebugPoint@physx@@V?$ReflectionAllocator@UPxDebugPoint@physx@@@shdfnd@2@@shdfnd@physx@@IEAAPEAUPxDebugPoint@3@I@Z 000000018000b9f0 f i CmRenderOutput.obj
 0001:0000aa90       ?allocate@?$Array@UPxDebugText@physx@@V?$ReflectionAllocator@UPxDebugText@physx@@@shdfnd@2@@shdfnd@physx@@IEAAPEAUPxDebugText@3@I@Z 000000018000ba90 f i CmRenderOutput.obj
 0001:0000ab30       ?allocate@?$Array@UPxDebugTriangle@physx@@V?$ReflectionAllocator@UPxDebugTriangle@physx@@@shdfnd@2@@shdfnd@physx@@IEAAPEAUPxDebugTriangle@3@I@Z 000000018000bb30 f i CmRenderOutput.obj
 0001:0000abd0       ?copy@?$Array@UPxDebugLine@physx@@V?$ReflectionAllocator@UPxDebugLine@physx@@@shdfnd@2@@shdfnd@physx@@KAXPEAUPxDebugLine@3@0PEBU43@@Z 000000018000bbd0 f i CmRenderOutput.obj
 0001:0000ad80       ?copy@?$Array@UPxDebugPoint@physx@@V?$ReflectionAllocator@UPxDebugPoint@physx@@@shdfnd@2@@shdfnd@physx@@KAXPEAUPxDebugPoint@3@0PEBU43@@Z 000000018000bd80 f i CmRenderOutput.obj
 0001:0000ae80       ?copy@?$Array@UPxDebugText@physx@@V?$ReflectionAllocator@UPxDebugText@physx@@@shdfnd@2@@shdfnd@physx@@KAXPEAUPxDebugText@3@0PEBU43@@Z 000000018000be80 f i CmRenderOutput.obj
 0001:0000aff0       ?copy@?$Array@UPxDebugTriangle@physx@@V?$ReflectionAllocator@UPxDebugTriangle@physx@@@shdfnd@2@@shdfnd@physx@@KAXPEAUPxDebugTriangle@3@0PEBU43@@Z 000000018000bff0 f i CmRenderOutput.obj
 0001:0000b1f0       ?growAndPushBack@?$Array@DV?$ReflectionAllocator@D@shdfnd@physx@@@shdfnd@physx@@IEAAAEADAEBD@Z 000000018000c1f0 f i CmRenderOutput.obj
 0001:0000b2d0       ?growAndPushBack@?$Array@UPxDebugLine@physx@@V?$ReflectionAllocator@UPxDebugLine@physx@@@shdfnd@2@@shdfnd@physx@@IEAAAEAUPxDebugLine@3@AEBU43@@Z 000000018000c2d0 f i CmRenderOutput.obj
 0001:0000b3c0       ?growAndPushBack@?$Array@UPxDebugPoint@physx@@V?$ReflectionAllocator@UPxDebugPoint@physx@@@shdfnd@2@@shdfnd@physx@@IEAAAEAUPxDebugPoint@3@AEBU43@@Z 000000018000c3c0 f i CmRenderOutput.obj
 0001:0000b490       ?growAndPushBack@?$Array@UPxDebugText@physx@@V?$ReflectionAllocator@UPxDebugText@physx@@@shdfnd@2@@shdfnd@physx@@IEAAAEAUPxDebugText@3@AEBU43@@Z 000000018000c490 f i CmRenderOutput.obj
 0001:0000b570       ?growAndPushBack@?$Array@UPxDebugTriangle@physx@@V?$ReflectionAllocator@UPxDebugTriangle@physx@@@shdfnd@2@@shdfnd@physx@@IEAAAEAUPxDebugTriangle@3@AEBU43@@Z 000000018000c570 f i CmRenderOutput.obj
 0001:0000b670       ?outputSegment@RenderOutput@Cm@physx@@QEAAXAEBVPxVec3@3@0@Z 000000018000c670 f i CmRenderOutput.obj
 0001:0000b730       ?recreate@?$Array@DV?$ReflectionAllocator@D@shdfnd@physx@@@shdfnd@physx@@IEAAXI@Z 000000018000c730 f i CmRenderOutput.obj
 0001:0000b7f0       ?recreate@?$Array@UPxDebugLine@physx@@V?$ReflectionAllocator@UPxDebugLine@physx@@@shdfnd@2@@shdfnd@physx@@IEAAXI@Z 000000018000c7f0 f i CmRenderOutput.obj
 0001:0000b870       ?reserveSegments@RenderOutput@Cm@physx@@QEAAPEAUPxDebugLine@3@I@Z 000000018000c870 f i CmRenderOutput.obj
 0001:0000b8e0       ?visualizeJointFrames@Cm@physx@@YAXAEAVRenderOutput@12@MAEBVPxTransform@2@1@Z 000000018000c8e0 f   CmVisualization.obj
 0001:0000b9b0       ?visualizeLinearLimit@Cm@physx@@YAXAEAVRenderOutput@12@MAEBVPxTransform@2@1M_N@Z 000000018000c9b0 f   CmVisualization.obj
 0001:0000bc10       ?visualizeAngularLimit@Cm@physx@@YAXAEAVRenderOutput@12@MAEBVPxTransform@2@MM_N@Z 000000018000cc10 f   CmVisualization.obj
 0001:0000bde0       ?visualizeLimitCone@Cm@physx@@YAXAEAVRenderOutput@12@MAEBVPxTransform@2@MM_N@Z 000000018000cde0 f   CmVisualization.obj
 0001:0000c080       ?visualizeDoubleCone@Cm@physx@@YAXAEAVRenderOutput@12@MAEBVPxTransform@2@M_N@Z 000000018000d080 f   CmVisualization.obj
 0001:0000c2e0       ??DPxQuat@physx@@QEBA?AV01@AEBV01@@Z 000000018000d2e0 f i CmVisualization.obj
 0001:0000c420       ??0CmModuleUpdateLoader@Cm@physx@@QEAA@PEBD@Z 000000018000d420 f   CmWindowsModuleUpdateLoader.obj
 0001:0000c470       ??1CmModuleUpdateLoader@Cm@physx@@QEAA@XZ 000000018000d470 f   CmWindowsModuleUpdateLoader.obj
 0001:0000c4a0       ?LoadModule@CmModuleUpdateLoader@Cm@physx@@QEAAPEAUHINSTANCE__@@PEBD0@Z 000000018000d4a0 f   CmWindowsModuleUpdateLoader.obj
 0001:0000c4c0       ??4CmModuleUpdateLoader@Cm@physx@@QEAAAEAV012@AEBV012@@Z 000000018000d4c0 f i CmWindowsModuleUpdateLoader.obj
 0001:0000c4d0       PxSetPhysXCommonDelayLoadHook 000000018000d4d0 f   CmWindowsDelayLoadHook.obj
 0001:0000c4e0       ?delayHook@@YAP6A_JXZIPEAUDelayLoadInfo@@@Z 000000018000d4e0 f   CmWindowsDelayLoadHook.obj
 0001:0000c5c0       ?computeBounds@Gu@physx@@YAXAEAVPxBounds3@2@AEBVPxGeometry@2@AEBVPxTransform@2@MPEIBVCenterExtentsPadded@12@M@Z 000000018000d5c0 f   GuBounds.obj
 0001:0000ccf0       ?computeBoundsWithCCDThreshold@Gu@physx@@YAMAEAVVec3p@12@0AEBVPxGeometry@2@AEBVPxTransform@2@PEIBVCenterExtentsPadded@12@@Z 000000018000dcf0 f   GuBounds.obj
 0001:0000d2b0       ??0ShapeData@Gu@physx@@QEAA@AEBVPxGeometry@2@AEBVPxTransform@2@M@Z 000000018000e2b0 f   GuBounds.obj
 0001:0000d870       ??0Box@Gu@physx@@QEAA@AEBV012@@Z 000000018000e870 f i GuBounds.obj
 0001:0000d8d0       ??0Box@Gu@physx@@QEAA@AEBVPxVec3@2@0AEBVPxMat33@2@@Z 000000018000e8d0 f i GuBounds.obj
 0001:0000d940       ??0Box@Gu@physx@@QEAA@XZ   000000018000e940 f i GuBounds.obj
 0001:0000d950       ??0ConvexMesh@Gu@physx@@QEAA@V?$PxFlags@W4Enum@PxBaseFlag@physx@@G@2@@Z 000000018000e950 f i GuBounds.obj
 0001:0000d9a0       ??0HeightFieldData@Gu@physx@@QEAA@$$QEAU012@@Z 000000018000e9a0 f i GuBounds.obj
 0001:0000da00       ??0HeightFieldData@Gu@physx@@QEAA@AEBU012@@Z 000000018000ea00 f i GuBounds.obj
 0001:0000da60       ??0HeightFieldData@Gu@physx@@QEAA@W4PxEMPTY@2@@Z 000000018000ea60 f i GuBounds.obj
 0001:0000da70       ??0HeightFieldData@Gu@physx@@QEAA@XZ 000000018000ea70 f i GuBounds.obj
 0001:0000da80       ??0PxQuat@physx@@QEAA@AEBVPxMat33@1@@Z 000000018000ea80 f i GuBounds.obj
 0001:0000dc70       ??0PxVec3@physx@@QEAA@XZ   000000018000ec70 f i GuBounds.obj
 0001:0000dc80       ??0PxVec4@physx@@QEAA@XZ   000000018000ec80 f i GuBounds.obj
 0001:0000dc90       ??1Box@Gu@physx@@QEAA@XZ   000000018000ec90 f i GuBounds.obj
 0001:0000dca0       ??1HeightFieldData@Gu@physx@@QEAA@XZ 000000018000eca0 f i GuBounds.obj
 0001:0000dcb0       ??1PxBase@physx@@MEAA@XZ   000000018000ecb0 f i GuBounds.obj
 0001:0000dcc0       ??1PxConvexMesh@physx@@MEAA@XZ 000000018000ecc0 f i GuBounds.obj
 0001:0000dcd0       ??1PxHeightField@physx@@MEAA@XZ 000000018000ecd0 f i GuBounds.obj
 0001:0000dce0       ??1RefCountable@Cm@physx@@UEAA@XZ 000000018000ece0 f i GuBounds.obj
 0001:0000dcf0       ??4Box@Gu@physx@@QEAAAEBV012@AEBV012@@Z 000000018000ecf0 f i GuBounds.obj
 0001:0000dd50       ??4HeightFieldData@Gu@physx@@QEAAAEAU012@$$QEAU012@@Z 000000018000ed50 f i GuBounds.obj
 0001:0000ddb0       ??4HeightFieldData@Gu@physx@@QEAAAEAU012@AEBU012@@Z 000000018000edb0 f i GuBounds.obj
 0001:0000de10       ??_EConvexMesh@Gu@physx@@UEAAPEAXI@Z 000000018000ee10 f i GuBounds.obj
 0001:0000df1c       ??_EConvexMesh@Gu@physx@@WBA@EAAPEAXI@Z 000000018000ef1c f i GuBounds.obj
 0001:0000df30       ??_EPxConvexMesh@physx@@MEAAPEAXI@Z 000000018000ef30 f i GuBounds.obj
 0001:0000dfc0       ??_GPxBase@physx@@MEAAPEAXI@Z 000000018000efc0 f i GuBounds.obj
 0001:0000dfc0       ??_EPxBase@physx@@MEAAPEAXI@Z 000000018000efc0 f i GuBounds.obj
 0001:0000dff0       ??_ERefCountable@Cm@physx@@UEAAPEAXI@Z 000000018000eff0 f i GuBounds.obj
 0001:0000dff0       ??_GRefCountable@Cm@physx@@UEAAPEAXI@Z 000000018000eff0 f i GuBounds.obj
 0001:0000e020       ??_H@YAXPEAX_K1P6APEAX0@Z@Z 000000018000f020 f i GuBounds.obj
 0001:0000e070       ?computeAABBExtent@Box@Gu@physx@@QEBA?AVPxVec3@3@XZ 000000018000f070 f i GuBounds.obj
 0001:0000e130       ?computeBoxPoints@Box@Gu@physx@@QEBAXPEIAVPxVec3@3@@Z 000000018000f130 f i GuBounds.obj
 0001:0000f2a0       ?getConcreteTypeName@PxConvexMesh@physx@@UEBAPEBDXZ 00000001800102a0 f i GuBounds.obj
 0001:0000f2b0       ?getConcreteTypeName@PxHeightField@physx@@UEBAPEBDXZ 00000001800102b0 f i GuBounds.obj
 0001:0000f2c0       ?getConvexEdgeThreshold@HeightField@Gu@physx@@UEBAMXZ 00000001800102c0 f i GuBounds.obj
 0001:0000f2d0       ?getFlags@HeightField@Gu@physx@@UEBA?AV?$PxFlags@W4Enum@PxHeightFieldFlag@physx@@G@3@XZ 00000001800102d0 f i GuBounds.obj
 0001:0000f2e0       ?getFormat@HeightField@Gu@physx@@UEBA?AW4Enum@PxHeightFieldFormat@3@XZ 00000001800102e0 f i GuBounds.obj
 0001:0000f2f0       ?getHeight@HeightField@Gu@physx@@UEBAMMM@Z 00000001800102f0 f i GuBounds.obj
 0001:0000f330       ?getHeightInternal2@HeightField@Gu@physx@@QEBAMIMM@Z 0000000180010330 f i GuBounds.obj
 0001:0000f4a0       ?getIndexBuffer@ConvexMesh@Gu@physx@@UEBAPEBEXZ 00000001800104a0 f i GuBounds.obj
 0001:0000f4e0       ?getNbColumns@HeightField@Gu@physx@@UEBAIXZ 00000001800104e0 f i GuBounds.obj
 0001:0000f4f0       ?getNbPolygons@ConvexMesh@Gu@physx@@UEBAIXZ 00000001800104f0 f i GuBounds.obj
 0001:0000f500       ?getNbRows@HeightField@Gu@physx@@UEBAIXZ 0000000180010500 f i GuBounds.obj
 0001:0000f510       ?getNbVertices@ConvexMesh@Gu@physx@@UEBAIXZ 0000000180010510 f i GuBounds.obj
 0001:0000f520       ?getPaddedBounds@HeightFieldData@Gu@physx@@QEBAAEBVCenterExtentsPadded@23@XZ 0000000180010520 f i GuBounds.obj
 0001:0000f530       ?getSample@HeightField@Gu@physx@@UEBAAEBUPxHeightFieldSample@3@II@Z 0000000180010530 f i GuBounds.obj
 0001:0000f540       ?getSampleStride@HeightField@Gu@physx@@UEBAIXZ 0000000180010540 f i GuBounds.obj
 0001:0000f550       ?getTimestamp@HeightField@Gu@physx@@UEBAIXZ 0000000180010550 f i GuBounds.obj
 0001:0000f560       ?getTransform@Box@Gu@physx@@QEBA?AVPxTransform@3@XZ 0000000180010560 f i GuBounds.obj
 0001:0000f5c0       ?getTriangleMaterialIndex@HeightField@Gu@physx@@UEBAGI@Z 00000001800105c0 f i GuBounds.obj
 0001:0000f5f0       ?getTriangleNormal@HeightField@Gu@physx@@UEBA?AVPxVec3@3@I@Z 00000001800105f0 f i GuBounds.obj
 0001:0000f6f0       ?getVertices@ConvexMesh@Gu@physx@@UEBAPEBVPxVec3@3@XZ 00000001800106f0 f i GuBounds.obj
 0001:0000f710       ?isKindOf@PxBase@physx@@MEBA_NPEBD@Z 0000000180010710 f i GuBounds.obj
 0001:0000f740       ?isKindOf@PxConvexMesh@physx@@MEBA_NPEBD@Z 0000000180010740 f i GuBounds.obj
 0001:0000f790       ?isKindOf@PxHeightField@physx@@MEBA_NPEBD@Z 0000000180010790 f i GuBounds.obj
 0001:0000f7e0       ?isReleasable@PxBase@physx@@UEBA_NXZ 00000001800107e0 f i GuBounds.obj
 0001:0000f7f0       ?isValid@Box@Gu@physx@@QEBA_NXZ 00000001800107f0 f i GuBounds.obj
 0001:0000f810       ?onRefCountZero@RefCountable@Cm@physx@@UEAAXXZ 0000000180010810 f i GuBounds.obj
 0001:0000f830       ?requiresObjects@ConvexMesh@Gu@physx@@UEAAXAEAVPxProcessPxBaseCallback@3@@Z 0000000180010830 f i GuBounds.obj
 0001:0000f840       ?rotate@Box@Gu@physx@@QEBA?AVPxVec3@3@AEBV43@@Z 0000000180010840 f i GuBounds.obj
 0001:0000f8d0       ?rotateInv@Box@Gu@physx@@QEBA?AVPxVec3@3@AEBV43@@Z 00000001800108d0 f i GuBounds.obj
 0001:0000f960       ?setAxes@Box@Gu@physx@@QEAAXAEBVPxVec3@3@00@Z 0000000180010960 f i GuBounds.obj
 0001:0000f9a0       ?setEmpty@Box@Gu@physx@@QEAAXXZ 00000001800109a0 f i GuBounds.obj
 0001:0000f9e0       ?transform@Box@Gu@physx@@QEBA?AVPxVec3@3@AEBV43@@Z 00000001800109e0 f i GuBounds.obj
 0001:0000fa80       ?computeOBBPoints@Gu@physx@@YAXPEIAVPxVec3@2@AEBV32@1111@Z 0000000180010a80 f   GuBox.obj
 0001:0000fd90       ?create@Box@Gu@physx@@QEAAXAEBVCapsule@23@@Z 0000000180010d90 f   GuBox.obj
 0001:0000ffd0       ?getBoxEdges@Gu@physx@@YAPEBEXZ 0000000180010fd0 f   GuBox.obj
 0001:0000ffe0       ?computeBoxAroundCapsule@Gu@physx@@YAXAEBVCapsule@12@AEAVBox@12@@Z 0000000180010fe0 f   GuCapsule.obj
 0001:00010130       ?computeBasis@shdfnd@physx@@YAXAEBVPxVec3@2@0AEAV32@11@Z 0000000180011130 f i GuCapsule.obj
 0001:000102f0       ?sweepBoxTriangles_Precise@Gu@physx@@YA_NIPEBVPxTriangle@2@_NAEBVPxBoxGeometry@2@AEBVPxTransform@2@AEBVPxVec3@2@MAEAUPxSweepHit@2@PEBIMV?$PxFlags@W4Enum@PxHitFlag@physx@@G@2@@Z 00000001800112f0 f   GuCCTSweepTests.obj
 0001:00010440       ?sweepCapsule_BoxGeom_Precise@@YA_NAEBVPxGeometry@physx@@AEBVPxTransform@2@AEBVPxCapsuleGeometry@2@1AEBVCapsule@Gu@2@AEBVPxVec3@2@MAEAUPxSweepHit@2@V?$PxFlags@W4Enum@PxHitFlag@physx@@G@2@M@Z 0000000180011440 f   GuCCTSweepTests.obj
 0001:00010ab0       ?sweepBox_SphereGeom_Precise@@YA_NAEBVPxGeometry@physx@@AEBVPxTransform@2@AEBVPxBoxGeometry@2@1AEBVBox@Gu@2@AEBVPxVec3@2@MAEAUPxSweepHit@2@V?$PxFlags@W4Enum@PxHitFlag@physx@@G@2@M@Z 0000000180011ab0 f   GuCCTSweepTests.obj
 0001:00010d90       ?sweepBox_CapsuleGeom_Precise@@YA_NAEBVPxGeometry@physx@@AEBVPxTransform@2@AEBVPxBoxGeometry@2@1AEBVBox@Gu@2@AEBVPxVec3@2@MAEAUPxSweepHit@2@V?$PxFlags@W4Enum@PxHitFlag@physx@@G@2@M@Z 0000000180011d90 f   GuCCTSweepTests.obj
 0001:00011160       ?sweepBox_BoxGeom_Precise@@YA_NAEBVPxGeometry@physx@@AEBVPxTransform@2@AEBVPxBoxGeometry@2@1AEBVBox@Gu@2@AEBVPxVec3@2@MAEAUPxSweepHit@2@V?$PxFlags@W4Enum@PxHitFlag@physx@@G@2@M@Z 0000000180012160 f   GuCCTSweepTests.obj
 0001:00011320       ?sweepBox_HeightFieldGeom_Precise@@YA_NAEBVPxGeometry@physx@@AEBVPxTransform@2@AEBVPxBoxGeometry@2@1AEBVBox@Gu@2@AEBVPxVec3@2@MAEAUPxSweepHit@2@V?$PxFlags@W4Enum@PxHitFlag@physx@@G@2@M@Z 0000000180012320 f   GuCCTSweepTests.obj
 0001:000116c0       ??0HeightFieldTraceUtil@Gu@physx@@QEAA@AEBVPxHeightFieldGeometry@2@@Z 00000001800126c0 f i GuCCTSweepTests.obj
 0001:00011700       ??0HeightFieldUtil@Gu@physx@@QEAA@AEBVPxHeightFieldGeometry@2@@Z 0000000180012700 f i GuCCTSweepTests.obj
 0001:00011740       ??1?$EntityReport@I@Gu@physx@@UEAA@XZ 0000000180012740 f i GuCCTSweepTests.obj
 0001:00011750       ??4HeightFieldTraceUtil@Gu@physx@@QEAAAEAV012@$$QEAV012@@Z 0000000180012750 f i GuCCTSweepTests.obj
 0001:00011770       ??4HeightFieldTraceUtil@Gu@physx@@QEAAAEAV012@AEBV012@@Z 0000000180012770 f i GuCCTSweepTests.obj
 0001:00011790       ??4HeightFieldUtil@Gu@physx@@QEAAAEAV012@$$QEAV012@@Z 0000000180012790 f i GuCCTSweepTests.obj
 0001:000117c0       ??4HeightFieldUtil@Gu@physx@@QEAAAEAV012@AEBV012@@Z 00000001800127c0 f i GuCCTSweepTests.obj
 0001:000117e0       ??_G?$EntityReport@I@Gu@physx@@UEAAPEAXI@Z 00000001800127e0 f i GuCCTSweepTests.obj
 0001:000117e0       ??_E?$EntityReport@I@Gu@physx@@UEAAPEAXI@Z 00000001800127e0 f i GuCCTSweepTests.obj
 0001:00011840       ?ceilUp@HeightFieldTraceUtil@Gu@physx@@SAMM@Z 0000000180012840 f i GuCCTSweepTests.obj
 0001:00011880       ?computePointNormal@HeightFieldUtil@Gu@physx@@QEBA?AVPxVec3@3@IAEBV43@AEBVPxTransform@3@MMMMAEAM@Z 0000000180012880 f i GuCCTSweepTests.obj
 0001:00011ca0       ?floorDown@HeightFieldTraceUtil@Gu@physx@@SAMM@Z 0000000180012ca0 f i GuCCTSweepTests.obj
 0001:00011ce0       ?getFeatureIndex@HeightFieldUtil@Gu@physx@@SAII@Z 0000000180012ce0 f i GuCCTSweepTests.obj
 0001:00011cf0       ?getFeatureType@HeightFieldUtil@Gu@physx@@SA?AW4Feature@123@I@Z 0000000180012cf0 f i GuCCTSweepTests.obj
 0001:00011d00       ?getHeightAtShapePoint@HeightFieldUtil@Gu@physx@@QEBAMMM@Z 0000000180012d00 f i GuCCTSweepTests.obj
 0001:00011d60       ?getHeightField@HeightFieldUtil@Gu@physx@@QEBAAEBVHeightField@23@XZ 0000000180012d60 f i GuCCTSweepTests.obj
 0001:00011d70       ?getHeightFieldGeometry@HeightFieldUtil@Gu@physx@@QEBAAEBVPxHeightFieldGeometry@3@XZ 0000000180012d70 f i GuCCTSweepTests.obj
 0001:00011d80       ?getNormalAtShapePoint@HeightFieldUtil@Gu@physx@@QEBA?AVPxVec3@3@MM@Z 0000000180012d80 f i GuCCTSweepTests.obj
 0001:00011e40       ?getNormal_2@HeightField@Gu@physx@@QEBA?AVPxVec3@3@IMMMMM@Z 0000000180012e40 f i GuCCTSweepTests.obj
 0001:00011f70       ?getOneOverColumnScale@HeightFieldUtil@Gu@physx@@QEBAMXZ 0000000180012f70 f i GuCCTSweepTests.obj
 0001:00011f80       ?getOneOverHeightScale@HeightFieldUtil@Gu@physx@@QEBAMXZ 0000000180012f80 f i GuCCTSweepTests.obj
 0001:00011f90       ?getOneOverRowScale@HeightFieldUtil@Gu@physx@@QEBAMXZ 0000000180012f90 f i GuCCTSweepTests.obj
 0001:00011fa0       ?getVertexNormal@HeightFieldUtil@Gu@physx@@QEBA?AVPxVec3@3@I@Z 0000000180012fa0 f i GuCCTSweepTests.obj
 0001:00011fe0       ?hf2shapen@HeightFieldUtil@Gu@physx@@QEBA?AVPxVec3@3@AEBV43@@Z 0000000180012fe0 f i GuCCTSweepTests.obj
 0001:00012020       ?hf2shapep@HeightFieldUtil@Gu@physx@@QEBA?AVPxVec3@3@AEBV43@@Z 0000000180013020 f i GuCCTSweepTests.obj
 0001:00012060       ?hf2worldn@HeightFieldUtil@Gu@physx@@QEBA?AVPxVec3@3@AEBVPxTransform@3@AEBV43@@Z 0000000180013060 f i GuCCTSweepTests.obj
 0001:000121d0       ?hf2worldp@HeightFieldUtil@Gu@physx@@QEBA?AVPxVec3@3@AEBVPxTransform@3@AEBV43@@Z 00000001800131d0 f i GuCCTSweepTests.obj
 0001:00012350       ?isCollisionVertex@HeightFieldUtil@Gu@physx@@QEBA_NIII@Z 0000000180013350 f i GuCCTSweepTests.obj
 0001:00012370       ?isQueryVertex@HeightFieldUtil@Gu@physx@@QEBA_NIII@Z 0000000180013370 f i GuCCTSweepTests.obj
 0001:00012430       ?isShapePointOnHeightField@HeightFieldUtil@Gu@physx@@QEBA_NMM@Z 0000000180013430 f i GuCCTSweepTests.obj
 0001:00012480       ?makeFeatureCode@HeightFieldUtil@Gu@physx@@SAIIW4Feature@123@@Z 0000000180013480 f i GuCCTSweepTests.obj
 0001:00012640       ?shape2hfp@HeightFieldUtil@Gu@physx@@QEBA?AVPxVec3@3@AEBV43@@Z 0000000180013640 f i GuCCTSweepTests.obj
 0001:000132e0       ?sweep@PxGeometryQuery@physx@@SA_NAEBVPxVec3@2@MAEBVPxGeometry@2@AEBVPxTransform@2@12AEAUPxSweepHit@2@V?$PxFlags@W4Enum@PxHitFlag@physx@@G@2@M@Z 00000001800142e0 f   GuGeometryQuery.obj
 0001:000136f0       ?overlap@PxGeometryQuery@physx@@SA_NAEBVPxGeometry@2@AEBVPxTransform@2@01@Z 00000001800146f0 f   GuGeometryQuery.obj
 0001:00013790       ?raycast@PxGeometryQuery@physx@@SAIAEBVPxVec3@2@0AEBVPxGeometry@2@AEBVPxTransform@2@MV?$PxFlags@W4Enum@PxHitFlag@physx@@G@2@IPEIAUPxRaycastHit@2@@Z 0000000180014790 f   GuGeometryQuery.obj
 0001:00013830       ?computePenetration@PxGeometryQuery@physx@@SA_NAEAVPxVec3@2@AEAMAEBVPxGeometry@2@AEBVPxTransform@2@23@Z 0000000180014830 f   GuGeometryQuery.obj
 0001:00013910       ?pointDistance@PxGeometryQuery@physx@@SAMAEBVPxVec3@2@AEBVPxGeometry@2@AEBVPxTransform@2@PEAV32@@Z 0000000180014910 f   GuGeometryQuery.obj
 0001:00013fb0       ?getWorldBounds@PxGeometryQuery@physx@@SA?AVPxBounds3@2@AEBVPxGeometry@2@AEBVPxTransform@2@M@Z 0000000180014fb0 f   GuGeometryQuery.obj
 0001:00014020       ?isValid@PxGeometryQuery@physx@@SA_NAEBVPxGeometry@2@@Z 0000000180015020 f   GuGeometryQuery.obj
 0001:00014210       ??4FPUGuard@shdfnd@physx@@QEAAAEAV012@AEBV012@@Z 0000000180015210 f i GuGeometryQuery.obj
 0001:00014230       ?isFinite@PxQuat@physx@@QEBA_NXZ 0000000180015230 f i GuGeometryQuery.obj
 0001:000142a0       ?set@GeometryUnion@Gu@physx@@QEAAXAEBVPxGeometry@3@@Z 00000001800152a0 f   GuGeometryUnion.obj
 0001:00014470       ??0GeometryUnion@Gu@physx@@QEAA@AEBVPxGeometry@2@@Z 0000000180015470 f i GuGeometryUnion.obj
 0001:00014490       ??0GeometryUnion@Gu@physx@@QEAA@W4PxEMPTY@2@@Z 0000000180015490 f i GuGeometryUnion.obj
 0001:000144a0       ??0GeometryUnion@Gu@physx@@QEAA@XZ 00000001800154a0 f i GuGeometryUnion.obj
 0001:000144b0       ??0MaterialIndicesStruct@physx@@QEAA@W4PxEMPTY@1@@Z 00000001800154b0 f i GuGeometryUnion.obj
 0001:000144c0       ??0MaterialIndicesStruct@physx@@QEAA@XZ 00000001800154c0 f i GuGeometryUnion.obj
 0001:000144d0       ??1MaterialIndicesStruct@physx@@QEAA@XZ 00000001800154d0 f i GuGeometryUnion.obj
 0001:000144e0       ??4GeometryUnion@Gu@physx@@QEAAAEAV012@$$QEAV012@@Z 00000001800154e0 f i GuGeometryUnion.obj
 0001:00014510       ??4GeometryUnion@Gu@physx@@QEAAAEAV012@AEBV012@@Z 0000000180015510 f i GuGeometryUnion.obj
 0001:00014540       ??4MaterialIndicesStruct@physx@@QEAAAEAU01@AEBU01@@Z 0000000180015540 f i GuGeometryUnion.obj
 0001:00014550       ?allocate@MaterialIndicesStruct@physx@@QEAAXG@Z 0000000180015550 f i GuGeometryUnion.obj
 0001:000145d0       ?deallocate@MaterialIndicesStruct@physx@@QEAAXXZ 00000001800155d0 f i GuGeometryUnion.obj
 0001:00014620       ?getGeometry@GeometryUnion@Gu@physx@@QEBAAEBVPxGeometry@3@XZ 0000000180015620 f i GuGeometryUnion.obj
 0001:00014630       ?getType@GeometryUnion@Gu@physx@@QEBA?AW4Enum@PxGeometryType@3@XZ 0000000180015630 f i GuGeometryUnion.obj
 0001:00014640       ?computeBoxPoints@Gu@physx@@YAXAEBVPxBounds3@2@PEIAVPxVec3@2@@Z 0000000180015640 f   GuInternal.obj
 0001:000146e0       ?computeBoundsAroundVertices@Gu@physx@@YAXAEAVPxBounds3@2@IPEIBVPxVec3@2@@Z 00000001800156e0 f   GuInternal.obj
 0001:00014780       ?getPlane@Gu@physx@@YA?AVPxPlane@2@AEBVPxTransform@2@@Z 0000000180015780 f   GuInternal.obj
 0001:00014830       ?computeSweptBox@Gu@physx@@YAXAEAVBox@12@AEBVPxVec3@2@1AEBVPxMat33@2@1M@Z 0000000180015830 f   GuInternal.obj
 0001:00014d90       ??0GuMeshFactory@physx@@QEAA@XZ 0000000180015d90 f   GuMeshFactory.obj
 0001:00014f30       ??1GuMeshFactory@physx@@MEAA@XZ 0000000180015f30 f   GuMeshFactory.obj
 0001:00015020       ?release@GuMeshFactory@physx@@QEAAXXZ 0000000180016020 f   GuMeshFactory.obj
 0001:000150d0       ?addTriangleMesh@GuMeshFactory@physx@@QEAAXPEAVTriangleMesh@Gu@2@_N@Z 00000001800160d0 f   GuMeshFactory.obj
 0001:00015150       ?createTriangleMesh@GuMeshFactory@physx@@QEAAPEAVPxTriangleMesh@2@AEAVPxInputStream@2@@Z 0000000180016150 f   GuMeshFactory.obj
 0001:000151b0       ?createTriangleMesh@GuMeshFactory@physx@@QEAAPEAVPxTriangleMesh@2@PEAX@Z 00000001800161b0 f   GuMeshFactory.obj
 0001:000151c0       ?removeTriangleMesh@GuMeshFactory@physx@@QEAA_NAEAVPxTriangleMesh@2@@Z 00000001800161c0 f   GuMeshFactory.obj
 0001:00015210       ?getNbTriangleMeshes@GuMeshFactory@physx@@QEBAIXZ 0000000180016210 f   GuMeshFactory.obj
 0001:00015250       ?getTriangleMeshes@GuMeshFactory@physx@@QEBAIPEAPEAVPxTriangleMesh@2@II@Z 0000000180016250 f   GuMeshFactory.obj
 0001:000152e0       ?addConvexMesh@GuMeshFactory@physx@@QEAAXPEAVConvexMesh@Gu@2@_N@Z 00000001800162e0 f   GuMeshFactory.obj
 0001:00015360       ?createConvexMesh@GuMeshFactory@physx@@QEAAPEAVPxConvexMesh@2@AEAVPxInputStream@2@@Z 0000000180016360 f   GuMeshFactory.obj
 0001:00015480       ?createConvexMesh@GuMeshFactory@physx@@QEAAPEAVPxConvexMesh@2@PEAX@Z 0000000180016480 f   GuMeshFactory.obj
 0001:00015490       ?removeConvexMesh@GuMeshFactory@physx@@QEAA_NAEAVPxConvexMesh@2@@Z 0000000180016490 f   GuMeshFactory.obj
 0001:000154e0       ?getNbConvexMeshes@GuMeshFactory@physx@@QEBAIXZ 00000001800164e0 f   GuMeshFactory.obj
 0001:00015520       ?getConvexMeshes@GuMeshFactory@physx@@QEBAIPEAPEAVPxConvexMesh@2@II@Z 0000000180016520 f   GuMeshFactory.obj
 0001:000155b0       ?addHeightField@GuMeshFactory@physx@@QEAAXPEAVHeightField@Gu@2@_N@Z 00000001800165b0 f   GuMeshFactory.obj
 0001:00015630       ?createHeightField@GuMeshFactory@physx@@QEAAPEAVPxHeightField@2@PEAX@Z 0000000180016630 f   GuMeshFactory.obj
 0001:00015730       ?createHeightField@GuMeshFactory@physx@@QEAAPEAVPxHeightField@2@AEAVPxInputStream@2@@Z 0000000180016730 f   GuMeshFactory.obj
 0001:00015850       ?removeHeightField@GuMeshFactory@physx@@QEAA_NAEAVPxHeightField@2@@Z 0000000180016850 f   GuMeshFactory.obj
 0001:000158a0       ?getNbHeightFields@GuMeshFactory@physx@@QEBAIXZ 00000001800168a0 f   GuMeshFactory.obj
 0001:000158e0       ?getHeightFields@GuMeshFactory@physx@@QEBAIPEAPEAVPxHeightField@2@II@Z 00000001800168e0 f   GuMeshFactory.obj
 0001:00015980       ?addBVHStructure@GuMeshFactory@physx@@QEAAXPEAVBVHStructure@Gu@2@_N@Z 0000000180016980 f   GuMeshFactory.obj
 0001:00015a00       ?createBVHStructure@GuMeshFactory@physx@@QEAAPEAVPxBVHStructure@2@AEAVPxInputStream@2@@Z 0000000180016a00 f   GuMeshFactory.obj
 0001:00015b20       ?createBVHStructure@GuMeshFactory@physx@@QEAAPEAVPxBVHStructure@2@PEAX@Z 0000000180016b20 f   GuMeshFactory.obj
 0001:00015b30       ?removeBVHStructure@GuMeshFactory@physx@@QEAA_NAEAVPxBVHStructure@2@@Z 0000000180016b30 f   GuMeshFactory.obj
 0001:00015b80       ?getNbBVHStructures@GuMeshFactory@physx@@QEBAIXZ 0000000180016b80 f   GuMeshFactory.obj
 0001:00015bc0       ?getBVHStructures@GuMeshFactory@physx@@QEBAIPEAPEAVPxBVHStructure@2@II@Z 0000000180016bc0 f   GuMeshFactory.obj
 0001:00015c60       ?addFactoryListener@GuMeshFactory@physx@@QEAAXAEAVGuMeshFactoryListener@2@@Z 0000000180016c60 f   GuMeshFactory.obj
 0001:00015ce0       ?removeFactoryListener@GuMeshFactory@physx@@QEAAXAEAVGuMeshFactoryListener@2@@Z 0000000180016ce0 f   GuMeshFactory.obj
 0001:00015d70       ?notifyFactoryListener@GuMeshFactory@physx@@QEAAXPEBVPxBase@2@G@Z 0000000180016d70 f   GuMeshFactory.obj
 0001:00015df0       ?createTriangleMesh@GuMeshFactory@physx@@IEAAPEAVPxTriangleMesh@2@AEAVTriangleMeshData@Gu@2@@Z 0000000180016df0 f   GuMeshFactory.obj
 0001:00015f80       ?createConvexMesh@GuMeshFactory@physx@@IEAAPEAVPxConvexMesh@2@AEAUConvexHullData@Gu@2@@Z 0000000180016f80 f   GuMeshFactory.obj
 0001:00016080       ?createBVHStructure@GuMeshFactory@physx@@IEAAPEAVPxBVHStructure@2@AEAUBVHStructureData@Gu@2@@Z 0000000180017080 f   GuMeshFactory.obj
 0001:00016170       ??1BV4TriangleData@Gu@physx@@UEAA@XZ 0000000180017170 f i GuMeshFactory.obj
 0001:000161b0       ??1MeshDataBase@Gu@physx@@UEAA@XZ 00000001800171b0 f i GuMeshFactory.obj
 0001:00016290       ??1RTreeTriangleData@Gu@physx@@UEAA@XZ 0000000180017290 f i GuMeshFactory.obj
 0001:00016300       ??1TriangleMeshData@Gu@physx@@UEAA@XZ 0000000180017300 f i GuMeshFactory.obj
 0001:000163d0       ??_EGuMeshFactory@physx@@MEAAPEAXI@Z 00000001800173d0 f i GuMeshFactory.obj
 0001:000164e0       ??_EBV4TriangleData@Gu@physx@@UEAAPEAXI@Z 00000001800174e0 f i GuMeshFactory.obj
 0001:000164e0       ??_GBV4TriangleData@Gu@physx@@UEAAPEAXI@Z 00000001800174e0 f i GuMeshFactory.obj
 0001:00016560       ??_GGuMeshFactory@physx@@MEAAPEAXI@Z 0000000180017560 f i GuMeshFactory.obj
 0001:000165c0       ??_EMeshDataBase@Gu@physx@@UEAAPEAXI@Z 00000001800175c0 f i GuMeshFactory.obj
 0001:000165c0       ??_GMeshDataBase@Gu@physx@@UEAAPEAXI@Z 00000001800175c0 f i GuMeshFactory.obj
 0001:00016620       ??_GRTreeTriangleData@Gu@physx@@UEAAPEAXI@Z 0000000180017620 f i GuMeshFactory.obj
 0001:00016620       ??_ERTreeTriangleData@Gu@physx@@UEAAPEAXI@Z 0000000180017620 f i GuMeshFactory.obj
 0001:000166d0       ??_GTriangleMeshData@Gu@physx@@UEAAPEAXI@Z 00000001800176d0 f i GuMeshFactory.obj
 0001:000166d0       ??_ETriangleMeshData@Gu@physx@@UEAAPEAXI@Z 00000001800176d0 f i GuMeshFactory.obj
 0001:00016730       ?__global_array_delete@@YAXPEAX@Z 0000000180017730 f i GuMeshFactory.obj
 0001:00016740       ?__global_array_delete@@YAXPEAX_K@Z 0000000180017740 f i GuMeshFactory.obj
 0001:00016750       ?__global_delete@@YAXPEAX@Z 0000000180017750 f i GuMeshFactory.obj
 0001:00016760       ?__global_delete@@YAXPEAX_K@Z 0000000180017760 f i GuMeshFactory.obj
 0001:00016770       ?create@?$HashBase@PEAVBVHStructure@Gu@physx@@PEAV123@U?$Hash@PEAVBVHStructure@Gu@physx@@@shdfnd@3@UGetKey@?$HashSetBase@PEAVBVHStructure@Gu@physx@@U?$Hash@PEAVBVHStructure@Gu@physx@@@shdfnd@3@VNonTrackingAllocator@53@$00@internal@53@VNonTrackingAllocator@53@$00@internal@shdfnd@physx@@QEAAPEAPEAVBVHStructure@Gu@4@AEBQEAV564@AEA_N@Z 0000000180017770 f i GuMeshFactory.obj
 0001:00016910       ?create@?$HashBase@PEAVConvexMesh@Gu@physx@@PEAV123@U?$Hash@PEAVConvexMesh@Gu@physx@@@shdfnd@3@UGetKey@?$HashSetBase@PEAVConvexMesh@Gu@physx@@U?$Hash@PEAVConvexMesh@Gu@physx@@@shdfnd@3@VNonTrackingAllocator@53@$00@internal@53@VNonTrackingAllocator@53@$00@internal@shdfnd@physx@@QEAAPEAPEAVConvexMesh@Gu@4@AEBQEAV564@AEA_N@Z 0000000180017910 f i GuMeshFactory.obj
 0001:00016ab0       ?create@?$HashBase@PEAVHeightField@Gu@physx@@PEAV123@U?$Hash@PEAVHeightField@Gu@physx@@@shdfnd@3@UGetKey@?$HashSetBase@PEAVHeightField@Gu@physx@@U?$Hash@PEAVHeightField@Gu@physx@@@shdfnd@3@VNonTrackingAllocator@53@$00@internal@53@VNonTrackingAllocator@53@$00@internal@shdfnd@physx@@QEAAPEAPEAVHeightField@Gu@4@AEBQEAV564@AEA_N@Z 0000000180017ab0 f i GuMeshFactory.obj
 0001:00016c50       ?create@?$HashBase@PEAVTriangleMesh@Gu@physx@@PEAV123@U?$Hash@PEAVTriangleMesh@Gu@physx@@@shdfnd@3@UGetKey@?$HashSetBase@PEAVTriangleMesh@Gu@physx@@U?$Hash@PEAVTriangleMesh@Gu@physx@@@shdfnd@3@VNonTrackingAllocator@53@$00@internal@53@VNonTrackingAllocator@53@$00@internal@shdfnd@physx@@QEAAPEAPEAVTriangleMesh@Gu@4@AEBQEAV564@AEA_N@Z 0000000180017c50 f i GuMeshFactory.obj
 0001:00016df0       ?erase@?$HashBase@PEAVBVHStructure@Gu@physx@@PEAV123@U?$Hash@PEAVBVHStructure@Gu@physx@@@shdfnd@3@UGetKey@?$HashSetBase@PEAVBVHStructure@Gu@physx@@U?$Hash@PEAVBVHStructure@Gu@physx@@@shdfnd@3@VNonTrackingAllocator@53@$00@internal@53@VNonTrackingAllocator@53@$00@internal@shdfnd@physx@@QEAA_NAEBQEAVBVHStructure@Gu@4@@Z 0000000180017df0 f i GuMeshFactory.obj
 0001:00016f70       ?erase@?$HashBase@PEAVConvexMesh@Gu@physx@@PEAV123@U?$Hash@PEAVConvexMesh@Gu@physx@@@shdfnd@3@UGetKey@?$HashSetBase@PEAVConvexMesh@Gu@physx@@U?$Hash@PEAVConvexMesh@Gu@physx@@@shdfnd@3@VNonTrackingAllocator@53@$00@internal@53@VNonTrackingAllocator@53@$00@internal@shdfnd@physx@@QEAA_NAEBQEAVConvexMesh@Gu@4@@Z 0000000180017f70 f i GuMeshFactory.obj
 0001:000170f0       ?erase@?$HashBase@PEAVHeightField@Gu@physx@@PEAV123@U?$Hash@PEAVHeightField@Gu@physx@@@shdfnd@3@UGetKey@?$HashSetBase@PEAVHeightField@Gu@physx@@U?$Hash@PEAVHeightField@Gu@physx@@@shdfnd@3@VNonTrackingAllocator@53@$00@internal@53@VNonTrackingAllocator@53@$00@internal@shdfnd@physx@@QEAA_NAEBQEAVHeightField@Gu@4@@Z 00000001800180f0 f i GuMeshFactory.obj
 0001:00017270       ?erase@?$HashBase@PEAVTriangleMesh@Gu@physx@@PEAV123@U?$Hash@PEAVTriangleMesh@Gu@physx@@@shdfnd@3@UGetKey@?$HashSetBase@PEAVTriangleMesh@Gu@physx@@U?$Hash@PEAVTriangleMesh@Gu@physx@@@shdfnd@3@VNonTrackingAllocator@53@$00@internal@53@VNonTrackingAllocator@53@$00@internal@shdfnd@physx@@QEAA_NAEBQEAVTriangleMesh@Gu@4@@Z 0000000180018270 f i GuMeshFactory.obj
 0001:000173f0       ?growAndPushBack@?$Array@PEAVGuMeshFactoryListener@physx@@V?$ReflectionAllocator@PEAVGuMeshFactoryListener@physx@@@shdfnd@2@@shdfnd@physx@@IEAAAEAPEAVGuMeshFactoryListener@3@AEBQEAV43@@Z 00000001800183f0 f i GuMeshFactory.obj
 0001:000184f0       ?reserveInternal@?$HashBase@PEAVBVHStructure@Gu@physx@@PEAV123@U?$Hash@PEAVBVHStructure@Gu@physx@@@shdfnd@3@UGetKey@?$HashSetBase@PEAVBVHStructure@Gu@physx@@U?$Hash@PEAVBVHStructure@Gu@physx@@@shdfnd@3@VNonTrackingAllocator@53@$00@internal@53@VNonTrackingAllocator@53@$00@internal@shdfnd@physx@@AEAAXI@Z 00000001800194f0 f i GuMeshFactory.obj
 0001:000186c0       ?reserveInternal@?$HashBase@PEAVConvexMesh@Gu@physx@@PEAV123@U?$Hash@PEAVConvexMesh@Gu@physx@@@shdfnd@3@UGetKey@?$HashSetBase@PEAVConvexMesh@Gu@physx@@U?$Hash@PEAVConvexMesh@Gu@physx@@@shdfnd@3@VNonTrackingAllocator@53@$00@internal@53@VNonTrackingAllocator@53@$00@internal@shdfnd@physx@@AEAAXI@Z 00000001800196c0 f i GuMeshFactory.obj
 0001:00018890       ?reserveInternal@?$HashBase@PEAVHeightField@Gu@physx@@PEAV123@U?$Hash@PEAVHeightField@Gu@physx@@@shdfnd@3@UGetKey@?$HashSetBase@PEAVHeightField@Gu@physx@@U?$Hash@PEAVHeightField@Gu@physx@@@shdfnd@3@VNonTrackingAllocator@53@$00@internal@53@VNonTrackingAllocator@53@$00@internal@shdfnd@physx@@AEAAXI@Z 0000000180019890 f i GuMeshFactory.obj
 0001:00018a60       ?reserveInternal@?$HashBase@PEAVTriangleMesh@Gu@physx@@PEAV123@U?$Hash@PEAVTriangleMesh@Gu@physx@@@shdfnd@3@UGetKey@?$HashSetBase@PEAVTriangleMesh@Gu@physx@@U?$Hash@PEAVTriangleMesh@Gu@physx@@@shdfnd@3@VNonTrackingAllocator@53@$00@internal@53@VNonTrackingAllocator@53@$00@internal@shdfnd@physx@@AEAAXI@Z 0000000180019a60 f i GuMeshFactory.obj
 0001:00018c30       ?getBinaryMetaData@HeightField@Gu@physx@@SAXAEAVPxOutputStream@3@@Z 0000000180019c30 f   GuMetaData.obj
 0001:00019060       ?getBinaryMetaData@BigConvexData@physx@@SAXAEAVPxOutputStream@2@@Z 000000018001a060 f   GuMetaData.obj
 0001:00019330       ?getBinaryMetaData@ConvexMesh@Gu@physx@@SAXAEAVPxOutputStream@3@@Z 000000018001a330 f   GuMetaData.obj
 0001:000199c0       ?getBinaryMetaData@RTree@Gu@physx@@SAXAEAVPxOutputStream@3@@Z 000000018001a9c0 f   GuMetaData.obj
 0001:00019d00       ?getBinaryMetaData@SourceMesh@Gu@physx@@SAXAEAVPxOutputStream@3@@Z 000000018001ad00 f   GuMetaData.obj
 0001:00019ef0       ?getBinaryMetaData@BV4Tree@Gu@physx@@SAXAEAVPxOutputStream@3@@Z 000000018001aef0 f   GuMetaData.obj
 0001:0001a280       ?getBinaryMetaData@TriangleMesh@Gu@physx@@SAXAEAVPxOutputStream@3@@Z 000000018001b280 f   GuMetaData.obj
 0001:0001aaa0       ?getBinaryMetaData@BV4TriangleMesh@Gu@physx@@SAXAEAVPxOutputStream@3@@Z 000000018001baa0 f   GuMetaData.obj
 0001:0001ad80       ?getBinaryMetaData@RTreeTriangleMesh@Gu@physx@@SAXAEAVPxOutputStream@3@@Z 000000018001bd80 f   GuMetaData.obj
 0001:0001ae70       ?getBinaryMetaData@MaterialIndicesStruct@physx@@SAXAEAVPxOutputStream@2@@Z 000000018001be70 f   GuMetaData.obj
 0001:0001b020       ?getBinaryMetaData@GeometryUnion@Gu@physx@@SAXAEAVPxOutputStream@3@@Z 000000018001c020 f   GuMetaData.obj
 0001:0001b670       ??0BigConvexData@physx@@QEAA@W4PxEMPTY@1@@Z 000000018001c670 f i GuMetaData.obj
 0001:0001b680       ??4BigConvexData@physx@@QEAAAEAV01@AEBV01@@Z 000000018001c680 f i GuMetaData.obj
 0001:0001b6a0       ?GetAdjacentVerts@BigConvexData@physx@@QEBAPEBEXZ 000000018001c6a0 f i GuMetaData.obj
 0001:0001b6b0       ?GetNbNeighbors@BigConvexData@physx@@QEBAGI@Z 000000018001c6b0 f i GuMetaData.obj
 0001:0001b6c0       ?GetNbSamples@BigConvexData@physx@@QEBAIXZ 000000018001c6c0 f i GuMetaData.obj
 0001:0001b6d0       ?GetNbVerts@BigConvexData@physx@@QEBAIXZ 000000018001c6d0 f i GuMetaData.obj
 0001:0001b6e0       ?GetNeighbors@BigConvexData@physx@@QEBAPEBEI@Z 000000018001c6e0 f i GuMetaData.obj
 0001:0001b6f0       ?GetOffset@BigConvexData@physx@@QEBAGI@Z 000000018001c6f0 f i GuMetaData.obj
 0001:0001b700       ?GetSubdiv@BigConvexData@physx@@QEBAIXZ 000000018001c700 f i GuMetaData.obj
 0001:0001b710       ?GetValencies@BigConvexData@physx@@QEBAPEBUValency@Gu@2@XZ 000000018001c710 f i GuMetaData.obj
 0001:0001b720       ?GetValency@BigConvexData@physx@@QEBAGI@Z 000000018001c720 f i GuMetaData.obj
 0001:0001cb40       ??_GSupportLocal@Gu@physx@@UEAAPEAXI@Z 000000018001db40 f i GuMTD.obj
 0001:0001cb40       ??_ESupportLocal@Gu@physx@@UEAAPEAXI@Z 000000018001db40 f i GuMTD.obj
 0001:0001cb70       ?doSupport@?$SupportLocalImpl@VConvexHullV@Gu@physx@@@Gu@physx@@UEBA?AT__m128@@AEBT4@@Z 000000018001db70 f i GuMTD.obj
 0001:0001cc50       ?doSupport@?$SupportLocalImpl@VConvexHullV@Gu@physx@@@Gu@physx@@UEBAXAEBT__m128@@AEAT4@1@Z 000000018001dc50 f i GuMTD.obj
 0001:0001cfd0       ?populateVerts@?$SupportLocalImpl@VConvexHullV@Gu@physx@@@Gu@physx@@UEBAXPEBEIPEBVPxVec3@3@PEAT__m128@@@Z 000000018001dfd0 f i GuMTD.obj
 0001:0001d030       ??_E?$SupportLocalImpl@VConvexHullV@Gu@physx@@@Gu@physx@@UEAAPEAXI@Z 000000018001e030 f i GuMTD.obj
 0001:0001d030       ??_G?$SupportLocalImpl@VConvexHullV@Gu@physx@@@Gu@physx@@UEAAPEAXI@Z 000000018001e030 f i GuMTD.obj
 0001:0001d060       ?doSupport@?$SupportLocalImpl@VConvexHullNoScaleV@Gu@physx@@@Gu@physx@@UEBA?AT__m128@@AEBT4@@Z 000000018001e060 f i GuMTD.obj
 0001:0001d0b0       ?doSupport@?$SupportLocalImpl@VConvexHullNoScaleV@Gu@physx@@@Gu@physx@@UEBAXAEBT__m128@@AEAT4@1@Z 000000018001e0b0 f i GuMTD.obj
 0001:0001d230       ?populateVerts@?$SupportLocalImpl@VConvexHullNoScaleV@Gu@physx@@@Gu@physx@@UEBAXPEBEIPEBVPxVec3@3@PEAT__m128@@@Z 000000018001e230 f i GuMTD.obj
 0001:0001d270       ??_E?$SupportLocalImpl@VConvexHullNoScaleV@Gu@physx@@@Gu@physx@@UEAAPEAXI@Z 000000018001e270 f i GuMTD.obj
 0001:0001d270       ??_G?$SupportLocalImpl@VConvexHullNoScaleV@Gu@physx@@@Gu@physx@@UEAAPEAXI@Z 000000018001e270 f i GuMTD.obj
 0001:0001d2a0       ?doSupport@?$SupportLocalImpl@VBoxV@Gu@physx@@@Gu@physx@@UEBA?AT__m128@@AEBT4@@Z 000000018001e2a0 f i GuMTD.obj
 0001:0001d2d0       ?doSupport@?$SupportLocalImpl@VBoxV@Gu@physx@@@Gu@physx@@UEBAXAEBT__m128@@AEAT4@1@Z 000000018001e2d0 f i GuMTD.obj
 0001:0001d320       ?populateVerts@?$SupportLocalImpl@VBoxV@Gu@physx@@@Gu@physx@@UEBAXPEBEIPEBVPxVec3@3@PEAT__m128@@@Z 000000018001e320 f i GuMTD.obj
 0001:0001d360       ??_E?$SupportLocalImpl@VBoxV@Gu@physx@@@Gu@physx@@UEAAPEAXI@Z 000000018001e360 f i GuMTD.obj
 0001:0001d360       ??_G?$SupportLocalImpl@VBoxV@Gu@physx@@@Gu@physx@@UEAAPEAXI@Z 000000018001e360 f i GuMTD.obj
 0001:0001d390       ?pointConvexDistance@@YA_NAEAVPxVec3@physx@@0AEAMAEBV12@PEBVConvexMesh@Gu@2@AEBVPxMeshScale@2@AEBVPxTransform@2@@Z 000000018001e390 f   GuMTD.obj
 0001:0001fdf0       ??$gjk@U?$LocalConvex@VCapsuleV@Gu@physx@@@Gu@physx@@U?$LocalConvex@VConvexHullV@Gu@physx@@@23@@Gu@physx@@YA?AW4GjkStatus@01@AEBU?$LocalConvex@VCapsuleV@Gu@physx@@@01@AEBU?$LocalConvex@VConvexHullV@Gu@physx@@@01@AEBT__m128@@2AEAT5@333@Z 0000000180020df0 f i GuMTD.obj
 0001:00020d30       ??0ContactPoint@Gu@physx@@QEAA@XZ 0000000180021d30 f i GuMTD.obj
 0001:00020d40       ??0HullPolygonData@Gu@physx@@QEAA@AEBU012@@Z 0000000180021d40 f i GuMTD.obj
 0001:00020d70       ??0MeshPersistentContact@Gu@physx@@QEAA@XZ 0000000180021d70 f i GuMTD.obj
 0001:00020d80       ??0MultiplePersistentContactManifold@Gu@physx@@QEAA@XZ 0000000180021d80 f i GuMTD.obj
 0001:00020e30       ??0PersistentContact@Gu@physx@@QEAA@XZ 0000000180021e30 f i GuMTD.obj
 0001:00020e40       ??0PolygonalBox@Gu@physx@@QEAA@AEBV012@@Z 0000000180021e40 f i GuMTD.obj
 0001:000210c0       ??0PxVec3@physx@@QEAA@AEBV01@@Z 00000001800220c0 f i GuMTD.obj
 0001:000210e0       ??0SeparatingAxes@Gu@physx@@QEAA@$$QEAV012@@Z 00000001800220e0 f i GuMTD.obj
 0001:000211f0       ??0SeparatingAxes@Gu@physx@@QEAA@AEBV012@@Z 00000001800221f0 f i GuMTD.obj
 0001:00021300       ??0SeparatingAxes@Gu@physx@@QEAA@XZ 0000000180022300 f i GuMTD.obj
 0001:00021310       ??0SinglePersistentContactManifold@Gu@physx@@QEAA@XZ 0000000180022310 f i GuMTD.obj
 0001:00021320       ??1GjkConvexBase@Gu@physx@@UEAA@XZ 0000000180022320 f i GuMTD.obj
 0001:00021330       ??1SupportLocal@Gu@physx@@UEAA@XZ 0000000180022330 f i GuMTD.obj
 0001:00021340       ??4MultiplePersistentContactManifold@Gu@physx@@QEAAAEAV012@$$QEAV012@@Z 0000000180022340 f i GuMTD.obj
 0001:00021650       ??4MultiplePersistentContactManifold@Gu@physx@@QEAAAEAV012@AEBV012@@Z 0000000180022650 f i GuMTD.obj
 0001:00021670       ??4SeparatingAxes@Gu@physx@@QEAAAEAV012@$$QEAV012@@Z 0000000180022670 f i GuMTD.obj
 0001:00021780       ??4SeparatingAxes@Gu@physx@@QEAAAEAV012@AEBV012@@Z 0000000180022780 f i GuMTD.obj
 0001:00021890       ??_G?$LocalConvex@VCapsuleV@Gu@physx@@@Gu@physx@@UEAAPEAXI@Z 0000000180022890 f i GuMTD.obj
 0001:00021890       ??_E?$LocalConvex@VCapsuleV@Gu@physx@@@Gu@physx@@UEAAPEAXI@Z 0000000180022890 f i GuMTD.obj
 0001:000218c0       ??_E?$LocalConvex@VConvexHullV@Gu@physx@@@Gu@physx@@UEAAPEAXI@Z 00000001800228c0 f i GuMTD.obj
 0001:000218c0       ??_G?$LocalConvex@VConvexHullV@Gu@physx@@@Gu@physx@@UEAAPEAXI@Z 00000001800228c0 f i GuMTD.obj
 0001:000218f0       ??_EGjkConvex@Gu@physx@@UEAAPEAXI@Z 00000001800228f0 f i GuMTD.obj
 0001:000218f0       ??_GGjkConvex@Gu@physx@@UEAAPEAXI@Z 00000001800228f0 f i GuMTD.obj
 0001:00021920       ??_GGjkConvexBase@Gu@physx@@UEAAPEAXI@Z 0000000180022920 f i GuMTD.obj
 0001:00021920       ??_EGjkConvexBase@Gu@physx@@UEAAPEAXI@Z 0000000180022920 f i GuMTD.obj
 0001:00021950       ??__G@YAXPEAX0_K1P6APEAX00@Z@Z 0000000180022950 f i GuMTD.obj
 0001:00022110       ?clearManifold@MultiplePersistentContactManifold@Gu@physx@@QEAAXXZ 0000000180023110 f i GuMTD.obj
 0001:00025bc0       ?getAxes@SeparatingAxes@Gu@physx@@QEBAPEBVPxVec3@3@XZ 0000000180026bc0 f i GuMTD.obj
 0001:00025bd0       ?getCenter@?$LocalConvex@VCapsuleV@Gu@physx@@@Gu@physx@@UEBA?AT__m128@@XZ 0000000180026bd0 f i GuMTD.obj
 0001:00025be0       ?getCenter@?$LocalConvex@VConvexHullV@Gu@physx@@@Gu@physx@@UEBA?AT__m128@@XZ 0000000180026be0 f i GuMTD.obj
 0001:00025bf0       ?getEmptyManifold@MultiplePersistentContactManifold@Gu@physx@@QEAAPEAVSinglePersistentContactManifold@23@XZ 0000000180026bf0 f i GuMTD.obj
 0001:00025c20       ?getManifold@MultiplePersistentContactManifold@Gu@physx@@QEAAPEAVSinglePersistentContactManifold@23@I@Z 0000000180026c20 f i GuMTD.obj
 0001:00025c40       ?getNumAxes@SeparatingAxes@Gu@physx@@QEBAIXZ 0000000180026c40 f i GuMTD.obj
 0001:00025c50       ?getSweepMargin@?$LocalConvex@VCapsuleV@Gu@physx@@@Gu@physx@@UEBA?AT__m128@@XZ 0000000180026c50 f i GuMTD.obj
 0001:00025c60       ?getSweepMargin@?$LocalConvex@VConvexHullV@Gu@physx@@@Gu@physx@@UEBA?AT__m128@@XZ 0000000180026c60 f i GuMTD.obj
 0001:00025c80       ?getSweepMargin@GjkConvex@Gu@physx@@UEBA?AT__m128@@XZ 0000000180026c80 f i GuMTD.obj
 0001:00025ca0       ?hillClimbing@ConvexHullV@Gu@physx@@QEBAIAEBT__m128@@@Z 0000000180026ca0 f i GuMTD.obj
 0001:00025ed0       ?initialize@MultiplePersistentContactManifold@Gu@physx@@QEAAXXZ 0000000180026ed0 f i GuMTD.obj
 0001:00025f60       ?invalidate@MultiplePersistentContactManifold@Gu@physx@@QEAAIAEBVPsTransformV@aos@shdfnd@3@AEBT__m128@@1@Z 0000000180026f60 f i GuMTD.obj
 0001:00025ff0       ?invalidate@MultiplePersistentContactManifold@Gu@physx@@QEAAIAEBVPsTransformV@aos@shdfnd@3@AEBT__m128@@@Z 0000000180026ff0 f i GuMTD.obj
 0001:00026090       ?maxTransformPositionDelta@MultiplePersistentContactManifold@Gu@physx@@QEAA?AT__m128@@AEBT4@@Z 0000000180027090 f i GuMTD.obj
 0001:000260d0       ?maxTransformQuatDelta@MultiplePersistentContactManifold@Gu@physx@@QEAA?AT__m128@@AEBT4@@Z 00000001800270d0 f i GuMTD.obj
 0001:000264c0       ?reduceManifoldContactsInDifferentPatches@MultiplePersistentContactManifold@Gu@physx@@QEAAIPEAPEAUPCMContactPatch@23@IPEAVMeshPersistentContact@23@IAEBT__m128@@@Z 00000001800274c0 f i GuMTD.obj
 0001:00026620       ?refineContactPatchConnective@MultiplePersistentContactManifold@Gu@physx@@QEAAXPEAPEAUPCMContactPatch@23@IPEAVMeshPersistentContact@23@AEBT__m128@@@Z 0000000180027620 f i GuMTD.obj
 0001:00026710       ?refreshManifold@MultiplePersistentContactManifold@Gu@physx@@QEAAXAEBVPsMatTransformV@aos@shdfnd@3@AEBT__m128@@1@Z 0000000180027710 f i GuMTD.obj
 0001:00026810       ?reset@SeparatingAxes@Gu@physx@@QEAAXXZ 0000000180027810 f i GuMTD.obj
 0001:00026820       ?setRelativeTransform@MultiplePersistentContactManifold@Gu@physx@@QEAAXAEBVPsTransformV@aos@shdfnd@3@@Z 0000000180027820 f i GuMTD.obj
 0001:00026830       ?support@?$LocalConvex@VCapsuleV@Gu@physx@@@Gu@physx@@UEBA?AT__m128@@AEBT4@@Z 0000000180027830 f i GuMTD.obj
 0001:00026890       ?support@?$LocalConvex@VCapsuleV@Gu@physx@@@Gu@physx@@UEBA?AT__m128@@AEBT4@AEAH@Z 0000000180027890 f i GuMTD.obj
 0001:00026900       ?support@?$LocalConvex@VConvexHullV@Gu@physx@@@Gu@physx@@UEBA?AT__m128@@AEBT4@@Z 0000000180027900 f i GuMTD.obj
 0001:000269e0       ?support@?$LocalConvex@VConvexHullV@Gu@physx@@@Gu@physx@@UEBA?AT__m128@@AEBT4@AEAH@Z 00000001800279e0 f i GuMTD.obj
 0001:00026ab0       ?support@GjkConvex@Gu@physx@@UEBA?AT__m128@@AEBT4@@Z 0000000180027ab0 f i GuMTD.obj
 0001:00026ad0       ?support@GjkConvex@Gu@physx@@UEBA?AT__m128@@AEBT4@AEAH@Z 0000000180027ad0 f i GuMTD.obj
 0001:00026af0       ?supportPoint@?$LocalConvex@VCapsuleV@Gu@physx@@@Gu@physx@@UEBA?AT__m128@@H@Z 0000000180027af0 f i GuMTD.obj
 0001:00026b20       ?supportPoint@?$LocalConvex@VConvexHullV@Gu@physx@@@Gu@physx@@UEBA?AT__m128@@H@Z 0000000180027b20 f i GuMTD.obj
 0001:00026b70       ?supportPoint@GjkConvex@Gu@physx@@UEBA?AT__m128@@H@Z 0000000180027b70 f i GuMTD.obj
 0001:00026b90       ?supportVertexIndex@ConvexHullV@Gu@physx@@QEBAIAEBT__m128@@@Z 0000000180027b90 f i GuMTD.obj
 0001:00026da0       ?toBuffer@MultiplePersistentContactManifold@Gu@physx@@QEAAXPEIAE@Z 0000000180027da0 f i GuMTD.obj
 0001:00026e70       ?supportPoint@?$RelativeConvex@VBoxV@Gu@physx@@@Gu@physx@@UEBA?AT__m128@@H@Z 0000000180027e70 f i GuOverlapTests.obj
 0001:00026ee0       ?support@?$RelativeConvex@VBoxV@Gu@physx@@@Gu@physx@@UEBA?AT__m128@@AEBT4@@Z 0000000180027ee0 f i GuOverlapTests.obj
 0001:00026f60       ?support@?$RelativeConvex@VBoxV@Gu@physx@@@Gu@physx@@UEBA?AT__m128@@AEBT4@AEAH@Z 0000000180027f60 f i GuOverlapTests.obj
 0001:00026ff0       ?getCenter@?$RelativeConvex@VBoxV@Gu@physx@@@Gu@physx@@UEBA?AT__m128@@XZ 0000000180027ff0 f i GuOverlapTests.obj
 0001:00027030       ?getSweepMargin@?$RelativeConvex@VBoxV@Gu@physx@@@Gu@physx@@UEBA?AT__m128@@XZ 0000000180028030 f i GuOverlapTests.obj
 0001:00027050       ??_G?$RelativeConvex@VBoxV@Gu@physx@@@Gu@physx@@UEAAPEAXI@Z 0000000180028050 f i GuOverlapTests.obj
 0001:00027050       ??_E?$RelativeConvex@VBoxV@Gu@physx@@@Gu@physx@@UEAAPEAXI@Z 0000000180028050 f i GuOverlapTests.obj
 0001:00027080       ?getOverlapFuncTable@Gu@physx@@YAPEAY06Q6A_NAEBVPxGeometry@2@AEBVPxTransform@2@01PEAUTriggerCache@12@@ZXZ 0000000180028080 f   GuOverlapTests.obj
 0001:00027090       ?registerHeightFields@Gu@physx@@YAXXZ 0000000180028090 f   GuOverlapTests.obj
 0001:00029430       ?supportPoint@?$RelativeConvex@VConvexHullV@Gu@physx@@@Gu@physx@@UEBA?AT__m128@@H@Z 000000018002a430 f i GuOverlapTests.obj
 0001:000294b0       ?support@?$RelativeConvex@VConvexHullV@Gu@physx@@@Gu@physx@@UEBA?AT__m128@@AEBT4@@Z 000000018002a4b0 f i GuOverlapTests.obj
 0001:000295e0       ?support@?$RelativeConvex@VConvexHullV@Gu@physx@@@Gu@physx@@UEBA?AT__m128@@AEBT4@AEAH@Z 000000018002a5e0 f i GuOverlapTests.obj
 0001:00029710       ?getCenter@?$RelativeConvex@VConvexHullV@Gu@physx@@@Gu@physx@@UEBA?AT__m128@@XZ 000000018002a710 f i GuOverlapTests.obj
 0001:00029750       ?getSweepMargin@?$RelativeConvex@VConvexHullV@Gu@physx@@@Gu@physx@@UEBA?AT__m128@@XZ 000000018002a750 f i GuOverlapTests.obj
 0001:00029770       ??_E?$RelativeConvex@VConvexHullV@Gu@physx@@@Gu@physx@@UEAAPEAXI@Z 000000018002a770 f i GuOverlapTests.obj
 0001:00029770       ??_G?$RelativeConvex@VConvexHullV@Gu@physx@@@Gu@physx@@UEAAPEAXI@Z 000000018002a770 f i GuOverlapTests.obj
 0001:000297a0       ??$gjk@U?$RelativeConvex@VBoxV@Gu@physx@@@Gu@physx@@U?$LocalConvex@VConvexHullV@Gu@physx@@@23@@Gu@physx@@YA?AW4GjkStatus@01@AEBU?$RelativeConvex@VBoxV@Gu@physx@@@01@AEBU?$LocalConvex@VConvexHullV@Gu@physx@@@01@AEBT__m128@@2AEAT5@333@Z 000000018002a7a0 f i GuOverlapTests.obj
 0001:0002a730       ??$gjk@U?$RelativeConvex@VConvexHullV@Gu@physx@@@Gu@physx@@U?$LocalConvex@VConvexHullV@Gu@physx@@@23@@Gu@physx@@YA?AW4GjkStatus@01@AEBU?$RelativeConvex@VConvexHullV@Gu@physx@@@01@AEBU?$LocalConvex@VConvexHullV@Gu@physx@@@01@AEBT__m128@@2AEAT5@333@Z 000000018002b730 f i GuOverlapTests.obj
 0001:0002b790       ?ComputeCubemapNearestOffset@physx@@YAIAEBVPxVec3@1@I@Z 000000018002c790 f i GuOverlapTests.obj
 0001:0002d320       ?getRaycastFuncTable@Gu@physx@@YAAEAY06Q6AIAEBVPxGeometry@2@AEBVPxTransform@2@AEBVPxVec3@2@2MV?$PxFlags@W4Enum@PxHitFlag@physx@@G@2@IPEIAUPxRaycastHit@2@@ZXZ 000000018002e320 f   GuRaycastTests.obj
 0001:0002d330       ?raycast_box@@YAIAEBVPxGeometry@physx@@AEBVPxTransform@2@AEBVPxVec3@2@2MV?$PxFlags@W4Enum@PxHitFlag@physx@@G@2@IPEIAUPxRaycastHit@2@@Z 000000018002e330 f   GuRaycastTests.obj
 0001:0002d970       ?raycast_sphere@@YAIAEBVPxGeometry@physx@@AEBVPxTransform@2@AEBVPxVec3@2@2MV?$PxFlags@W4Enum@PxHitFlag@physx@@G@2@IPEIAUPxRaycastHit@2@@Z 000000018002e970 f   GuRaycastTests.obj
 0001:0002db00       ?raycast_capsule@@YAIAEBVPxGeometry@physx@@AEBVPxTransform@2@AEBVPxVec3@2@2MV?$PxFlags@W4Enum@PxHitFlag@physx@@G@2@IPEIAUPxRaycastHit@2@@Z 000000018002eb00 f   GuRaycastTests.obj
 0001:0002e070       ?raycast_plane@@YAIAEBVPxGeometry@physx@@AEBVPxTransform@2@AEBVPxVec3@2@2MV?$PxFlags@W4Enum@PxHitFlag@physx@@G@2@IPEIAUPxRaycastHit@2@@Z 000000018002f070 f   GuRaycastTests.obj
 0001:0002e1f0       ?raycast_convexMesh@@YAIAEBVPxGeometry@physx@@AEBVPxTransform@2@AEBVPxVec3@2@2MV?$PxFlags@W4Enum@PxHitFlag@physx@@G@2@IPEIAUPxRaycastHit@2@@Z 000000018002f1f0 f   GuRaycastTests.obj
 0001:0002ecf0       ?raycast_triangleMesh@@YAIAEBVPxGeometry@physx@@AEBVPxTransform@2@AEBVPxVec3@2@2MV?$PxFlags@W4Enum@PxHitFlag@physx@@G@2@IPEIAUPxRaycastHit@2@@Z 000000018002fcf0 f   GuRaycastTests.obj
 0001:0002ed80       ?raycast_heightField@@YAIAEBVPxGeometry@physx@@AEBVPxTransform@2@AEBVPxVec3@2@2MV?$PxFlags@W4Enum@PxHitFlag@physx@@G@2@IPEIAUPxRaycastHit@2@@Z 000000018002fd80 f   GuRaycastTests.obj
 0001:0002f500       ?registerHeightFields_Raycasts@@YAXXZ 0000000180030500 f   GuRaycastTests.obj
 0001:00030780       ??Dphysx@@YA?AVMatrix34@Cm@0@AEBVPxMeshScale@0@AEBVPxTransform@0@@Z 0000000180031780 f i GuRaycastTests.obj
 0001:00031350       ?readChunk@physx@@YAXAEAC000AEAVPxInputStream@1@@Z 0000000180032350 f   GuSerialize.obj
 0001:000313e0       ?readWord@physx@@YAG_NAEAVPxInputStream@1@@Z 00000001800323e0 f   GuSerialize.obj
 0001:00031430       ?readDword@physx@@YAI_NAEAVPxInputStream@1@@Z 0000000180032430 f   GuSerialize.obj
 0001:00031490       ?readFloat@physx@@YAM_NAEAVPxInputStream@1@@Z 0000000180032490 f   GuSerialize.obj
 0001:000314f0       ?writeWord@physx@@YAXG_NAEAVPxOutputStream@1@@Z 00000001800324f0 f   GuSerialize.obj
 0001:00031530       ?writeDword@physx@@YAXI_NAEAVPxOutputStream@1@@Z 0000000180032530 f   GuSerialize.obj
 0001:00031580       ?writeFloat@physx@@YAXM_NAEAVPxOutputStream@1@@Z 0000000180032580 f   GuSerialize.obj
 0001:000315e0       ?readFloatBuffer@physx@@YA_NPEAMI_NAEAVPxInputStream@1@@Z 00000001800325e0 f   GuSerialize.obj
 0001:00031660       ?writeFloatBuffer@physx@@YAXPEBMI_NAEAVPxOutputStream@1@@Z 0000000180032660 f   GuSerialize.obj
 0001:00031710       ?writeWordBuffer@physx@@YAXPEBGI_NAEAVPxOutputStream@1@@Z 0000000180032710 f   GuSerialize.obj
 0001:000317a0       ?readWordBuffer@physx@@YAXPEAGI_NAEAVPxInputStream@1@@Z 00000001800327a0 f   GuSerialize.obj
 0001:00031810       ?writeHeader@physx@@YA_NCCCCI_NAEAVPxOutputStream@1@@Z 0000000180032810 f   GuSerialize.obj
 0001:00031940       ?readHeader@physx@@YA_NCCCCAEAIAEA_NAEAVPxInputStream@1@@Z 0000000180032940 f   GuSerialize.obj
 0001:00031aa0       ?computeMaxIndex@physx@@YAIPEBII@Z 0000000180032aa0 f   GuSerialize.obj
 0001:00031ad0       ?computeMaxIndex@physx@@YAGPEBGI@Z 0000000180032ad0 f   GuSerialize.obj
 0001:00031b10       ?storeIndices@physx@@YAXIIPEBIAEAVPxOutputStream@1@_N@Z 0000000180032b10 f   GuSerialize.obj
 0001:00031c00       ?readIndices@physx@@YAXIIPEAIAEAVPxInputStream@1@_N@Z 0000000180032c00 f   GuSerialize.obj
 0001:00031d00       ?WriteHeader@Gu@physx@@YA_NEEEEI_NAEAVPxOutputStream@2@@Z 0000000180032d00 f   GuSerialize.obj
 0001:00031e30       ?ReadHeader@Gu@physx@@YA_NEEEEAEAIAEA_NAEAVPxInputStream@2@@Z 0000000180032e30 f   GuSerialize.obj
 0001:00031fb0       ?StoreIndices@Gu@physx@@YAXIIPEBIAEAVPxOutputStream@2@_N@Z 0000000180032fb0 f   GuSerialize.obj
 0001:000320e0       ?ReadIndices@Gu@physx@@YAXIIPEAIAEAVPxInputStream@2@_N@Z 00000001800330e0 f   GuSerialize.obj
 0001:00032350       ?StoreIndices@Gu@physx@@YAXGIPEBGAEAVPxOutputStream@2@_N@Z 0000000180033350 f   GuSerialize.obj
 0001:00032420       ?ReadIndices@Gu@physx@@YAXGIPEAGAEAVPxInputStream@2@_N@Z 0000000180033420 f   GuSerialize.obj
 0001:00032570       ?computeCapsule_TriangleMeshMTD@Gu@physx@@YA_NAEBVPxTriangleMeshGeometry@2@AEBVPxTransform@2@AEAVCapsuleV@12@M_NAEAUPxSweepHit@2@@Z 0000000180033570 f   GuSweepMTD.obj
 0001:00032e90       ?computeCapsule_HeightFieldMTD@Gu@physx@@YA_NAEBVPxHeightFieldGeometry@2@AEBVPxTransform@2@AEAVCapsuleV@12@M_NIAEAUPxSweepHit@2@@Z 0000000180033e90 f   GuSweepMTD.obj
 0001:00033730       ?computeBox_TriangleMeshMTD@Gu@physx@@YA_NAEBVPxTriangleMeshGeometry@2@AEBVPxTransform@2@AEBVBox@12@1M_NAEAUPxSweepHit@2@@Z 0000000180034730 f   GuSweepMTD.obj
 0001:00034400       ?computeBox_HeightFieldMTD@Gu@physx@@YA_NAEBVPxHeightFieldGeometry@2@AEBVPxTransform@2@AEBVBox@12@1M_NIAEAUPxSweepHit@2@@Z 0000000180035400 f   GuSweepMTD.obj
 0001:000353e0       ?computeConvex_TriangleMeshMTD@Gu@physx@@YA_NAEBVPxTriangleMeshGeometry@2@AEBVPxTransform@2@AEBVPxConvexMeshGeometry@2@1M_NAEAUPxSweepHit@2@@Z 00000001800363e0 f   GuSweepMTD.obj
 0001:00036760       ?computeConvex_HeightFieldMTD@Gu@physx@@YA_NAEBVPxHeightFieldGeometry@2@AEBVPxTransform@2@AEBVPxConvexMeshGeometry@2@1M_NIAEAUPxSweepHit@2@@Z 0000000180037760 f   GuSweepMTD.obj
 0001:00037bf0       ?computeSphere_SphereMTD@Gu@physx@@YA_NAEBVSphere@12@0AEAUPxSweepHit@2@@Z 0000000180038bf0 f   GuSweepMTD.obj
 0001:00037ce0       ?computeSphere_CapsuleMTD@Gu@physx@@YA_NAEBVSphere@12@AEBVCapsule@12@AEAUPxSweepHit@2@@Z 0000000180038ce0 f   GuSweepMTD.obj
 0001:00037e90       ?computeCapsule_CapsuleMTD@Gu@physx@@YA_NAEBVCapsule@12@0AEAUPxSweepHit@2@@Z 0000000180038e90 f   GuSweepMTD.obj
 0001:000380d0       ?computePlane_CapsuleMTD@Gu@physx@@YA_NAEBVPxPlane@2@AEBVCapsule@12@AEAUPxSweepHit@2@@Z 00000001800390d0 f   GuSweepMTD.obj
 0001:00038200       ?computePlane_BoxMTD@Gu@physx@@YA_NAEBVPxPlane@2@AEBVBox@12@AEAUPxSweepHit@2@@Z 0000000180039200 f   GuSweepMTD.obj
 0001:00038510       ?computePlane_ConvexMTD@Gu@physx@@YA_NAEBVPxPlane@2@AEBVPxConvexMeshGeometry@2@AEBVPxTransform@2@AEAUPxSweepHit@2@@Z 0000000180039510 f   GuSweepMTD.obj
 0001:000390d0       ??0MTDTriangle@@QEAA@XZ    000000018003a0d0 f i GuSweepMTD.obj
 0001:000390e0       ??1?$MeshHitCallback@UPxRaycastHit@physx@@@Gu@physx@@UEAA@XZ 000000018003a0e0 f i GuSweepMTD.obj
 0001:000390f0       ??1MTDTriangle@@QEAA@XZ    000000018003a0f0 f i GuSweepMTD.obj
 0001:00039100       ??Dphysx@@YA?AVMatrix34@Cm@0@AEBVPxTransform@0@AEBVPxMeshScale@0@@Z 000000018003a100 f i GuSweepMTD.obj
 0001:000396f0       ??_E?$MeshHitCallback@UPxRaycastHit@physx@@@Gu@physx@@UEAAPEAXI@Z 000000018003a6f0 f i GuSweepMTD.obj
 0001:000396f0       ??_G?$MeshHitCallback@UPxRaycastHit@physx@@@Gu@physx@@UEAAPEAXI@Z 000000018003a6f0 f i GuSweepMTD.obj
 0001:00039720       ??_GMeshMTDGenerationCallback@@UEAAPEAXI@Z 000000018003a720 f i GuSweepMTD.obj
 0001:00039720       ??_EMeshMTDGenerationCallback@@UEAAPEAXI@Z 000000018003a720 f i GuSweepMTD.obj
 0001:00039750       ??_GMidPhaseQueryLocalReport@@UEAAPEAXI@Z 000000018003a750 f i GuSweepMTD.obj
 0001:00039750       ??_EMidPhaseQueryLocalReport@@UEAAPEAXI@Z 000000018003a750 f i GuSweepMTD.obj
 0001:00039780       ?allocate@?$ReflectionAllocator@I@shdfnd@physx@@QEAAPEAX_KPEBDH@Z 000000018003a780 f i GuSweepMTD.obj
 0001:00039820       ?getInverse@PxMat33@physx@@QEBA?BV12@XZ 000000018003a820 f i GuSweepMTD.obj
 0001:00039a70       ?init@FastVertex2ShapeScaling@Cm@physx@@QEAAXAEBVPxVec3@3@AEBVPxQuat@3@@Z 000000018003aa70 f i GuSweepMTD.obj
 0001:00039ec0       ?onEvent@MidPhaseQueryLocalReport@@UEAA_NIPEAI@Z 000000018003aec0 f i GuSweepMTD.obj
 0001:00039f30       ?processHit@MeshMTDGenerationCallback@@UEAA_NAEBUPxRaycastHit@physx@@AEBVPxVec3@3@11AEAMPEBI@Z 000000018003af30 f i GuSweepMTD.obj
 0001:00039f80       ?recreate@?$Array@IV?$ReflectionAllocator@I@shdfnd@physx@@@shdfnd@physx@@IEAAXI@Z 000000018003af80 f i GuSweepMTD.obj
 0001:0003a060       ?sweepCapsuleTriangles@Gu@physx@@YA_NIPEBVPxTriangle@2@_NAEBVPxCapsuleGeometry@2@AEBVPxTransform@2@AEBVPxVec3@2@MAEAUPxSweepHit@2@PEBIMV?$PxFlags@W4Enum@PxHitFlag@physx@@G@2@@Z 000000018003b060 f   GuSweepSharedTests.obj
 0001:0003a250       ?sweepCapsule_SphereGeom@@YA_NAEBVPxGeometry@physx@@AEBVPxTransform@2@AEBVPxCapsuleGeometry@2@1AEBVCapsule@Gu@2@AEBVPxVec3@2@MAEAUPxSweepHit@2@V?$PxFlags@W4Enum@PxHitFlag@physx@@G@2@M@Z 000000018003b250 f   GuSweepSharedTests.obj
 0001:0003a3f0       ?sweepCapsule_PlaneGeom@@YA_NAEBVPxGeometry@physx@@AEBVPxTransform@2@AEBVPxCapsuleGeometry@2@1AEBVCapsule@Gu@2@AEBVPxVec3@2@MAEAUPxSweepHit@2@V?$PxFlags@W4Enum@PxHitFlag@physx@@G@2@M@Z 000000018003b3f0 f   GuSweepSharedTests.obj
 0001:0003a710       ?sweepCapsule_CapsuleGeom@@YA_NAEBVPxGeometry@physx@@AEBVPxTransform@2@AEBVPxCapsuleGeometry@2@1AEBVCapsule@Gu@2@AEBVPxVec3@2@MAEAUPxSweepHit@2@V?$PxFlags@W4Enum@PxHitFlag@physx@@G@2@M@Z 000000018003b710 f   GuSweepSharedTests.obj
 0001:0003a8f0       ?sweepCapsule_ConvexGeom@@YA_NAEBVPxGeometry@physx@@AEBVPxTransform@2@AEBVPxCapsuleGeometry@2@1AEBVCapsule@Gu@2@AEBVPxVec3@2@MAEAUPxSweepHit@2@V?$PxFlags@W4Enum@PxHitFlag@physx@@G@2@M@Z 000000018003b8f0 f   GuSweepSharedTests.obj
 0001:0003b850       ?sweepBox_PlaneGeom@@YA_NAEBVPxGeometry@physx@@AEBVPxTransform@2@AEBVPxBoxGeometry@2@1AEBVBox@Gu@2@AEBVPxVec3@2@MAEAUPxSweepHit@2@V?$PxFlags@W4Enum@PxHitFlag@physx@@G@2@M@Z 000000018003c850 f   GuSweepSharedTests.obj
 0001:0003bcd0       ?sweepBox_ConvexGeom@@YA_NAEBVPxGeometry@physx@@AEBVPxTransform@2@AEBVPxBoxGeometry@2@1AEBVBox@Gu@2@AEBVPxVec3@2@MAEAUPxSweepHit@2@V?$PxFlags@W4Enum@PxHitFlag@physx@@G@2@M@Z 000000018003ccd0 f   GuSweepSharedTests.obj
 0001:0003ccd0       ?sweepConvex_SphereGeom@@YA_NAEBVPxGeometry@physx@@AEBVPxTransform@2@AEBVPxConvexMeshGeometry@2@1AEBVPxVec3@2@MAEAUPxSweepHit@2@V?$PxFlags@W4Enum@PxHitFlag@physx@@G@2@M@Z 000000018003dcd0 f   GuSweepSharedTests.obj
 0001:0003dab0       ?sweepConvex_PlaneGeom@@YA_NAEBVPxGeometry@physx@@AEBVPxTransform@2@AEBVPxConvexMeshGeometry@2@1AEBVPxVec3@2@MAEAUPxSweepHit@2@V?$PxFlags@W4Enum@PxHitFlag@physx@@G@2@M@Z 000000018003eab0 f   GuSweepSharedTests.obj
 0001:0003df20       ?sweepConvex_CapsuleGeom@@YA_NAEBVPxGeometry@physx@@AEBVPxTransform@2@AEBVPxConvexMeshGeometry@2@1AEBVPxVec3@2@MAEAUPxSweepHit@2@V?$PxFlags@W4Enum@PxHitFlag@physx@@G@2@M@Z 000000018003ef20 f   GuSweepSharedTests.obj
 0001:0003e150       ?sweepConvex_BoxGeom@@YA_NAEBVPxGeometry@physx@@AEBVPxTransform@2@AEBVPxConvexMeshGeometry@2@1AEBVPxVec3@2@MAEAUPxSweepHit@2@V?$PxFlags@W4Enum@PxHitFlag@physx@@G@2@M@Z 000000018003f150 f   GuSweepSharedTests.obj
 0001:0003e370       ?sweepConvex_ConvexGeom@@YA_NAEBVPxGeometry@physx@@AEBVPxTransform@2@AEBVPxConvexMeshGeometry@2@1AEBVPxVec3@2@MAEAUPxSweepHit@2@V?$PxFlags@W4Enum@PxHitFlag@physx@@G@2@M@Z 000000018003f370 f   GuSweepSharedTests.obj
 0001:0003f560       ??$gjkPenetration@U?$LocalConvex@VCapsuleV@Gu@physx@@@Gu@physx@@U?$LocalConvex@VConvexHullV@Gu@physx@@@23@@Gu@physx@@YA?AW4GjkStatus@01@AEBU?$LocalConvex@VCapsuleV@Gu@physx@@@01@AEBU?$LocalConvex@VConvexHullV@Gu@physx@@@01@AEBT__m128@@2_NPEIAE4AEAEAEAUGjkOutput@01@@Z 0000000180040560 f i GuSweepSharedTests.obj
 0001:00040dd0       ??$gjkPenetration@U?$RelativeConvex@VBoxV@Gu@physx@@@Gu@physx@@U?$LocalConvex@VConvexHullV@Gu@physx@@@23@@Gu@physx@@YA?AW4GjkStatus@01@AEBU?$RelativeConvex@VBoxV@Gu@physx@@@01@AEBU?$LocalConvex@VConvexHullV@Gu@physx@@@01@AEBT__m128@@2_NPEIAE4AEAEAEAUGjkOutput@01@@Z 0000000180041dd0 f i GuSweepSharedTests.obj
 0001:00042690       ??$gjkPenetration@U?$RelativeConvex@VConvexHullV@Gu@physx@@@Gu@physx@@U?$LocalConvex@VConvexHullV@Gu@physx@@@23@@Gu@physx@@YA?AW4GjkStatus@01@AEBU?$RelativeConvex@VConvexHullV@Gu@physx@@@01@AEBU?$LocalConvex@VConvexHullV@Gu@physx@@@01@AEBT__m128@@2_NPEIAE4AEAEAEAUGjkOutput@01@@Z 0000000180043690 f i GuSweepSharedTests.obj
 0001:00043fc0       ??$gjkRaycast@U?$LocalConvex@VCapsuleV@Gu@physx@@@Gu@physx@@U?$LocalConvex@VConvexHullV@Gu@physx@@@23@@Gu@physx@@YA_NAEBU?$LocalConvex@VCapsuleV@Gu@physx@@@01@AEBU?$LocalConvex@VConvexHullV@Gu@physx@@@01@AEBT__m128@@222AEAT4@33M@Z 0000000180044fc0 f i GuSweepSharedTests.obj
 0001:00044e80       ??$gjkRaycast@U?$RelativeConvex@VBoxV@Gu@physx@@@Gu@physx@@U?$LocalConvex@VConvexHullV@Gu@physx@@@23@@Gu@physx@@YA_NAEBU?$RelativeConvex@VBoxV@Gu@physx@@@01@AEBU?$LocalConvex@VConvexHullV@Gu@physx@@@01@AEBT__m128@@222AEAT4@33M@Z 0000000180045e80 f i GuSweepSharedTests.obj
 0001:00045dd0       ??$gjkRaycast@U?$RelativeConvex@VConvexHullV@Gu@physx@@@Gu@physx@@U?$LocalConvex@VConvexHullV@Gu@physx@@@23@@Gu@physx@@YA_NAEBU?$RelativeConvex@VConvexHullV@Gu@physx@@@01@AEBU?$LocalConvex@VConvexHullV@Gu@physx@@@01@AEBT__m128@@222AEAT4@33M@Z 0000000180046dd0 f i GuSweepSharedTests.obj
 0001:00046d00       ??$gjkRaycastPenetration@U?$LocalConvex@VCapsuleV@Gu@physx@@@Gu@physx@@U?$LocalConvex@VConvexHullV@Gu@physx@@@23@@Gu@physx@@YA_NAEBU?$LocalConvex@VCapsuleV@Gu@physx@@@01@AEBU?$LocalConvex@VConvexHullV@Gu@physx@@@01@AEBT__m128@@222AEAT4@33M_N@Z 0000000180047d00 f i GuSweepSharedTests.obj
 0001:00046f70       ??$gjkRaycastPenetration@U?$RelativeConvex@VBoxV@Gu@physx@@@Gu@physx@@U?$LocalConvex@VConvexHullV@Gu@physx@@@23@@Gu@physx@@YA_NAEBU?$RelativeConvex@VBoxV@Gu@physx@@@01@AEBU?$LocalConvex@VConvexHullV@Gu@physx@@@01@AEBT__m128@@222AEAT4@33M_N@Z 0000000180047f70 f i GuSweepSharedTests.obj
 0001:00047240       ??$gjkRaycastPenetration@U?$RelativeConvex@VConvexHullV@Gu@physx@@@Gu@physx@@U?$LocalConvex@VConvexHullV@Gu@physx@@@23@@Gu@physx@@YA_NAEBU?$RelativeConvex@VConvexHullV@Gu@physx@@@01@AEBU?$LocalConvex@VConvexHullV@Gu@physx@@@01@AEBT__m128@@222AEAT4@33M_N@Z 0000000180048240 f i GuSweepSharedTests.obj
 0001:00047e70       ?getSweepFuncTable@Gu@physx@@YAAEBUGeomSweepFuncs@12@XZ 0000000180048e70 f   GuSweepTests.obj
 0001:00047e80       ?sweepBoxTriangles@Gu@physx@@YA_NIPEBVPxTriangle@2@_NAEBVPxBoxGeometry@2@AEBVPxTransform@2@AEBVPxVec3@2@MAEAUPxSweepHit@2@PEBIMV?$PxFlags@W4Enum@PxHitFlag@physx@@G@2@@Z 0000000180048e80 f   GuSweepTests.obj
 0001:000489d0       ?sweepCapsule_BoxGeom@@YA_NAEBVPxGeometry@physx@@AEBVPxTransform@2@AEBVPxCapsuleGeometry@2@1AEBVCapsule@Gu@2@AEBVPxVec3@2@MAEAUPxSweepHit@2@V?$PxFlags@W4Enum@PxHitFlag@physx@@G@2@M@Z 00000001800499d0 f   GuSweepTests.obj
 0001:000494a0       ?sweepBox_SphereGeom@@YA_NAEBVPxGeometry@physx@@AEBVPxTransform@2@AEBVPxBoxGeometry@2@1AEBVBox@Gu@2@AEBVPxVec3@2@MAEAUPxSweepHit@2@V?$PxFlags@W4Enum@PxHitFlag@physx@@G@2@M@Z 000000018004a4a0 f   GuSweepTests.obj
 0001:00049dd0       ?sweepBox_CapsuleGeom@@YA_NAEBVPxGeometry@physx@@AEBVPxTransform@2@AEBVPxBoxGeometry@2@1AEBVBox@Gu@2@AEBVPxVec3@2@MAEAUPxSweepHit@2@V?$PxFlags@W4Enum@PxHitFlag@physx@@G@2@M@Z 000000018004add0 f   GuSweepTests.obj
 0001:0004a880       ?sweepBox_BoxGeom@@YA_NAEBVPxGeometry@physx@@AEBVPxTransform@2@AEBVPxBoxGeometry@2@1AEBVBox@Gu@2@AEBVPxVec3@2@MAEAUPxSweepHit@2@V?$PxFlags@W4Enum@PxHitFlag@physx@@G@2@M@Z 000000018004b880 f   GuSweepTests.obj
 0001:0004b450       ?registerHeightFields_Sweeps@@YAXXZ 000000018004c450 f   GuSweepTests.obj
 0001:0004b490       ??$gjkPenetration@U?$LocalConvex@VCapsuleV@Gu@physx@@@Gu@physx@@U?$LocalConvex@VBoxV@Gu@physx@@@23@@Gu@physx@@YA?AW4GjkStatus@01@AEBU?$LocalConvex@VCapsuleV@Gu@physx@@@01@AEBU?$LocalConvex@VBoxV@Gu@physx@@@01@AEBT__m128@@2_NPEIAE4AEAEAEAUGjkOutput@01@@Z 000000018004c490 f i GuSweepTests.obj
 0001:0004cc30       ??$gjkPenetration@U?$LocalConvex@VTriangleV@Gu@physx@@@Gu@physx@@U?$LocalConvex@VBoxV@Gu@physx@@@23@@Gu@physx@@YA?AW4GjkStatus@01@AEBU?$LocalConvex@VTriangleV@Gu@physx@@@01@AEBU?$LocalConvex@VBoxV@Gu@physx@@@01@AEBT__m128@@2_NPEIAE4AEAEAEAUGjkOutput@01@@Z 000000018004dc30 f i GuSweepTests.obj
 0001:0004e3d0       ??$gjkPenetration@U?$RelativeConvex@VBoxV@Gu@physx@@@Gu@physx@@U?$LocalConvex@VBoxV@Gu@physx@@@23@@Gu@physx@@YA?AW4GjkStatus@01@AEBU?$RelativeConvex@VBoxV@Gu@physx@@@01@AEBU?$LocalConvex@VBoxV@Gu@physx@@@01@AEBT__m128@@2_NPEIAE4AEAEAEAUGjkOutput@01@@Z 000000018004f3d0 f i GuSweepTests.obj
 0001:0004fbb0       ??$gjkRaycast@U?$LocalConvex@VCapsuleV@Gu@physx@@@Gu@physx@@U?$LocalConvex@VBoxV@Gu@physx@@@23@@Gu@physx@@YA_NAEBU?$LocalConvex@VCapsuleV@Gu@physx@@@01@AEBU?$LocalConvex@VBoxV@Gu@physx@@@01@AEBT__m128@@222AEAT4@33M@Z 0000000180050bb0 f i GuSweepTests.obj
 0001:000508f0       ??$gjkRaycast@U?$LocalConvex@VTriangleV@Gu@physx@@@Gu@physx@@U?$LocalConvex@VBoxV@Gu@physx@@@23@@Gu@physx@@YA_NAEBU?$LocalConvex@VTriangleV@Gu@physx@@@01@AEBU?$LocalConvex@VBoxV@Gu@physx@@@01@AEBT__m128@@222AEAT4@33M@Z 00000001800518f0 f i GuSweepTests.obj
 0001:000516e0       ??$gjkRaycast@U?$RelativeConvex@VBoxV@Gu@physx@@@Gu@physx@@U?$LocalConvex@VBoxV@Gu@physx@@@23@@Gu@physx@@YA_NAEBU?$RelativeConvex@VBoxV@Gu@physx@@@01@AEBU?$LocalConvex@VBoxV@Gu@physx@@@01@AEBT__m128@@222AEAT4@33M@Z 00000001800526e0 f i GuSweepTests.obj
 0001:000524b0       ??$gjkRaycastPenetration@U?$LocalConvex@VCapsuleV@Gu@physx@@@Gu@physx@@U?$LocalConvex@VBoxV@Gu@physx@@@23@@Gu@physx@@YA_NAEBU?$LocalConvex@VCapsuleV@Gu@physx@@@01@AEBU?$LocalConvex@VBoxV@Gu@physx@@@01@AEBT__m128@@222AEAT4@33M_N@Z 00000001800534b0 f i GuSweepTests.obj
 0001:00052720       ??$gjkRaycastPenetration@U?$LocalConvex@VTriangleV@Gu@physx@@@Gu@physx@@U?$LocalConvex@VBoxV@Gu@physx@@@23@@Gu@physx@@YA_NAEBU?$LocalConvex@VTriangleV@Gu@physx@@@01@AEBU?$LocalConvex@VBoxV@Gu@physx@@@01@AEBT__m128@@222AEAT4@33M_N@Z 0000000180053720 f i GuSweepTests.obj
 0001:00052990       ??$gjkRaycastPenetration@U?$RelativeConvex@VBoxV@Gu@physx@@@Gu@physx@@U?$LocalConvex@VBoxV@Gu@physx@@@23@@Gu@physx@@YA_NAEBU?$RelativeConvex@VBoxV@Gu@physx@@@01@AEBU?$LocalConvex@VBoxV@Gu@physx@@@01@AEBT__m128@@222AEAT4@33M_N@Z 0000000180053990 f i GuSweepTests.obj
 0001:00052c60       ??_G?$LocalConvex@VBoxV@Gu@physx@@@Gu@physx@@UEAAPEAXI@Z 0000000180053c60 f i GuSweepTests.obj
 0001:00052c60       ??_E?$LocalConvex@VBoxV@Gu@physx@@@Gu@physx@@UEAAPEAXI@Z 0000000180053c60 f i GuSweepTests.obj
 0001:00052c90       ??_G?$LocalConvex@VTriangleV@Gu@physx@@@Gu@physx@@UEAAPEAXI@Z 0000000180053c90 f i GuSweepTests.obj
 0001:00052c90       ??_E?$LocalConvex@VTriangleV@Gu@physx@@@Gu@physx@@UEAAPEAXI@Z 0000000180053c90 f i GuSweepTests.obj
 0001:00052cc0       ?getCenter@?$LocalConvex@VBoxV@Gu@physx@@@Gu@physx@@UEBA?AT__m128@@XZ 0000000180053cc0 f i GuSweepTests.obj
 0001:00052cd0       ?getCenter@?$LocalConvex@VTriangleV@Gu@physx@@@Gu@physx@@UEBA?AT__m128@@XZ 0000000180053cd0 f i GuSweepTests.obj
 0001:00052ce0       ?getSweepMargin@?$LocalConvex@VBoxV@Gu@physx@@@Gu@physx@@UEBA?AT__m128@@XZ 0000000180053ce0 f i GuSweepTests.obj
 0001:00052d00       ?getSweepMargin@?$LocalConvex@VTriangleV@Gu@physx@@@Gu@physx@@UEBA?AT__m128@@XZ 0000000180053d00 f i GuSweepTests.obj
 0001:00052d30       ?support@?$LocalConvex@VBoxV@Gu@physx@@@Gu@physx@@UEBA?AT__m128@@AEBT4@@Z 0000000180053d30 f i GuSweepTests.obj
 0001:00052d60       ?support@?$LocalConvex@VBoxV@Gu@physx@@@Gu@physx@@UEBA?AT__m128@@AEBT4@AEAH@Z 0000000180053d60 f i GuSweepTests.obj
 0001:00052da0       ?support@?$LocalConvex@VTriangleV@Gu@physx@@@Gu@physx@@UEBA?AT__m128@@AEBT4@@Z 0000000180053da0 f i GuSweepTests.obj
 0001:00052e30       ?support@?$LocalConvex@VTriangleV@Gu@physx@@@Gu@physx@@UEBA?AT__m128@@AEBT4@AEAH@Z 0000000180053e30 f i GuSweepTests.obj
 0001:00052f40       ?supportPoint@?$LocalConvex@VBoxV@Gu@physx@@@Gu@physx@@UEBA?AT__m128@@H@Z 0000000180053f40 f i GuSweepTests.obj
 0001:00052f80       ?supportPoint@?$LocalConvex@VTriangleV@Gu@physx@@@Gu@physx@@UEBA?AT__m128@@H@Z 0000000180053f80 f i GuSweepTests.obj
 0001:00052fa0       ?subdivide@AABBTreeBuildNode@Gu@physx@@QEAAXAEBVAABBTreeBuildParams@23@AEAUBuildStats@23@AEAVNodeAllocator@23@QEAI@Z 0000000180053fa0 f   GuAABBTreeBuild.obj
 0001:000531b0       ?_buildHierarchy@AABBTreeBuildNode@Gu@physx@@QEAAXAEAVAABBTreeBuildParams@23@AEAUBuildStats@23@AEAVNodeAllocator@23@QEAI@Z 00000001800541b0 f   GuAABBTreeBuild.obj
 0001:00053240       ??0NodeAllocator@Gu@physx@@QEAA@XZ 0000000180054240 f   GuAABBTreeBuild.obj
 0001:00053260       ??1NodeAllocator@Gu@physx@@QEAA@XZ 0000000180054260 f   GuAABBTreeBuild.obj
 0001:000532b0       ?release@NodeAllocator@Gu@physx@@QEAAXXZ 00000001800542b0 f   GuAABBTreeBuild.obj
 0001:00053360       ?init@NodeAllocator@Gu@physx@@QEAAXII@Z 0000000180054360 f   GuAABBTreeBuild.obj
 0001:000534d0       ?getBiNode@NodeAllocator@Gu@physx@@QEAAPEAVAABBTreeBuildNode@23@XZ 00000001800544d0 f   GuAABBTreeBuild.obj
 0001:00053600       ?initAABBTreeBuild@Gu@physx@@YA_NAEAVAABBTreeBuildParams@12@AEAVNodeAllocator@12@AEAUBuildStats@12@AEAPEAI@Z 0000000180054600 f   GuAABBTreeBuild.obj
 0001:00053810       ?buildAABBTree@Gu@physx@@YA_NAEAVAABBTreeBuildParams@12@AEAVNodeAllocator@12@AEAUBuildStats@12@AEAPEAI@Z 0000000180054810 f   GuAABBTreeBuild.obj
 0001:00053870       ??$copy@V?$ReflectionAllocator@USlab@NodeAllocator@Gu@physx@@@shdfnd@physx@@@?$Array@USlab@NodeAllocator@Gu@physx@@V?$ReflectionAllocator@USlab@NodeAllocator@Gu@physx@@@shdfnd@4@@shdfnd@physx@@IEAAXAEBV012@@Z 0000000180054870 f i GuAABBTreeBuild.obj
 0001:000538f0       ??0AABBTreeBuildNode@Gu@physx@@QEAA@AEBV012@@Z 00000001800548f0 f i GuAABBTreeBuild.obj
 0001:00053930       ??0AABBTreeBuildNode@Gu@physx@@QEAA@XZ 0000000180054930 f i GuAABBTreeBuild.obj
 0001:00053940       ??0AABBTreeBuildParams@Gu@physx@@QEAA@IIPEBVPxBounds3@2@@Z 0000000180054940 f i GuAABBTreeBuild.obj
 0001:00053960       ??0BuildStats@Gu@physx@@QEAA@XZ 0000000180054960 f i GuAABBTreeBuild.obj
 0001:00053970       ??0NodeAllocator@Gu@physx@@QEAA@AEBV012@@Z 0000000180054970 f i GuAABBTreeBuild.obj
 0001:000539b0       ??1AABBTreeBuildNode@Gu@physx@@QEAA@XZ 00000001800549b0 f i GuAABBTreeBuild.obj
 0001:000539c0       ??1AABBTreeBuildParams@Gu@physx@@QEAA@XZ 00000001800549c0 f i GuAABBTreeBuild.obj
 0001:00053a20       ??4AABBTreeBuildNode@Gu@physx@@QEAAAEAV012@AEBV012@@Z 0000000180054a20 f i GuAABBTreeBuild.obj
 0001:00053a60       ??4AABBTreeBuildParams@Gu@physx@@QEAAAEAV012@AEBV012@@Z 0000000180054a60 f i GuAABBTreeBuild.obj
 0001:00053a80       ??4BuildStats@Gu@physx@@QEAAAEAU012@$$QEAU012@@Z 0000000180054a80 f i GuAABBTreeBuild.obj
 0001:00053a90       ??4BuildStats@Gu@physx@@QEAAAEAU012@AEBU012@@Z 0000000180054a90 f i GuAABBTreeBuild.obj
 0001:00053aa0       ??4NodeAllocator@Gu@physx@@QEAAAEAV012@AEBV012@@Z 0000000180054aa0 f i GuAABBTreeBuild.obj
 0001:00053b50       ??_EAABBTreeBuildNode@Gu@physx@@QEAAPEAXI@Z 0000000180054b50 f i GuAABBTreeBuild.obj
 0001:00053bd0       ??_FAABBTreeBuildParams@Gu@physx@@QEAAXXZ 0000000180054bd0 f i GuAABBTreeBuild.obj
 0001:00053bf0       ?allocate@?$Array@USlab@NodeAllocator@Gu@physx@@V?$ReflectionAllocator@USlab@NodeAllocator@Gu@physx@@@shdfnd@4@@shdfnd@physx@@IEAAPEAUSlab@NodeAllocator@Gu@3@I@Z 0000000180054bf0 f i GuAABBTreeBuild.obj
 0001:00053c90       ?getAABB@AABBTreeBuildNode@Gu@physx@@QEBAAEBVPxBounds3@3@XZ 0000000180054c90 f i GuAABBTreeBuild.obj
 0001:00053ca0       ?getCount@BuildStats@Gu@physx@@QEBAIXZ 0000000180054ca0 f i GuAABBTreeBuild.obj
 0001:00053cb0       ?getNbPrimitives@AABBTreeBuildNode@Gu@physx@@QEBAIXZ 0000000180054cb0 f i GuAABBTreeBuild.obj
 0001:00053cc0       ?getNbRuntimePrimitives@AABBTreeBuildNode@Gu@physx@@QEBAIXZ 0000000180054cc0 f i GuAABBTreeBuild.obj
 0001:00053cd0       ?getNeg@AABBTreeBuildNode@Gu@physx@@QEBAPEBV123@XZ 0000000180054cd0 f i GuAABBTreeBuild.obj
 0001:00053cf0       ?getPos@AABBTreeBuildNode@Gu@physx@@QEBAPEBV123@XZ 0000000180054cf0 f i GuAABBTreeBuild.obj
 0001:00053d00       ?getPrimitives@AABBTreeBuildNode@Gu@physx@@QEAAPEAIPEAI@Z 0000000180054d00 f i GuAABBTreeBuild.obj
 0001:00053d10       ?getPrimitives@AABBTreeBuildNode@Gu@physx@@QEBAPEBIPEBI@Z 0000000180054d10 f i GuAABBTreeBuild.obj
 0001:00053d20       ?growAndPushBack@?$Array@USlab@NodeAllocator@Gu@physx@@V?$ReflectionAllocator@USlab@NodeAllocator@Gu@physx@@@shdfnd@4@@shdfnd@physx@@IEAAAEAUSlab@NodeAllocator@Gu@3@AEBU4563@@Z 0000000180054d20 f i GuAABBTreeBuild.obj
 0001:00053de0       ?increaseCount@BuildStats@Gu@physx@@QEAAXI@Z 0000000180054de0 f i GuAABBTreeBuild.obj
 0001:00053df0       ?isLeaf@AABBTreeBuildNode@Gu@physx@@QEBA_NXZ 0000000180054df0 f i GuAABBTreeBuild.obj
 0001:00053e00       ?recreate@?$Array@USlab@NodeAllocator@Gu@physx@@V?$ReflectionAllocator@USlab@NodeAllocator@Gu@physx@@@shdfnd@4@@shdfnd@physx@@IEAAXI@Z 0000000180054e00 f i GuAABBTreeBuild.obj
 0001:00053eb0       ?reset@AABBTreeBuildParams@Gu@physx@@QEAAXXZ 0000000180054eb0 f i GuAABBTreeBuild.obj
 0001:00053f10       ?reset@BuildStats@Gu@physx@@QEAAXXZ 0000000180054f10 f i GuAABBTreeBuild.obj
 0001:00053f20       ?resize@?$Array@USlab@NodeAllocator@Gu@physx@@V?$ReflectionAllocator@USlab@NodeAllocator@Gu@physx@@@shdfnd@4@@shdfnd@physx@@QEAAXIAEBUSlab@NodeAllocator@Gu@3@@Z 0000000180054f20 f i GuAABBTreeBuild.obj
 0001:00053fa0       ?setCount@BuildStats@Gu@physx@@QEAAXI@Z 0000000180054fa0 f i GuAABBTreeBuild.obj
 0001:00053fb0       ?setNbRunTimePrimitives@AABBTreeBuildNode@Gu@physx@@QEAAXI@Z 0000000180054fb0 f i GuAABBTreeBuild.obj
 0001:000540f0       ??0BVHStructure@Gu@physx@@QEAA@PEAVGuMeshFactory@2@@Z 00000001800550f0 f   GuBVHStructure.obj
 0001:00054160       ??0BVHStructure@Gu@physx@@QEAA@PEAVGuMeshFactory@2@AEAUBVHStructureData@12@@Z 0000000180055160 f   GuBVHStructure.obj
 0001:000541f0       ??1BVHStructure@Gu@physx@@UEAA@XZ 00000001800551f0 f   GuBVHStructure.obj
 0001:00054210       ?load@BVHStructure@Gu@physx@@QEAA_NAEAVPxInputStream@3@@Z 0000000180055210 f   GuBVHStructure.obj
 0001:000543e0       ?release@BVHStructure@Gu@physx@@UEAAXXZ 00000001800553e0 f   GuBVHStructure.obj
 0001:00054420       ?raycast@BVHStructure@Gu@physx@@UEBAIAEBVPxVec3@3@0MIPEIAI@Z 0000000180055420 f   GuBVHStructure.obj
 0001:000544f0       ?sweep@BVHStructure@Gu@physx@@UEBAIAEBVPxBounds3@3@AEBVPxVec3@3@MIPEIAI@Z 00000001800554f0 f   GuBVHStructure.obj
 0001:00054660       ?overlap@BVHStructure@Gu@physx@@UEBAIAEBVPxBounds3@3@IPEIAI@Z 0000000180055660 f   GuBVHStructure.obj
 0001:000547c0       ?onRefCountZero@BVHStructure@Gu@physx@@UEAAXXZ 00000001800557c0 f   GuBVHStructure.obj
 0001:000548f0       ?createVolumes@BVHStructure@Gu@physx@@AEBAXXZ 00000001800558f0 f   GuBVHStructure.obj
 0001:00054980       ??1PxBVHStructure@physx@@MEAA@XZ 0000000180055980 f i GuBVHStructure.obj
 0001:00054990       ??R?$AABBTreeOverlap@UAABBAABBTest@Gu@physx@@UBVHTree@23@UBVHNode@23@IUBVHCallback@23@@Gu@physx@@QEAA_NPEBIPEBVPxBounds3@2@AEBUBVHTree@12@AEBUAABBAABBTest@12@AEAUBVHCallback@12@@Z 0000000180055990 f i GuBVHStructure.obj
 0001:00054c50       ??R?$AABBTreeRaycast@$00UBVHTree@Gu@physx@@UBVHNode@23@IUBVHCallback@23@@Gu@physx@@QEAA_NPEBIPEBVPxBounds3@2@AEBUBVHTree@12@AEBVPxVec3@2@3AEAM3AEAUBVHCallback@12@@Z 0000000180055c50 f i GuBVHStructure.obj
 0001:000552e0       ??R?$AABBTreeRaycast@$0A@UBVHTree@Gu@physx@@UBVHNode@23@IUBVHCallback@23@@Gu@physx@@QEAA_NPEBIPEBVPxBounds3@2@AEBUBVHTree@12@AEBVPxVec3@2@3AEAM3AEAUBVHCallback@12@@Z 00000001800562e0 f i GuBVHStructure.obj
 0001:000558fc       ??_EBVHStructure@Gu@physx@@WBA@EAAPEAXI@Z 00000001800568fc f i GuBVHStructure.obj
 0001:00055910       ??_EBVHStructure@Gu@physx@@UEAAPEAXI@Z 0000000180056910 f i GuBVHStructure.obj
 0001:00055910       ??_GBVHStructure@Gu@physx@@UEAAPEAXI@Z 0000000180056910 f i GuBVHStructure.obj
 0001:00055970       ??_GPxBVHStructure@physx@@MEAAPEAXI@Z 0000000180056970 f i GuBVHStructure.obj
 0001:00055970       ??_EPxBVHStructure@physx@@MEAAPEAXI@Z 0000000180056970 f i GuBVHStructure.obj
 0001:000559a0       ?allocate@?$Array@PEBUBVHNode@Gu@physx@@V?$InlineAllocator@$0IAA@V?$ReflectionAllocator@PEBUBVHNode@Gu@physx@@@shdfnd@physx@@@shdfnd@3@@shdfnd@physx@@IEAAPEAPEBUBVHNode@Gu@3@I@Z 00000001800569a0 f i GuBVHStructure.obj
 0001:00055a60       ?getBounds@BVHStructure@Gu@physx@@UEBAPEBVPxBounds3@3@XZ 0000000180056a60 f i GuBVHStructure.obj
 0001:00055a70       ?getConcreteTypeName@PxBVHStructure@physx@@UEBAPEBDXZ 0000000180056a70 f i GuBVHStructure.obj
 0001:00055a80       ?getNbBounds@BVHStructure@Gu@physx@@UEBAIXZ 0000000180056a80 f i GuBVHStructure.obj
 0001:00055a90       ?isKindOf@PxBVHStructure@physx@@MEBA_NPEBD@Z 0000000180056a90 f i GuBVHStructure.obj
 0001:00055ae0       ?recreate@?$Array@PEBUBVHNode@Gu@physx@@V?$InlineAllocator@$0IAA@V?$ReflectionAllocator@PEBUBVHNode@Gu@physx@@@shdfnd@physx@@@shdfnd@3@@shdfnd@physx@@IEAAXI@Z 0000000180056ae0 f i GuBVHStructure.obj
 0001:00055bc0       ?resizeUninitialized@?$Array@PEBUBVHNode@Gu@physx@@V?$InlineAllocator@$0IAA@V?$ReflectionAllocator@PEBUBVHNode@Gu@physx@@@shdfnd@physx@@@shdfnd@3@@shdfnd@physx@@QEAAXI@Z 0000000180056bc0 f i GuBVHStructure.obj
 0001:00055c10       ?SweepEstimateAnyShapeHeightfield@Gu@physx@@YAMAEBUCCDShape@12@0AEBVPxTransform@2@111MM@Z 0000000180056c10 f   GuCCDSweepConvexMesh.obj
 0001:00056490       ?SweepEstimateAnyShapeMesh@Gu@physx@@YAMAEBUCCDShape@12@0AEBVPxTransform@2@111MM@Z 0000000180057490 f   GuCCDSweepConvexMesh.obj
 0001:00056750       ?SweepAnyShapeHeightfield@Gu@physx@@YAMAEBUCCDShape@12@0AEBVPxTransform@2@111MAEAVPxVec3@2@2MAEAIM@Z 0000000180057750 f   GuCCDSweepConvexMesh.obj
 0001:000578b0       ?SweepAnyShapeMesh@Gu@physx@@YAMAEBUCCDShape@12@0AEBVPxTransform@2@111MAEAVPxVec3@2@2MAEAIM@Z 00000001800588b0 f   GuCCDSweepConvexMesh.obj
 0001:00059c00       ?growAndPushBack@?$Array@IV?$InlineAllocator@$0BAA@V?$ReflectionAllocator@I@shdfnd@physx@@@shdfnd@physx@@@shdfnd@physx@@IEAAAEAIAEBI@Z 000000018005ac00 f i GuCCDSweepConvexMesh.obj
 0001:0005a360       ?recreate@?$Array@IV?$InlineAllocator@$0BAA@V?$ReflectionAllocator@I@shdfnd@physx@@@shdfnd@physx@@@shdfnd@physx@@IEAAXI@Z 000000018005b360 f i GuCCDSweepConvexMesh.obj
 0001:0005a480       ?resize@?$Array@IV?$InlineAllocator@$0BAA@V?$ReflectionAllocator@I@shdfnd@physx@@@shdfnd@physx@@@shdfnd@physx@@QEAAXIAEBI@Z 000000018005b480 f i GuCCDSweepConvexMesh.obj
 0001:0005a560       ?resize@?$Array@IV?$ReflectionAllocator@I@shdfnd@physx@@@shdfnd@physx@@QEAAXIAEBI@Z 000000018005b560 f i GuCCDSweepConvexMesh.obj
 0001:0005a640       ?transformBoxOrthonormal@physx@@YA?AVBox@Gu@1@AEBV231@AEBVPxTransform@1@@Z 000000018005b640 f i GuCCDSweepConvexMesh.obj
 0001:0005aad0       ?SweepShapeShape@Gu@physx@@YAMAEBUCCDShape@12@0AEBVPxTransform@2@111MAEAVPxVec3@2@2MAEAIM@Z 000000018005bad0 f   GuCCDSweepPrimitives.obj
 0001:0005ab00       ?UnimplementedSweep@Gu@physx@@YAMAEBUCCDShape@12@0AEBVPxTransform@2@111MAEAVPxVec3@2@2MAEAIM@Z 000000018005bb00 f   GuCCDSweepPrimitives.obj
 0001:0005ab10       ?UnimplementedTriangleSweep@Gu@physx@@YAMAEBVGeometryUnion@12@0AEBVPxTransform@2@111MAEAVPxVec3@2@2AEBVFastVertex2ShapeScaling@Cm@2@AEAVTriangleV@12@M@Z 000000018005bb10 f   GuCCDSweepPrimitives.obj
 0001:0005ab20       ?SweepShapeTriangle@Gu@physx@@YAMAEBVGeometryUnion@12@0AEBVPxTransform@2@111MAEAVPxVec3@2@2AEBVFastVertex2ShapeScaling@Cm@2@AEAVTriangleV@12@M@Z 000000018005bb20 f   GuCCDSweepPrimitives.obj
 0001:0005ab40       ??$SweepGeomGeom@VCapsuleV@Gu@physx@@V123@@Gu@physx@@YAMAEBUCCDShape@01@0AEBVPxTransform@1@111MAEAVPxVec3@1@2MAEAIM@Z 000000018005bb40 f i GuCCDSweepPrimitives.obj
 0001:0005aca0       ??$SweepGeomGeom@VCapsuleV@Gu@physx@@VBoxV@23@@Gu@physx@@YAMAEBUCCDShape@01@0AEBVPxTransform@1@111MAEAVPxVec3@1@2MAEAIM@Z 000000018005bca0 f i GuCCDSweepPrimitives.obj
 0001:0005ae10       ??$SweepGeomGeom@VCapsuleV@Gu@physx@@VConvexHullV@23@@Gu@physx@@YAMAEBUCCDShape@01@0AEBVPxTransform@1@111MAEAVPxVec3@1@2MAEAIM@Z 000000018005be10 f i GuCCDSweepPrimitives.obj
 0001:0005b380       ??$SweepGeomGeom@VBoxV@Gu@physx@@V123@@Gu@physx@@YAMAEBUCCDShape@01@0AEBVPxTransform@1@111MAEAVPxVec3@1@2MAEAIM@Z 000000018005c380 f i GuCCDSweepPrimitives.obj
 0001:0005b500       ??$SweepGeomGeom@VBoxV@Gu@physx@@VConvexHullV@23@@Gu@physx@@YAMAEBUCCDShape@01@0AEBVPxTransform@1@111MAEAVPxVec3@1@2MAEAIM@Z 000000018005c500 f i GuCCDSweepPrimitives.obj
 0001:0005ba60       ??$SweepGeomGeom@VConvexHullV@Gu@physx@@V123@@Gu@physx@@YAMAEBUCCDShape@01@0AEBVPxTransform@1@111MAEAVPxVec3@1@2MAEAIM@Z 000000018005ca60 f i GuCCDSweepPrimitives.obj
 0001:0005c350       ??$SweepGeomTriangles@VCapsuleV@Gu@physx@@@Gu@physx@@YAMAEBVGeometryUnion@01@0AEBVPxTransform@1@111MAEAVPxVec3@1@2AEBVFastVertex2ShapeScaling@Cm@1@AEAVTriangleV@01@M@Z 000000018005d350 f i GuCCDSweepPrimitives.obj
 0001:0005c440       ??$SweepGeomTriangles@VBoxV@Gu@physx@@@Gu@physx@@YAMAEBVGeometryUnion@01@0AEBVPxTransform@1@111MAEAVPxVec3@1@2AEBVFastVertex2ShapeScaling@Cm@1@AEAVTriangleV@01@M@Z 000000018005d440 f i GuCCDSweepPrimitives.obj
 0001:0005c530       ??$SweepGeomTriangles@VConvexHullV@Gu@physx@@@Gu@physx@@YAMAEBVGeometryUnion@01@0AEBVPxTransform@1@111MAEAVPxVec3@1@2AEBVFastVertex2ShapeScaling@Cm@1@AEAVTriangleV@01@M@Z 000000018005d530 f i GuCCDSweepPrimitives.obj
 0001:0005ca20       ?supportPoint@?$RelativeConvex@VCapsuleV@Gu@physx@@@Gu@physx@@UEBA?AT__m128@@H@Z 000000018005da20 f i GuCCDSweepPrimitives.obj
 0001:0005ca80       ?support@?$RelativeConvex@VCapsuleV@Gu@physx@@@Gu@physx@@UEBA?AT__m128@@AEBT4@@Z 000000018005da80 f i GuCCDSweepPrimitives.obj
 0001:0005cb30       ?support@?$RelativeConvex@VCapsuleV@Gu@physx@@@Gu@physx@@UEBA?AT__m128@@AEBT4@AEAH@Z 000000018005db30 f i GuCCDSweepPrimitives.obj
 0001:0005cc00       ?getCenter@?$RelativeConvex@VCapsuleV@Gu@physx@@@Gu@physx@@UEBA?AT__m128@@XZ 000000018005dc00 f i GuCCDSweepPrimitives.obj
 0001:0005cc40       ?getSweepMargin@?$RelativeConvex@VCapsuleV@Gu@physx@@@Gu@physx@@UEBA?AT__m128@@XZ 000000018005dc40 f i GuCCDSweepPrimitives.obj
 0001:0005cc50       ??_E?$RelativeConvex@VCapsuleV@Gu@physx@@@Gu@physx@@UEAAPEAXI@Z 000000018005dc50 f i GuCCDSweepPrimitives.obj
 0001:0005cc50       ??_G?$RelativeConvex@VCapsuleV@Gu@physx@@@Gu@physx@@UEAAPEAXI@Z 000000018005dc50 f i GuCCDSweepPrimitives.obj
 0001:0005cc80       ?supportPoint@?$RelativeConvex@VTriangleV@Gu@physx@@@Gu@physx@@UEBA?AT__m128@@H@Z 000000018005dc80 f i GuCCDSweepPrimitives.obj
 0001:0005ccd0       ?support@?$RelativeConvex@VTriangleV@Gu@physx@@@Gu@physx@@UEBA?AT__m128@@AEBT4@@Z 000000018005dcd0 f i GuCCDSweepPrimitives.obj
 0001:0005cdd0       ?support@?$RelativeConvex@VTriangleV@Gu@physx@@@Gu@physx@@UEBA?AT__m128@@AEBT4@AEAH@Z 000000018005ddd0 f i GuCCDSweepPrimitives.obj
 0001:0005cf20       ?getCenter@?$RelativeConvex@VTriangleV@Gu@physx@@@Gu@physx@@UEBA?AT__m128@@XZ 000000018005df20 f i GuCCDSweepPrimitives.obj
 0001:0005cf60       ?getSweepMargin@?$RelativeConvex@VTriangleV@Gu@physx@@@Gu@physx@@UEBA?AT__m128@@XZ 000000018005df60 f i GuCCDSweepPrimitives.obj
 0001:0005cf90       ??_G?$RelativeConvex@VTriangleV@Gu@physx@@@Gu@physx@@UEAAPEAXI@Z 000000018005df90 f i GuCCDSweepPrimitives.obj
 0001:0005cf90       ??_E?$RelativeConvex@VTriangleV@Gu@physx@@@Gu@physx@@UEAAPEAXI@Z 000000018005df90 f i GuCCDSweepPrimitives.obj
 0001:00061730       ??$gjkPenetration@U?$RelativeConvex@VCapsuleV@Gu@physx@@@Gu@physx@@U?$LocalConvex@VBoxV@Gu@physx@@@23@@Gu@physx@@YA?AW4GjkStatus@01@AEBU?$RelativeConvex@VCapsuleV@Gu@physx@@@01@AEBU?$LocalConvex@VBoxV@Gu@physx@@@01@AEBT__m128@@2_NPEIAE4AEAEAEAUGjkOutput@01@@Z 0000000180062730 f i GuCCDSweepPrimitives.obj
 0001:00062f70       ??$gjkPenetration@U?$RelativeConvex@VCapsuleV@Gu@physx@@@Gu@physx@@U?$LocalConvex@VCapsuleV@Gu@physx@@@23@@Gu@physx@@YA?AW4GjkStatus@01@AEBU?$RelativeConvex@VCapsuleV@Gu@physx@@@01@AEBU?$LocalConvex@VCapsuleV@Gu@physx@@@01@AEBT__m128@@2_NPEIAE4AEAEAEAUGjkOutput@01@@Z 0000000180063f70 f i GuCCDSweepPrimitives.obj
 0001:000647e0       ??$gjkPenetration@U?$RelativeConvex@VCapsuleV@Gu@physx@@@Gu@physx@@U?$LocalConvex@VConvexHullV@Gu@physx@@@23@@Gu@physx@@YA?AW4GjkStatus@01@AEBU?$RelativeConvex@VCapsuleV@Gu@physx@@@01@AEBU?$LocalConvex@VConvexHullV@Gu@physx@@@01@AEBT__m128@@2_NPEIAE4AEAEAEAUGjkOutput@01@@Z 00000001800657e0 f i GuCCDSweepPrimitives.obj
 0001:000660d0       ??$gjkPenetration@U?$RelativeConvex@VTriangleV@Gu@physx@@@Gu@physx@@U?$LocalConvex@VBoxV@Gu@physx@@@23@@Gu@physx@@YA?AW4GjkStatus@01@AEBU?$RelativeConvex@VTriangleV@Gu@physx@@@01@AEBU?$LocalConvex@VBoxV@Gu@physx@@@01@AEBT__m128@@2_NPEIAE4AEAEAEAUGjkOutput@01@@Z 00000001800670d0 f i GuCCDSweepPrimitives.obj
 0001:00067910       ??$gjkPenetration@U?$RelativeConvex@VTriangleV@Gu@physx@@@Gu@physx@@U?$LocalConvex@VCapsuleV@Gu@physx@@@23@@Gu@physx@@YA?AW4GjkStatus@01@AEBU?$RelativeConvex@VTriangleV@Gu@physx@@@01@AEBU?$LocalConvex@VCapsuleV@Gu@physx@@@01@AEBT__m128@@2_NPEIAE4AEAEAEAUGjkOutput@01@@Z 0000000180068910 f i GuCCDSweepPrimitives.obj
 0001:00069180       ??$gjkPenetration@U?$RelativeConvex@VTriangleV@Gu@physx@@@Gu@physx@@U?$LocalConvex@VConvexHullV@Gu@physx@@@23@@Gu@physx@@YA?AW4GjkStatus@01@AEBU?$RelativeConvex@VTriangleV@Gu@physx@@@01@AEBU?$LocalConvex@VConvexHullV@Gu@physx@@@01@AEBT__m128@@2_NPEIAE4AEAEAEAUGjkOutput@01@@Z 000000018006a180 f i GuCCDSweepPrimitives.obj
 0001:0006aa90       ??$gjkRaycast@U?$RelativeConvex@VCapsuleV@Gu@physx@@@Gu@physx@@U?$LocalConvex@VBoxV@Gu@physx@@@23@@Gu@physx@@YA_NAEBU?$RelativeConvex@VCapsuleV@Gu@physx@@@01@AEBU?$LocalConvex@VBoxV@Gu@physx@@@01@AEBT__m128@@222AEAT4@33M@Z 000000018006ba90 f i GuCCDSweepPrimitives.obj
 0001:0006b890       ??$gjkRaycast@U?$RelativeConvex@VCapsuleV@Gu@physx@@@Gu@physx@@U?$LocalConvex@VCapsuleV@Gu@physx@@@23@@Gu@physx@@YA_NAEBU?$RelativeConvex@VCapsuleV@Gu@physx@@@01@AEBU?$LocalConvex@VCapsuleV@Gu@physx@@@01@AEBT__m128@@222AEAT4@33M@Z 000000018006c890 f i GuCCDSweepPrimitives.obj
 0001:0006c6f0       ??$gjkRaycast@U?$RelativeConvex@VCapsuleV@Gu@physx@@@Gu@physx@@U?$LocalConvex@VConvexHullV@Gu@physx@@@23@@Gu@physx@@YA_NAEBU?$RelativeConvex@VCapsuleV@Gu@physx@@@01@AEBU?$LocalConvex@VConvexHullV@Gu@physx@@@01@AEBT__m128@@222AEAT4@33M@Z 000000018006d6f0 f i GuCCDSweepPrimitives.obj
 0001:0006d680       ??$gjkRaycast@U?$RelativeConvex@VTriangleV@Gu@physx@@@Gu@physx@@U?$LocalConvex@VBoxV@Gu@physx@@@23@@Gu@physx@@YA_NAEBU?$RelativeConvex@VTriangleV@Gu@physx@@@01@AEBU?$LocalConvex@VBoxV@Gu@physx@@@01@AEBT__m128@@222AEAT4@33M@Z 000000018006e680 f i GuCCDSweepPrimitives.obj
 0001:0006e530       ??$gjkRaycast@U?$RelativeConvex@VTriangleV@Gu@physx@@@Gu@physx@@U?$LocalConvex@VCapsuleV@Gu@physx@@@23@@Gu@physx@@YA_NAEBU?$RelativeConvex@VTriangleV@Gu@physx@@@01@AEBU?$LocalConvex@VCapsuleV@Gu@physx@@@01@AEBT__m128@@222AEAT4@33M@Z 000000018006f530 f i GuCCDSweepPrimitives.obj
 0001:0006f420       ??$gjkRaycast@U?$RelativeConvex@VTriangleV@Gu@physx@@@Gu@physx@@U?$LocalConvex@VConvexHullV@Gu@physx@@@23@@Gu@physx@@YA_NAEBU?$RelativeConvex@VTriangleV@Gu@physx@@@01@AEBU?$LocalConvex@VConvexHullV@Gu@physx@@@01@AEBT__m128@@222AEAT4@33M@Z 0000000180070420 f i GuCCDSweepPrimitives.obj
 0001:00070450       ??$gjkRaycastPenetration@U?$RelativeConvex@VCapsuleV@Gu@physx@@@Gu@physx@@U?$LocalConvex@VBoxV@Gu@physx@@@23@@Gu@physx@@YA_NAEBU?$RelativeConvex@VCapsuleV@Gu@physx@@@01@AEBU?$LocalConvex@VBoxV@Gu@physx@@@01@AEBT__m128@@222AEAT4@33M_N@Z 0000000180071450 f i GuCCDSweepPrimitives.obj
 0001:00070720       ??$gjkRaycastPenetration@U?$RelativeConvex@VCapsuleV@Gu@physx@@@Gu@physx@@U?$LocalConvex@VCapsuleV@Gu@physx@@@23@@Gu@physx@@YA_NAEBU?$RelativeConvex@VCapsuleV@Gu@physx@@@01@AEBU?$LocalConvex@VCapsuleV@Gu@physx@@@01@AEBT__m128@@222AEAT4@33M_N@Z 0000000180071720 f i GuCCDSweepPrimitives.obj
 0001:000709f0       ??$gjkRaycastPenetration@U?$RelativeConvex@VCapsuleV@Gu@physx@@@Gu@physx@@U?$LocalConvex@VConvexHullV@Gu@physx@@@23@@Gu@physx@@YA_NAEBU?$RelativeConvex@VCapsuleV@Gu@physx@@@01@AEBU?$LocalConvex@VConvexHullV@Gu@physx@@@01@AEBT__m128@@222AEAT4@33M_N@Z 00000001800719f0 f i GuCCDSweepPrimitives.obj
 0001:00070cc0       ??$gjkRaycastPenetration@U?$RelativeConvex@VTriangleV@Gu@physx@@@Gu@physx@@U?$LocalConvex@VBoxV@Gu@physx@@@23@@Gu@physx@@YA_NAEBU?$RelativeConvex@VTriangleV@Gu@physx@@@01@AEBU?$LocalConvex@VBoxV@Gu@physx@@@01@AEBT__m128@@222AEAT4@33M_N@Z 0000000180071cc0 f i GuCCDSweepPrimitives.obj
 0001:00070f90       ??$gjkRaycastPenetration@U?$RelativeConvex@VTriangleV@Gu@physx@@@Gu@physx@@U?$LocalConvex@VCapsuleV@Gu@physx@@@23@@Gu@physx@@YA_NAEBU?$RelativeConvex@VTriangleV@Gu@physx@@@01@AEBU?$LocalConvex@VCapsuleV@Gu@physx@@@01@AEBT__m128@@222AEAT4@33M_N@Z 0000000180071f90 f i GuCCDSweepPrimitives.obj
 0001:00071260       ??$gjkRaycastPenetration@U?$RelativeConvex@VTriangleV@Gu@physx@@@Gu@physx@@U?$LocalConvex@VConvexHullV@Gu@physx@@@23@@Gu@physx@@YA_NAEBU?$RelativeConvex@VTriangleV@Gu@physx@@@01@AEBU?$LocalConvex@VConvexHullV@Gu@physx@@@01@AEBT__m128@@222AEAT4@33M_N@Z 0000000180072260 f i GuCCDSweepPrimitives.obj
 0001:00071530       ?barycentricCoordinates@Gu@physx@@YAXAEBT__m128@@00AEAT3@@Z 0000000180072530 f   GuBarycentricCoordinates.obj
 0001:000715b0       ?barycentricCoordinates@Gu@physx@@YAXAEBT__m128@@000AEAT3@1@Z 00000001800725b0 f   GuBarycentricCoordinates.obj
 0001:00071730       ?barycentricCoordinates@Gu@physx@@YAXAEBT__m128@@00AEAT3@1@Z 0000000180072730 f   GuBarycentricCoordinates.obj
 0001:00071830       ?addAxis@SeparatingAxes@Gu@physx@@QEAA_NAEBVPxVec3@3@@Z 0000000180072830 f   GuSeparatingAxes.obj
 0001:000718f0       ?contactBoxBox@Gu@physx@@YA_NAEBVGeometryUnion@12@0AEBVPxTransform@2@1AEBUNarrowPhaseParams@12@AEAUCache@12@AEAVContactBuffer@12@PEAVRenderOutput@Cm@2@@Z 00000001800728f0 f   GuContactBoxBox.obj
 0001:00071be0       ??0VertexInfo@@QEAA@XZ     0000000180072be0 f i GuContactBoxBox.obj
 0001:00074640       ?contactCapsuleBox@Gu@physx@@YA_NAEBVGeometryUnion@12@0AEBVPxTransform@2@1AEBUNarrowPhaseParams@12@AEAUCache@12@AEAVContactBuffer@12@PEAVRenderOutput@Cm@2@@Z 0000000180075640 f   GuContactCapsuleBox.obj
 0001:000762f0       ?contactCapsuleCapsule@Gu@physx@@YA_NAEBVGeometryUnion@12@0AEBVPxTransform@2@1AEBUNarrowPhaseParams@12@AEAUCache@12@AEAVContactBuffer@12@PEAVRenderOutput@Cm@2@@Z 00000001800772f0 f   GuContactCapsuleCapsule.obj
 0001:00076c90       ??0Segment@Gu@physx@@QEAA@XZ 0000000180077c90 f i GuContactCapsuleCapsule.obj
 0001:00076ca0       ??1Segment@Gu@physx@@QEAA@XZ 0000000180077ca0 f i GuContactCapsuleCapsule.obj
 0001:00076cb0       ?contactCapsuleConvex@Gu@physx@@YA_NAEBVGeometryUnion@12@0AEBVPxTransform@2@1AEBUNarrowPhaseParams@12@AEAUCache@12@AEAVContactBuffer@12@PEAVRenderOutput@Cm@2@@Z 0000000180077cb0 f   GuContactCapsuleConvex.obj
 0001:00077c00       ??0ConvexEdge@Gu@physx@@QEAA@XZ 0000000180078c00 f i GuContactCapsuleConvex.obj
 0001:00079b70       ?contactCapsuleMesh@Gu@physx@@YA_NAEBVGeometryUnion@12@0AEBVPxTransform@2@1AEBUNarrowPhaseParams@12@AEAUCache@12@AEAVContactBuffer@12@PEAVRenderOutput@Cm@2@@Z 000000018007ab70 f   GuContactCapsuleMesh.obj
 0001:0007a090       ?contactCapsuleHeightfield@Gu@physx@@YA_NAEBVGeometryUnion@12@0AEBVPxTransform@2@1AEBUNarrowPhaseParams@12@AEAUCache@12@AEAVContactBuffer@12@PEAVRenderOutput@Cm@2@@Z 000000018007b090 f   GuContactCapsuleMesh.obj
 0001:0007c8c0       ?transformFast@PxBounds3@physx@@SA?AV12@AEBVPxTransform@2@AEBV12@@Z 000000018007d8c0 f i GuContactCapsuleMesh.obj
 0001:0007ccf0       ?transformQueryBounds@FastVertex2ShapeScaling@Cm@physx@@QEBAXAEAVPxVec3@3@0AEAVPxMat33@3@@Z 000000018007dcf0 f i GuContactCapsuleMesh.obj
 0001:0007cf50       ?contactBoxConvex@Gu@physx@@YA_NAEBVGeometryUnion@12@0AEBVPxTransform@2@1AEBUNarrowPhaseParams@12@AEAUCache@12@AEAVContactBuffer@12@PEAVRenderOutput@Cm@2@@Z 000000018007df50 f   GuContactConvexConvex.obj
 0001:0007d0f0       ?contactConvexConvex@Gu@physx@@YA_NAEBVGeometryUnion@12@0AEBVPxTransform@2@1AEBUNarrowPhaseParams@12@AEAUCache@12@AEAVContactBuffer@12@PEAVRenderOutput@Cm@2@@Z 000000018007e0f0 f   GuContactConvexConvex.obj
 0001:000815d0       ?transformPlaneToShapeSpace@FastVertex2ShapeScaling@Cm@physx@@QEBAXAEBVPxVec3@3@MAEAV43@AEAM@Z 00000001800825d0 f i GuContactConvexConvex.obj
 0001:000816c0       ?contactBoxMesh@Gu@physx@@YA_NAEBVGeometryUnion@12@0AEBVPxTransform@2@1AEBUNarrowPhaseParams@12@AEAUCache@12@AEAVContactBuffer@12@PEAVRenderOutput@Cm@2@@Z 00000001800826c0 f   GuContactConvexMesh.obj
 0001:00081880       ?contactConvexMesh@Gu@physx@@YA_NAEBVGeometryUnion@12@0AEBVPxTransform@2@1AEBUNarrowPhaseParams@12@AEAUCache@12@AEAVContactBuffer@12@PEAVRenderOutput@Cm@2@@Z 0000000180082880 f   GuContactConvexMesh.obj
 0001:00081a30       ?contactBoxHeightfield@Gu@physx@@YA_NAEBVGeometryUnion@12@0AEBVPxTransform@2@1AEBUNarrowPhaseParams@12@AEAUCache@12@AEAVContactBuffer@12@PEAVRenderOutput@Cm@2@@Z 0000000180082a30 f   GuContactConvexMesh.obj
 0001:00081b90       ?contactConvexHeightfield@Gu@physx@@YA_NAEBVGeometryUnion@12@0AEBVPxTransform@2@1AEBUNarrowPhaseParams@12@AEAUCache@12@AEAVContactBuffer@12@PEAVRenderOutput@Cm@2@@Z 0000000180082b90 f   GuContactConvexMesh.obj
 0001:00081cc0       ??0?$CacheMap@UCachedEdge@Gu@physx@@$0IA@@Gu@physx@@QEAA@XZ 0000000180082cc0 f i GuContactConvexMesh.obj
 0001:00081d80       ??0?$CacheMap@UCachedVertex@Gu@physx@@$0IA@@Gu@physx@@QEAA@XZ 0000000180082d80 f i GuContactConvexMesh.obj
 0001:00081e40       ??0CachedEdge@Gu@physx@@QEAA@XZ 0000000180082e40 f i GuContactConvexMesh.obj
 0001:00081e50       ??0CachedVertex@Gu@physx@@QEAA@XZ 0000000180082e50 f i GuContactConvexMesh.obj
 0001:00082380       ??_EConvexMeshContactGenerationCallback@@UEAAPEAXI@Z 0000000180083380 f i GuContactConvexMesh.obj
 0001:00082380       ??_GConvexMeshContactGenerationCallback@@UEAAPEAXI@Z 0000000180083380 f i GuContactConvexMesh.obj
 0001:000823e0       ?addData@?$CacheMap@UCachedEdge@Gu@physx@@$0IA@@Gu@physx@@QEAA_NAEBUCachedEdge@23@@Z 00000001800833e0 f i GuContactConvexMesh.obj
 0001:000824f0       ?addData@?$CacheMap@UCachedVertex@Gu@physx@@$0IA@@Gu@physx@@QEAA_NAEBUCachedVertex@23@@Z 00000001800834f0 f i GuContactConvexMesh.obj
 0001:00085d70       ?processHit@ConvexMeshContactGenerationCallback@@UEAA_NAEBUPxRaycastHit@physx@@AEBVPxVec3@3@11AEAMPEBI@Z 0000000180086d70 f i GuContactConvexMesh.obj
 0001:00086640       ?recreate@?$Array@IV?$InlineAllocator@$0BBAA@V?$ReflectionAllocator@I@shdfnd@physx@@@shdfnd@physx@@@shdfnd@physx@@IEAAXI@Z 0000000180087640 f i GuContactConvexMesh.obj
 0001:000876b0       ?contactPlaneBox@Gu@physx@@YA_NAEBVGeometryUnion@12@0AEBVPxTransform@2@1AEBUNarrowPhaseParams@12@AEAUCache@12@AEAVContactBuffer@12@PEAVRenderOutput@Cm@2@@Z 00000001800886b0 f   GuContactPlaneBox.obj
 0001:000882b0       ?contactPlaneCapsule@Gu@physx@@YA_NAEBVGeometryUnion@12@0AEBVPxTransform@2@1AEBUNarrowPhaseParams@12@AEAUCache@12@AEAVContactBuffer@12@PEAVRenderOutput@Cm@2@@Z 00000001800892b0 f   GuContactPlaneCapsule.obj
 0001:000888d0       ?contactPlaneConvex@Gu@physx@@YA_NAEBVGeometryUnion@12@0AEBVPxTransform@2@1AEBUNarrowPhaseParams@12@AEAUCache@12@AEAVContactBuffer@12@PEAVRenderOutput@Cm@2@@Z 00000001800898d0 f   GuContactPlaneConvex.obj
 0001:00089130       ?findRotationMatrixFromZ@Gu@physx@@YA?AVPxMat33@2@AEBVPxVec3@2@@Z 000000018008a130 f   GuContactPolygonPolygon.obj
 0001:00089380       ?contactPolygonPolygonExt@Gu@physx@@YA_NIPEBVPxVec3@2@PEBEAEBVMatrix34@Cm@2@AEBVPxPlane@2@AEBVPxMat33@2@I01234AEBV32@22IIAEAVContactBuffer@12@_N5M@Z 000000018008a380 f   GuContactPolygonPolygon.obj
 0001:0008c6f0       ?contactSphereBox@Gu@physx@@YA_NAEBVGeometryUnion@12@0AEBVPxTransform@2@1AEBUNarrowPhaseParams@12@AEAUCache@12@AEAVContactBuffer@12@PEAVRenderOutput@Cm@2@@Z 000000018008d6f0 f   GuContactSphereBox.obj
 0001:0008ccd0       ?contactSphereCapsule@Gu@physx@@YA_NAEBVGeometryUnion@12@0AEBVPxTransform@2@1AEBUNarrowPhaseParams@12@AEAUCache@12@AEAVContactBuffer@12@PEAVRenderOutput@Cm@2@@Z 000000018008dcd0 f   GuContactSphereCapsule.obj
 0001:0008d090       ?contactSphereMesh@Gu@physx@@YA_NAEBVGeometryUnion@12@0AEBVPxTransform@2@1AEBUNarrowPhaseParams@12@AEAUCache@12@AEAVContactBuffer@12@PEAVRenderOutput@Cm@2@@Z 000000018008e090 f   GuContactSphereMesh.obj
 0001:0008d4d0       ?contactSphereHeightfield@Gu@physx@@YA_NAEBVGeometryUnion@12@0AEBVPxTransform@2@1AEBUNarrowPhaseParams@12@AEAUCache@12@AEAVContactBuffer@12@PEAVRenderOutput@Cm@2@@Z 000000018008e4d0 f   GuContactSphereMesh.obj
 0001:0008db00       ??0TriangleData@@QEAA@XZ   000000018008eb00 f i GuContactSphereMesh.obj
 0001:0008f200       ?contactSpherePlane@Gu@physx@@YA_NAEBVGeometryUnion@12@0AEBVPxTransform@2@1AEBUNarrowPhaseParams@12@AEAUCache@12@AEAVContactBuffer@12@PEAVRenderOutput@Cm@2@@Z 0000000180090200 f   GuContactSpherePlane.obj
 0001:0008f400       ?contactSphereSphere@Gu@physx@@YA_NAEBVGeometryUnion@12@0AEBVPxTransform@2@1AEBUNarrowPhaseParams@12@AEAUCache@12@AEAVContactBuffer@12@PEAVRenderOutput@Cm@2@@Z 0000000180090400 f   GuContactSphereSphere.obj
 0001:0008f570       ?selectNormal@Gu@physx@@YA_NEMM@Z 0000000180090570 f   GuFeatureCode.obj
 0001:0008f670       ??0BigConvexData@physx@@QEAA@XZ 0000000180090670 f   GuBigConvexData.obj
 0001:0008f6a0       ??1BigConvexData@physx@@QEAA@XZ 00000001800906a0 f   GuBigConvexData.obj
 0001:0008f730       ?Load@BigConvexData@physx@@QEAA_NAEAVPxInputStream@2@@Z 0000000180090730 f   GuBigConvexData.obj
 0001:0008f850       ?ComputeOffset@BigConvexData@physx@@QEBAIAEBVPxVec3@2@@Z 0000000180090850 f   GuBigConvexData.obj
 0001:0008f950       ?ComputeNearestOffset@BigConvexData@physx@@QEBAIAEBVPxVec3@2@@Z 0000000180090950 f   GuBigConvexData.obj
 0001:0008fa60       ?exportExtraData@BigConvexData@physx@@QEAAXAEAVPxSerializationContext@2@@Z 0000000180090a60 f   GuBigConvexData.obj
 0001:0008fae0       ?importExtraData@BigConvexData@physx@@QEAAXAEAVPxDeserializationContext@2@@Z 0000000180090ae0 f   GuBigConvexData.obj
 0001:0008fb60       ?CreateOffsets@BigConvexData@physx@@IEAAXXZ 0000000180090b60 f   GuBigConvexData.obj
 0001:0008fbb0       ?VLoad@BigConvexData@physx@@IEAA_NAEAVPxInputStream@2@@Z 0000000180090bb0 f   GuBigConvexData.obj
 0001:0008fd50       ?getScaledConvex@Gu@physx@@YAXAEAPEAVPxVec3@2@AEAPEAEPEAV32@PEAE_NPEBV32@PEBEIAEBVFastVertex2ShapeScaling@Cm@2@@Z 0000000180090d50 f   GuConvexHelper.obj
 0001:0008fe90       ?getConvexData@Gu@physx@@YA_NAEBVGeometryUnion@12@AEAVFastVertex2ShapeScaling@Cm@2@AEAVPxBounds3@2@AEAUPolygonalData@12@@Z 0000000180090e90 f   GuConvexHelper.obj
 0001:00090110       ?findUniqueConvexEdges@Gu@physx@@YAIIPEIAUConvexEdge@12@IPEIBUHullPolygonData@12@PEIBE@Z 0000000180091110 f   GuConvexHelper.obj
 0001:00090250       ?exportExtraData@ConvexMesh@Gu@physx@@UEAAXAEAVPxSerializationContext@3@@Z 0000000180091250 f   GuConvexMesh.obj
 0001:00090320       ?importExtraData@ConvexMesh@Gu@physx@@QEAAXAEAVPxDeserializationContext@3@@Z 0000000180091320 f   GuConvexMesh.obj
 0001:000903e0       ?onRefCountZero@ConvexMesh@Gu@physx@@UEAAXXZ 00000001800913e0 f   GuConvexMesh.obj
 0001:000904e0       ?createObject@ConvexMesh@Gu@physx@@SAPEAV123@AEAPEAEAEAVPxDeserializationContext@3@@Z 00000001800914e0 f   GuConvexMesh.obj
 0001:00090580       ??0ConvexMesh@Gu@physx@@QEAA@XZ 0000000180091580 f   GuConvexMesh.obj
 0001:00090640       ??0ConvexMesh@Gu@physx@@QEAA@AEAVGuMeshFactory@2@AEAUConvexHullData@12@@Z 0000000180091640 f   GuConvexMesh.obj
 0001:00090750       ?load@ConvexMesh@Gu@physx@@QEAA_NAEAVPxInputStream@3@@Z 0000000180091750 f   GuConvexMesh.obj
 0001:000909f0       ?release@ConvexMesh@Gu@physx@@UEAAXXZ 00000001800919f0 f   GuConvexMesh.obj
 0001:00090a30       ?getPolygonData@ConvexMesh@Gu@physx@@UEBA_NIAEAUPxHullPolygon@3@@Z 0000000180091a30 f   GuConvexMesh.obj
 0001:00090a80       ?isGpuCompatible@ConvexMesh@Gu@physx@@UEBA_NXZ 0000000180091a80 f   GuConvexMesh.obj
 0001:00090ab0       ?getReferenceCount@ConvexMesh@Gu@physx@@UEBAIXZ 0000000180091ab0 f   GuConvexMesh.obj
 0001:00090ac0       ?acquireReference@ConvexMesh@Gu@physx@@UEAAXXZ 0000000180091ac0 f   GuConvexMesh.obj
 0001:00090ad0       ?getMassInformation@ConvexMesh@Gu@physx@@UEBAXAEAMAEAVPxMat33@3@AEAVPxVec3@3@@Z 0000000180091ad0 f   GuConvexMesh.obj
 0001:00090b50       ?getLocalBounds@ConvexMesh@Gu@physx@@UEBA?AVPxBounds3@3@XZ 0000000180091b50 f   GuConvexMesh.obj
 0001:00090be0       ??1ConvexMesh@Gu@physx@@UEAA@XZ 0000000180091be0 f   GuConvexMesh.obj
 0001:00091130       ?computeHullOBB@Gu@physx@@YAXAEAVBox@12@AEBVPxBounds3@2@MAEBVMatrix34@Cm@2@2AEBVFastVertex2ShapeScaling@62@_N@Z 0000000180092130 f   GuConvexUtilsInternal.obj
 0001:000915c0       ?computeVertexSpaceOBB@Gu@physx@@YAXAEAVBox@12@AEBV312@AEBVPxTransform@2@AEBVPxMeshScale@2@@Z 00000001800925c0 f   GuConvexUtilsInternal.obj
 0001:00091980       ?computeOBBAroundConvex@Gu@physx@@YAXAEAVBox@12@AEBVPxConvexMeshGeometry@2@PEBVPxConvexMesh@2@AEBVPxTransform@2@@Z 0000000180092980 f   GuConvexUtilsInternal.obj
 0001:00092290       ??Dphysx@@YA?AVMatrix34@Cm@0@AEBVPxMeshScale@0@AEBV120@@Z 0000000180093290 f i GuConvexUtilsInternal.obj
 0001:00092910       ?transform@physx@@YA?AVBox@Gu@1@AEBVMatrix34@Cm@1@AEBV231@@Z 0000000180093910 f i GuConvexUtilsInternal.obj
 0001:00092b80       ?localSearch@physx@@YAXAEAIAEBVPxVec3@1@PEBV21@PEBUBigConvexRawData@Gu@1@@Z 0000000180093b80 f   GuHillClimbing.obj
 0001:00092cb0       ??0PolygonalBox@Gu@physx@@QEAA@AEBVPxVec3@2@@Z 0000000180093cb0 f   GuShapeConvex.obj
 0001:00092e90       ?getPolygonalData@PolygonalBox@Gu@physx@@QEBAXPEIAUPolygonalData@23@@Z 0000000180093e90 f   GuShapeConvex.obj
 0001:00092f00       ?getPolygonalData_Convex@Gu@physx@@YAXPEIAUPolygonalData@12@PEIBUConvexHullData@12@AEBVFastVertex2ShapeScaling@Cm@2@@Z 0000000180093f00 f   GuShapeConvex.obj
 0001:000942f0       ??0HullPolygonData@Gu@physx@@QEAA@XZ 00000001800952f0 f i GuShapeConvex.obj
 0001:00094300       ?distancePointBoxSquared@Gu@physx@@YAMAEBVPxVec3@2@00AEBVPxMat33@2@PEAV32@@Z 0000000180095300 f   GuDistancePointBox.obj
 0001:00094450       ?closestPtPointTriangle@Gu@physx@@YA?AVPxVec3@2@AEBV32@000AEAM1@Z 0000000180095450 f   GuDistancePointTriangle.obj
 0001:00094970       ?distancePointTriangleSquared@Gu@physx@@YA?AT__m128@@AEBT3@000AEAT3@11@Z 0000000180095970 f   GuDistancePointTriangle.obj
 0001:00094d90       ?distanceSegmentBoxSquared@Gu@physx@@YAMAEBVPxVec3@2@000AEBVPxMat33@2@PEAMPEAV32@@Z 0000000180095d90 f   GuDistanceSegmentBox.obj
 0001:00095f40       ?distanceSegmentSegmentSquared@Gu@physx@@YAMAEBVPxVec3@2@0M00MPEAM1@Z 0000000180096f40 f   GuDistanceSegmentSegment.obj
 0001:00096710       ?distanceSegmentSegmentSquared@Gu@physx@@YAMAEBVPxVec3@2@000PEAM1@Z 0000000180097710 f   GuDistanceSegmentSegment.obj
 0001:000969b0       ?distanceSegmentSegmentSquared@Gu@physx@@YA?AT__m128@@AEBT3@000AEAT3@1@Z 00000001800979b0 f   GuDistanceSegmentSegment.obj
 0001:00096bc0       ?distanceSegmentSegmentSquared4@Gu@physx@@YA?AT__m128@@AEBT3@000000000AEAT3@1@Z 0000000180097bc0 f   GuDistanceSegmentSegment.obj
 0001:00096f40       ?distanceSegmentTriangleSquared@Gu@physx@@YAMAEBVPxVec3@2@0000PEAM11@Z 0000000180097f40 f   GuDistanceSegmentTriangle.obj
 0001:00098630       ?distanceSegmentTriangleSquared@Gu@physx@@YA?AT__m128@@AEBT3@0000AEAT3@1@Z 0000000180099630 f   GuDistanceSegmentTriangle.obj
 0001:00098de0       ?epaPenetration@Gu@physx@@YA?AW4GjkStatus@12@AEBUGjkConvex@12@0PEIBE1E_NT__m128@@AEAUGjkOutput@12@@Z 0000000180099de0 f   GuEPA.obj
 0001:00098f50       ?isValid2@Facet@Gu@physx@@QEAA?AT__m128@@IIIPEIBT4@0AEBT4@@Z 0000000180099f50 f   GuEPA.obj
 0001:00099070       ?silhouette@Facet@Gu@physx@@QEAAXAEBT__m128@@PEIBT4@1AEAVEdgeBuffer@23@AEAV?$InlineDeferredIDPool@$0EA@@Cm@3@@Z 000000018009a070 f   GuEPA.obj
 0001:00099230       ?PenetrationDepth@EPA@Gu@physx@@QEAA?AW4GjkStatus@23@AEBUGjkConvex@23@0PEIBT__m128@@1E_NT6@AEAUGjkOutput@23@@Z 000000018009a230 f   GuEPA.obj
 0001:00099bd0       ?expandPoint@EPA@Gu@physx@@QEAA_NAEBUGjkConvex@23@0AEAHAEBT__m128@@@Z 000000018009abd0 f   GuEPA.obj
 0001:00099cc0       ?expandSegment@EPA@Gu@physx@@QEAA_NAEBUGjkConvex@23@0AEAHAEBT__m128@@@Z 000000018009acc0 f   GuEPA.obj
 0001:00099e10       ?expandTriangle@EPA@Gu@physx@@QEAA_NAEAHAEBT__m128@@@Z 000000018009ae10 f   GuEPA.obj
 0001:00099ec0       ?addFacet@EPA@Gu@physx@@QEAAPEAVFacet@23@IIIAEBT__m128@@@Z 000000018009aec0 f   GuEPA.obj
 0001:00099ff0       ??0Edge@Gu@physx@@QEAA@XZ  000000018009aff0 f i GuEPA.obj
 0001:0009a000       ??0Facet@Gu@physx@@QEAA@XZ 000000018009b000 f i GuEPA.obj
 0001:0009a310       ?closestPtPointTetrahedron@Gu@physx@@YA?AT__m128@@PEIAT3@00AEAI@Z 000000018009b310 f   GuGJKSimplex.obj
 0001:0009ab30       ?closestPtPointTetrahedron@Gu@physx@@YA?AT__m128@@PEIAT3@00PEIAH1AEAI@Z 000000018009bb30 f   GuGJKSimplex.obj
 0001:0009c6a0       ?testGjk@Gu@physx@@YA?AW4GjkStatus@12@AEAUGjkConvex@12@0AEBT__m128@@1AEAT5@222@Z 000000018009d6a0 f   GuGJKTest.obj
 0001:0009c6b0       ?testGjkPenetration@Gu@physx@@YA?AW4GjkStatus@12@AEAUGjkConvex@12@0AEBT__m128@@1PEAE2AEAEAEAUGjkOutput@12@@Z 000000018009d6b0 f   GuGJKTest.obj
 0001:0009c700       ?testEpaPenetration@Gu@physx@@YA?AW4GjkStatus@12@AEAUGjkConvex@12@0PEBE1EAEAUGjkOutput@12@@Z 000000018009d700 f   GuGJKTest.obj
 0001:0009c760       ?testGjkRaycast@Gu@physx@@YA_NAEAUGjkConvex@12@0AEBT__m128@@111AEAT4@22M@Z 000000018009d760 f   GuGJKTest.obj
 0001:0009c770       ??$gjk@UGjkConvex@Gu@physx@@U123@@Gu@physx@@YA?AW4GjkStatus@01@AEBUGjkConvex@01@0AEBT__m128@@1AEAT4@222@Z 000000018009d770 f i GuGJKTest.obj
 0001:0009d4d0       ??$gjkPenetration@UGjkConvex@Gu@physx@@U123@@Gu@physx@@YA?AW4GjkStatus@01@AEBUGjkConvex@01@0AEBT__m128@@1_NPEIAE3AEAEAEAUGjkOutput@01@@Z 000000018009e4d0 f i GuGJKTest.obj
 0001:0009ebe0       ??$gjkRaycast@UGjkConvex@Gu@physx@@U123@@Gu@physx@@YA_NAEBUGjkConvex@01@0AEBT__m128@@111AEAT3@22M@Z 000000018009fbe0 f i GuGJKTest.obj
 0001:0009f8f0       ?exportExtraData@HeightField@Gu@physx@@UEAAXAEAVPxSerializationContext@3@@Z 00000001800a08f0 f   GuHeightField.obj
 0001:0009f950       ?importExtraData@HeightField@Gu@physx@@QEAAXAEAVPxDeserializationContext@3@@Z 00000001800a0950 f   GuHeightField.obj
 0001:0009f980       ?createObject@HeightField@Gu@physx@@SAPEAV123@AEAPEAEAEAVPxDeserializationContext@3@@Z 00000001800a0980 f   GuHeightField.obj
 0001:0009fa20       ??0HeightField@Gu@physx@@QEAA@PEAVGuMeshFactory@2@@Z 00000001800a0a20 f   GuHeightField.obj
 0001:0009faa0       ??0HeightField@Gu@physx@@QEAA@AEAVGuMeshFactory@2@AEAUHeightFieldData@12@@Z 00000001800a0aa0 f   GuHeightField.obj
 0001:0009fb80       ?release@HeightField@Gu@physx@@UEAAXXZ 00000001800a0b80 f   GuHeightField.obj
 0001:0009fbc0       ?saveCells@HeightField@Gu@physx@@UEBAIPEAXI@Z 00000001800a0bc0 f   GuHeightField.obj
 0001:0009fc00       ?modifySamples@HeightField@Gu@physx@@UEAA_NHHAEBVPxHeightFieldDesc@3@_N@Z 00000001800a0c00 f   GuHeightField.obj
 0001:0009ff60       ?acquireReference@HeightField@Gu@physx@@UEAAXXZ 00000001800a0f60 f   GuHeightField.obj
 0001:0009ff70       ?getReferenceCount@HeightField@Gu@physx@@UEBAIXZ 00000001800a0f70 f   GuHeightField.obj
 0001:0009ff80       ?onRefCountZero@HeightField@Gu@physx@@UEAAXXZ 00000001800a0f80 f   GuHeightField.obj
 0001:000a0020       ?loadFromDesc@HeightField@Gu@physx@@QEAA_NAEBVPxHeightFieldDesc@3@@Z 00000001800a1020 f   GuHeightField.obj
 0001:000a0260       ?load@HeightField@Gu@physx@@QEAA_NAEAVPxInputStream@3@@Z 00000001800a1260 f   GuHeightField.obj
 0001:000a05d0       ?computeCellCoordinates@HeightField@Gu@physx@@QEBAIMMAEAM0@Z 00000001800a15d0 f   GuHeightField.obj
 0001:000a06e0       ?isSolidVertex@HeightField@Gu@physx@@QEBA_NIIIGAEA_N@Z 00000001800a16e0 f   GuHeightField.obj
 0001:000a0860       ?isCollisionVertexPreca@HeightField@Gu@physx@@QEBA_NIIIG@Z 00000001800a1860 f   GuHeightField.obj
 0001:000a0900       ?parseTrianglesForCollisionVertices@HeightField@Gu@physx@@QEAAXG@Z 00000001800a1900 f   GuHeightField.obj
 0001:000a0e00       ?releaseMemory@HeightField@Gu@physx@@QEAAXXZ 00000001800a1e00 f   GuHeightField.obj
 0001:000a0e50       ??1HeightField@Gu@physx@@UEAA@XZ 00000001800a1e50 f   GuHeightField.obj
 0001:000a0ed0       ?getVertexEdgeIndices@physx@@YAIAEBVHeightField@Gu@1@IIIQEAUEdgeData@1@@Z 00000001800a1ed0 f   GuHeightField.obj
 0001:000a10b0       ?getEdgeTriangleIndices@physx@@YAIAEBVHeightField@Gu@1@AEBUEdgeData@1@PEIAI@Z 00000001800a20b0 f   GuHeightField.obj
 0001:000a11e0       ??0?$BitMapBase@VNonTrackingAllocator@shdfnd@physx@@@Cm@physx@@QEAA@XZ 00000001800a21e0 f i GuHeightField.obj
 0001:000a11f0       ??1?$BitMapBase@VNonTrackingAllocator@shdfnd@physx@@@Cm@physx@@QEAA@XZ 00000001800a21f0 f i GuHeightField.obj
 0001:000a1250       ??_EHeightField@Gu@physx@@UEAAPEAXI@Z 00000001800a2250 f i GuHeightField.obj
 0001:000a13c8       ??_EHeightField@Gu@physx@@WBA@EAAPEAXI@Z 00000001800a23c8 f i GuHeightField.obj
 0001:000a13e0       ??_EPxHeightField@physx@@MEAAPEAXI@Z 00000001800a23e0 f i GuHeightField.obj
 0001:000a1470       ?isConvexVertex@HeightField@Gu@physx@@QEBA_NIII@Z 00000001800a2470 f i GuHeightField.obj
 0001:000a1540       ?requiresObjects@HeightField@Gu@physx@@UEAAXAEAVPxProcessPxBaseCallback@3@@Z 00000001800a2540 f i GuHeightField.obj
 0001:000a1550       ?resizeAndClear@?$BitMapBase@VNonTrackingAllocator@shdfnd@physx@@@Cm@physx@@QEAAXI@Z 00000001800a2550 f i GuHeightField.obj
 0001:000a1610       ?computeLocalBounds@HeightFieldUtil@Gu@physx@@QEBAXAEAVPxBounds3@3@@Z 00000001800a2610 f   GuHeightFieldUtil.obj
 0001:000a16f0       ?getFaceIndexAtShapePoint@HeightFieldUtil@Gu@physx@@QEBAIMM@Z 00000001800a26f0 f   GuHeightFieldUtil.obj
 0001:000a1810       ?getVertexNormal@HeightFieldUtil@Gu@physx@@QEBA?AVPxVec3@3@III@Z 00000001800a2810 f   GuHeightFieldUtil.obj
 0001:000a1b60       ?getVertexFaceIndex@HeightFieldUtil@Gu@physx@@QEBAIIII@Z 00000001800a2b60 f   GuHeightFieldUtil.obj
 0001:000a1db0       ?getEdge@HeightFieldUtil@Gu@physx@@QEBAXIIIIAEAVPxVec3@3@0@Z 00000001800a2db0 f   GuHeightFieldUtil.obj
 0001:000a1ff0       ?getEdgeFaceIndex@HeightFieldUtil@Gu@physx@@QEBAII@Z 00000001800a2ff0 f   GuHeightFieldUtil.obj
 0001:000a21e0       ?getEdgeFaceIndex@HeightFieldUtil@Gu@physx@@QEBAIIIII@Z 00000001800a31e0 f   GuHeightFieldUtil.obj
 0001:000a2390       ?getEdgeFaceIndex@HeightFieldUtil@Gu@physx@@QEBAIIIPEIBI@Z 00000001800a3390 f   GuHeightFieldUtil.obj
 0001:000a2410       ?findClosestPointsOnCell@HeightFieldUtil@Gu@physx@@QEBAIIIVPxVec3@3@PEIAV43@PEIAI_N33@Z 00000001800a3410 f   GuHeightFieldUtil.obj
 0001:000a2ba0       ?findProjectionOnTriangle@HeightFieldUtil@Gu@physx@@QEBA_NIIIAEBVPxVec3@3@AEAV43@@Z 00000001800a3ba0 f   GuHeightFieldUtil.obj
 0001:000a2e50       ?findClosestPointOnEdge@HeightFieldUtil@Gu@physx@@QEBAMIIIIAEBVPxVec3@3@AEAV43@@Z 00000001800a3e50 f   GuHeightFieldUtil.obj
 0001:000a3140       ?getTriangle@HeightFieldUtil@Gu@physx@@QEBAIAEBVPxTransform@3@AEAVPxTriangle@3@PEAI2I_N3@Z 00000001800a4140 f   GuHeightFieldUtil.obj
 0001:000a3c20       ?overlapAABBTriangles@HeightFieldUtil@Gu@physx@@QEBA_NAEBVPxTransform@3@AEBVPxBounds3@3@IPEAV?$EntityReport@I@23@@Z 00000001800a4c20 f   GuHeightFieldUtil.obj
 0001:000a4250       ?getTriangleAdjacencyIndices@HeightField@Gu@physx@@QEBAXIIIIAEAI00@Z 00000001800a5250 f i GuHeightFieldUtil.obj
 0001:000a4430       ?getTriangleNormalInternal@HeightField@Gu@physx@@QEBA?AVPxVec3@3@I@Z 00000001800a5430 f i GuHeightFieldUtil.obj
 0001:000a4580       ?getTriangleVertexIndices@HeightField@Gu@physx@@QEBAXIAEAI00@Z 00000001800a5580 f i GuHeightFieldUtil.obj
 0001:000a4640       ?checkOverlapAABB_heightFieldGeom@Gu@physx@@YA_NAEBVPxGeometry@2@AEBVPxTransform@2@AEBVPxBounds3@2@@Z 00000001800a5640 f   GuOverlapTestsHF.obj
 0001:000a4b00       ?GeomOverlapCallback_SphereHeightfield@@YA_NAEBVPxGeometry@physx@@AEBVPxTransform@2@01PEAUTriggerCache@Gu@2@@Z 00000001800a5b00 f   GuOverlapTestsHF.obj
 0001:000a4ce0       ?GeomOverlapCallback_CapsuleHeightfield@@YA_NAEBVPxGeometry@physx@@AEBVPxTransform@2@01PEAUTriggerCache@Gu@2@@Z 00000001800a5ce0 f   GuOverlapTestsHF.obj
 0001:000a4f00       ?GeomOverlapCallback_BoxHeightfield@@YA_NAEBVPxGeometry@physx@@AEBVPxTransform@2@01PEAUTriggerCache@Gu@2@@Z 00000001800a5f00 f   GuOverlapTestsHF.obj
 0001:000a51c0       ?GeomOverlapCallback_ConvexHeightfield@@YA_NAEBVPxGeometry@physx@@AEBVPxTransform@2@01PEAUTriggerCache@Gu@2@@Z 00000001800a61c0 f   GuOverlapTestsHF.obj
 0001:000a5230       ??$traceSegment@UTriggerTraceSegmentCallback@Gu@physx@@$0A@$0A@@HeightFieldTraceUtil@Gu@physx@@QEBAXAEBVPxVec3@2@0MPEAUTriggerTraceSegmentCallback@12@AEBVPxBounds3@2@_NPEBV32@@Z 00000001800a6230 f i GuOverlapTestsHF.obj
 0001:000a90e0       ?sweepCapsule_HeightFieldGeom@@YA_NAEBVPxGeometry@physx@@AEBVPxTransform@2@AEBVPxCapsuleGeometry@2@1AEBVCapsule@Gu@2@AEBVPxVec3@2@MAEAUPxSweepHit@2@V?$PxFlags@W4Enum@PxHitFlag@physx@@G@2@M@Z 00000001800aa0e0 f   GuSweepsHF.obj
 0001:000a9a60       ?sweepConvex_HeightFieldGeom@@YA_NAEBVPxGeometry@physx@@AEBVPxTransform@2@AEBVPxConvexMeshGeometry@2@1AEBVPxVec3@2@MAEAUPxSweepHit@2@V?$PxFlags@W4Enum@PxHitFlag@physx@@G@2@M@Z 00000001800aaa60 f   GuSweepsHF.obj
 0001:000aa490       ?sweepBox_HeightFieldGeom@@YA_NAEBVPxGeometry@physx@@AEBVPxTransform@2@AEBVPxBoxGeometry@2@1AEBVBox@Gu@2@AEBVPxVec3@2@MAEAUPxSweepHit@2@V?$PxFlags@W4Enum@PxHitFlag@physx@@G@2@M@Z 00000001800ab490 f   GuSweepsHF.obj
 0001:000aafd0       ??$gjkPenetration@U?$LocalConvex@VTriangleV@Gu@physx@@@Gu@physx@@U?$LocalConvex@VConvexHullV@Gu@physx@@@23@@Gu@physx@@YA?AW4GjkStatus@01@AEBU?$LocalConvex@VTriangleV@Gu@physx@@@01@AEBU?$LocalConvex@VConvexHullV@Gu@physx@@@01@AEBT__m128@@2_NPEIAE4AEAEAEAUGjkOutput@01@@Z 00000001800abfd0 f i GuSweepsHF.obj
 0001:000ac830       ??$gjkRaycast@U?$LocalConvex@VTriangleV@Gu@physx@@@Gu@physx@@U?$LocalConvex@VConvexHullV@Gu@physx@@@23@@Gu@physx@@YA_NAEBU?$LocalConvex@VTriangleV@Gu@physx@@@01@AEBU?$LocalConvex@VConvexHullV@Gu@physx@@@01@AEBT__m128@@222AEAT4@33M@Z 00000001800ad830 f i GuSweepsHF.obj
 0001:000ad760       ??$gjkRaycastPenetration@U?$LocalConvex@VTriangleV@Gu@physx@@@Gu@physx@@U?$LocalConvex@VConvexHullV@Gu@physx@@@23@@Gu@physx@@YA_NAEBU?$LocalConvex@VTriangleV@Gu@physx@@@01@AEBU?$LocalConvex@VConvexHullV@Gu@physx@@@01@AEBT__m128@@222AEAT4@33M_N@Z 00000001800ae760 f i GuSweepsHF.obj
 0001:000ad9d0       ??$traceSegment@VBoxTraceSegmentReport@@$0A@$00@HeightFieldTraceUtil@Gu@physx@@QEBAXAEBVPxVec3@2@0MPEAVBoxTraceSegmentReport@@AEBVPxBounds3@2@_NPEBV32@@Z 00000001800ae9d0 f i GuSweepsHF.obj
 0001:000ae1f0       ??$traceSegment@VCapsuleTraceSegmentReport@@$0A@$00@HeightFieldTraceUtil@Gu@physx@@QEBAXAEBVPxVec3@2@0MPEAVCapsuleTraceSegmentReport@@AEBVPxBounds3@2@_NPEBV32@@Z 00000001800af1f0 f i GuSweepsHF.obj
 0001:000aea10       ??$traceSegment@VConvexTraceSegmentReport@@$0A@$00@HeightFieldTraceUtil@Gu@physx@@QEBAXAEBVPxVec3@2@0MPEAVConvexTraceSegmentReport@@AEBVPxBounds3@2@_NPEBV32@@Z 00000001800afa10 f i GuSweepsHF.obj
 0001:000af230       ??0ConvexTraceSegmentReport@@QEAA@AEBVHeightFieldUtil@Gu@physx@@AEBUConvexHullData@23@AEBVPxMeshScale@3@AEBVPxTransform@3@3AEBVPxVec3@3@MV?$PxFlags@W4Enum@PxHitFlag@physx@@G@3@M@Z 00000001800b0230 f i GuSweepsHF.obj
 0001:000afc80       ??_GBoxTraceSegmentReport@@UEAAPEAXI@Z 00000001800b0c80 f i GuSweepsHF.obj
 0001:000afc80       ??_EBoxTraceSegmentReport@@UEAAPEAXI@Z 00000001800b0c80 f i GuSweepsHF.obj
 0001:000afcb0       ??_GCapsuleTraceSegmentReport@@UEAAPEAXI@Z 00000001800b0cb0 f i GuSweepsHF.obj
 0001:000afcb0       ??_ECapsuleTraceSegmentReport@@UEAAPEAXI@Z 00000001800b0cb0 f i GuSweepsHF.obj
 0001:000afce0       ??_GConvexTraceSegmentReport@@UEAAPEAXI@Z 00000001800b0ce0 f i GuSweepsHF.obj
 0001:000afce0       ??_EConvexTraceSegmentReport@@UEAAPEAXI@Z 00000001800b0ce0 f i GuSweepsHF.obj
 0001:000afd10       ??_EHeightFieldTraceSegmentReport@@UEAAPEAXI@Z 00000001800b0d10 f i GuSweepsHF.obj
 0001:000afd10       ??_GHeightFieldTraceSegmentReport@@UEAAPEAXI@Z 00000001800b0d10 f i GuSweepsHF.obj
 0001:000afd40       ?addIndex@?$OverlapTraceSegment@VBoxTraceSegmentReport@@@HeightFieldTraceUtil@Gu@physx@@QEAA_NI@Z 00000001800b0d40 f i GuSweepsHF.obj
 0001:000afda0       ?addIndex@?$OverlapTraceSegment@VCapsuleTraceSegmentReport@@@HeightFieldTraceUtil@Gu@physx@@QEAA_NI@Z 00000001800b0da0 f i GuSweepsHF.obj
 0001:000afe00       ?addIndex@?$OverlapTraceSegment@VConvexTraceSegmentReport@@@HeightFieldTraceUtil@Gu@physx@@QEAA_NI@Z 00000001800b0e00 f i GuSweepsHF.obj
 0001:000afe60       ?finalizeHit@BoxTraceSegmentReport@@QEAA_NAEAUPxSweepHit@physx@@AEBVPxHeightFieldGeometry@3@AEBVPxTransform@3@2AEBVBox@Gu@3@AEBVPxVec3@3@MM@Z 00000001800b0e60 f i GuSweepsHF.obj
 0001:000b02d0       ?finalizeHit@ConvexTraceSegmentReport@@QEAA_NAEAUPxSweepHit@physx@@AEBVPxHeightFieldGeometry@3@AEBVPxTransform@3@AEBVPxConvexMeshGeometry@3@2AEBVPxVec3@3@M@Z 00000001800b12d0 f i GuSweepsHF.obj
 0001:000b0520       ?onEvent@BoxTraceSegmentReport@@UEAA_NIPEAI@Z 00000001800b1520 f i GuSweepsHF.obj
 0001:000b0a80       ?onEvent@CapsuleTraceSegmentReport@@UEAA_NIPEAI@Z 00000001800b1a80 f i GuSweepsHF.obj
 0001:000b0cb0       ?onEvent@ConvexTraceSegmentReport@@UEAA_NIPEAI@Z 00000001800b1cb0 f i GuSweepsHF.obj
 0001:000b1300       ?prepare@?$OverlapTraceSegment@VBoxTraceSegmentReport@@@HeightFieldTraceUtil@Gu@physx@@QEAAXAEBVPxVec3@4@00AEAM1@Z 00000001800b2300 f i GuSweepsHF.obj
 0001:000b15a0       ?prepare@?$OverlapTraceSegment@VCapsuleTraceSegmentReport@@@HeightFieldTraceUtil@Gu@physx@@QEAAXAEBVPxVec3@4@00AEAM1@Z 00000001800b25a0 f i GuSweepsHF.obj
 0001:000b1840       ?prepare@?$OverlapTraceSegment@VConvexTraceSegmentReport@@@HeightFieldTraceUtil@Gu@physx@@QEAAXAEBVPxVec3@4@00AEAM1@Z 00000001800b2840 f i GuSweepsHF.obj
 0001:000b1ae0       ?testVertexIndex@?$OverlapTraceSegment@VBoxTraceSegmentReport@@@HeightFieldTraceUtil@Gu@physx@@QEAA_NI@Z 00000001800b2ae0 f i GuSweepsHF.obj
 0001:000b1c00       ?testVertexIndex@?$OverlapTraceSegment@VCapsuleTraceSegmentReport@@@HeightFieldTraceUtil@Gu@physx@@QEAA_NI@Z 00000001800b2c00 f i GuSweepsHF.obj
 0001:000b1d20       ?testVertexIndex@?$OverlapTraceSegment@VConvexTraceSegmentReport@@@HeightFieldTraceUtil@Gu@physx@@QEAA_NI@Z 00000001800b2d20 f i GuSweepsHF.obj
 0001:000b1e40       ?visitCells@?$OverlapTraceSegment@VBoxTraceSegmentReport@@@HeightFieldTraceUtil@Gu@physx@@QEAA_NAEBUOverlapRectangle@1234@@Z 00000001800b2e40 f i GuSweepsHF.obj
 0001:000b2030       ?visitCells@?$OverlapTraceSegment@VCapsuleTraceSegmentReport@@@HeightFieldTraceUtil@Gu@physx@@QEAA_NAEBUOverlapRectangle@1234@@Z 00000001800b3030 f i GuSweepsHF.obj
 0001:000b2220       ?visitCells@?$OverlapTraceSegment@VConvexTraceSegmentReport@@@HeightFieldTraceUtil@Gu@physx@@QEAA_NAEBUOverlapRectangle@1234@@Z 00000001800b3220 f i GuSweepsHF.obj
 0001:000b2410       ?intersectOBBOBB@Gu@physx@@YA_NAEBVPxVec3@2@0AEBVPxMat33@2@001_N@Z 00000001800b3410 f   GuIntersectionBoxBox.obj
 0001:000b2a70       ?intersectCapsuleTriangle@Gu@physx@@YA_NAEBVPxVec3@2@000AEBVCapsule@12@AEBUCapsuleTriangleOverlapData@12@@Z 00000001800b3a70 f   GuIntersectionCapsuleTriangle.obj
 0001:000b3620       ?intersectEdgeEdge@Gu@physx@@YA_NAEBVPxVec3@2@0000AEAMAEAV32@@Z 00000001800b4620 f   GuIntersectionEdgeEdge.obj
 0001:000b3950       ?rayAABBIntersect@Gu@physx@@YA_NAEBVPxVec3@2@000AEAV32@@Z 00000001800b4950 f   GuIntersectionRayBox.obj
 0001:000b3b60       ?rayAABBIntersect2@Gu@physx@@YAIAEBVPxVec3@2@000AEAV32@AEAM@Z 00000001800b4b60 f   GuIntersectionRayBox.obj
 0001:000b3d80       ?intersectRayAABB@Gu@physx@@YAHAEBVPxVec3@2@000AEAM1@Z 00000001800b4d80 f   GuIntersectionRayBox.obj
 0001:000b3eb0       ?intersectRayAABB@Gu@physx@@YAHAEBVPxVec3@2@0000AEAM1@Z 00000001800b4eb0 f   GuIntersectionRayBox.obj
 0001:000b40b0       ?intersectRayAABB2@Gu@physx@@YA_NAEBVPxVec3@2@000MAEAM1@Z 00000001800b50b0 f   GuIntersectionRayBox.obj
 0001:000b4260       ?intersectRayAABB2@Gu@physx@@YA_NAEBT__m128@@0000AEAT3@1@Z 00000001800b5260 f   GuIntersectionRayBox.obj
 0001:000b4330       ?intersectRayCapsuleInternal@Gu@physx@@YAIAEBVPxVec3@2@000MQEAM@Z 00000001800b5330 f   GuIntersectionRayCapsule.obj
 0001:000b4bd0       ?intersectRaySphereBasic@Gu@physx@@YA_NAEBVPxVec3@2@0M0MAEAMPEAV32@@Z 00000001800b5bd0 f   GuIntersectionRaySphere.obj
 0001:000b4d30       ?intersectRaySphere@Gu@physx@@YA_NAEBVPxVec3@2@0M0MAEAMPEAV32@@Z 00000001800b5d30 f   GuIntersectionRaySphere.obj
 0001:000b4e20       ?intersectSphereBox@Gu@physx@@YA_NAEBVSphere@12@AEBVBox@12@@Z 00000001800b5e20 f   GuIntersectionSphereBox.obj
 0001:000b5050       ?intersectTriangleBox_ReferenceCode@Gu@physx@@YAHAEBVPxVec3@2@0000@Z 00000001800b6050 f   GuIntersectionTriangleBox.obj
 0001:000b5860       ?intersectTriangleBox_Unsafe@Gu@physx@@YAHAEBVPxVec3@2@0000@Z 00000001800b6860 f   GuIntersectionTriangleBox.obj
 0001:000b5c30       ?intersectTriangleBox@Gu@physx@@YAHAEBVBoxPadded@12@AEBVPxVec3@2@11@Z 00000001800b6c30 f   GuIntersectionTriangleBox.obj
 0001:000b6230       ?intersectTriangleBoxBV4@@YAHAEBVPxVec3@physx@@00AEBVPxMat33@2@00@Z 00000001800b7230 f   GuIntersectionTriangleBox.obj
 0001:000b6670       ??0SourceMeshBase@Gu@physx@@QEAA@XZ 00000001800b7670 f   GuBV4.obj
 0001:000b6690       ??1SourceMeshBase@Gu@physx@@QEAA@XZ 00000001800b7690 f   GuBV4.obj
 0001:000b66f0       ??0SourceMesh@Gu@physx@@QEAA@XZ 00000001800b76f0 f   GuBV4.obj
 0001:000b6720       ??1SourceMesh@Gu@physx@@QEAA@XZ 00000001800b7720 f   GuBV4.obj
 0001:000b6780       ?reset@SourceMesh@Gu@physx@@QEAAXXZ 00000001800b7780 f   GuBV4.obj
 0001:000b67a0       ??4SourceMesh@Gu@physx@@QEAAXAEAV012@@Z 00000001800b77a0 f   GuBV4.obj
 0001:000b67f0       ?remapTopology@SourceMesh@Gu@physx@@QEAAXPEBI@Z 00000001800b77f0 f   GuBV4.obj
 0001:000b6ab0       ?isValid@SourceMesh@Gu@physx@@QEBA_NXZ 00000001800b7ab0 f   GuBV4.obj
 0001:000b6ae0       ??0BV4Tree@Gu@physx@@QEAA@W4PxEMPTY@2@@Z 00000001800b7ae0 f   GuBV4.obj
 0001:000b6af0       ?exportExtraData@BV4Tree@Gu@physx@@QEAAXAEAVPxSerializationContext@3@@Z 00000001800b7af0 f   GuBV4.obj
 0001:000b6b40       ?importExtraData@BV4Tree@Gu@physx@@QEAAXAEAVPxDeserializationContext@3@@Z 00000001800b7b40 f   GuBV4.obj
 0001:000b6b70       ??0BV4Tree@Gu@physx@@QEAA@XZ 00000001800b7b70 f   GuBV4.obj
 0001:000b6bb0       ??0BV4Tree@Gu@physx@@QEAA@PEAVSourceMesh@12@AEBVPxBounds3@2@@Z 00000001800b7bb0 f   GuBV4.obj
 0001:000b6c80       ??1BV4Tree@Gu@physx@@QEAA@XZ 00000001800b7c80 f   GuBV4.obj
 0001:000b6ce0       ?load@BV4Tree@Gu@physx@@QEAA_NAEAVPxInputStream@3@_N@Z 00000001800b7ce0 f   GuBV4.obj
 0001:000b6f00       ?reset@BV4Tree@Gu@physx@@QEAAXXZ 00000001800b7f00 f   GuBV4.obj
 0001:000b6f30       ??4BV4Tree@Gu@physx@@QEAAXAEAV012@@Z 00000001800b7f30 f   GuBV4.obj
 0001:000b6fc0       ?init@BV4Tree@Gu@physx@@QEAA_NPEAVSourceMesh@23@AEBVPxBounds3@3@@Z 00000001800b7fc0 f   GuBV4.obj
 0001:000b7060       ?release@BV4Tree@Gu@physx@@QEAAXXZ 00000001800b8060 f   GuBV4.obj
 0001:000b70c0       ?refit@BV4Tree@Gu@physx@@QEAAXM@Z 00000001800b80c0 f   GuBV4.obj
 0001:000b70d0       ??0IndTri16@Gu@physx@@QEAA@XZ 00000001800b80d0 f i GuBV4.obj
 0001:000b70e0       ??0IndTri32@Gu@physx@@QEAA@XZ 00000001800b80e0 f i GuBV4.obj
 0001:000b70f0       ??1IndTri16@Gu@physx@@QEAA@XZ 00000001800b80f0 f i GuBV4.obj
 0001:000b7100       ??1IndTri32@Gu@physx@@QEAA@XZ 00000001800b8100 f i GuBV4.obj
 0001:000b7110       ??_EIndTri16@Gu@physx@@QEAAPEAXI@Z 00000001800b8110 f i GuBV4.obj
 0001:000b7190       ??_EIndTri32@Gu@physx@@QEAAPEAXI@Z 00000001800b8190 f i GuBV4.obj
 0001:000b7210       ??0AABBTree@Gu@physx@@QEAA@XZ 00000001800b8210 f   GuBV4Build.obj
 0001:000b7230       ??1AABBTree@Gu@physx@@QEAA@XZ 00000001800b8230 f   GuBV4Build.obj
 0001:000b7240       ?buildFromMesh@AABBTree@Gu@physx@@QEAA_NAEAVSourceMesh@23@I@Z 00000001800b8240 f   GuBV4Build.obj
 0001:000b7680       ?release@AABBTree@Gu@physx@@QEAAXXZ 00000001800b8680 f   GuBV4Build.obj
 0001:000b7730       ?walk@AABBTree@Gu@physx@@QEBAIP6A_NPEBVAABBTreeNode@23@IPEAX@Z1@Z 00000001800b8730 f   GuBV4Build.obj
 0001:000b77f0       ?BuildBV4Ex@Gu@physx@@YA_NAEAVBV4Tree@12@AEAVSourceMesh@12@MI@Z 00000001800b87f0 f   GuBV4Build.obj
 0001:000b7b10       ??0BVData@@QEAA@XZ         00000001800b8b10 f   GuBV4Build.obj
 0001:000b7b50       ??1BV4BuildParams@@QEAA@XZ 00000001800b8b50 f   GuBV4Build.obj
 0001:000b7b60       ?allocateNode@BV4BuildParams@@QEAAPEAUBV4Node@@XZ 00000001800b8b60 f   GuBV4Build.obj
 0001:000b7c80       ?releaseNodes@BV4BuildParams@@QEAAXXZ 00000001800b8c80 f   GuBV4Build.obj
 0001:000b7d90       ??0AABBTreeNode@Gu@physx@@QEAA@XZ 00000001800b8d90 f i GuBV4Build.obj
 0001:000b7db0       ??0BV4Node@@QEAA@XZ        00000001800b8db0 f i GuBV4Build.obj
 0001:000b7e60       ??1AABBTreeNode@Gu@physx@@QEAA@XZ 00000001800b8e60 f i GuBV4Build.obj
 0001:000b7e70       ??1BV4Node@@QEAA@XZ        00000001800b8e70 f i GuBV4Build.obj
 0001:000b7e80       ??1BVData@@QEAA@XZ         00000001800b8e80 f i GuBV4Build.obj
 0001:000b7e90       ??_EAABBTreeNode@Gu@physx@@QEAAPEAXI@Z 00000001800b8e90 f i GuBV4Build.obj
 0001:000b9a80       ?Sweep_AABB_BV4@@YAHAEBVBox@Gu@physx@@AEBVPxVec3@3@MAEBVBV4Tree@23@PEIAVSweepHit@23@I@Z 00000001800baa80 f   GuBV4_AABBSweep.obj
 0001:000b9fe0       ?Sweep_AABB_BV4_CB@@YAXAEBVBox@Gu@physx@@AEBVPxVec3@3@MAEBVBV4Tree@23@PEIBVPxMat44@3@P6A_NPEAXAEBVSweepHit@23@@Z4I_N@Z 00000001800bafe0 f   GuBV4_AABBSweep.obj
 0001:000ba180       ?GenericSweep_AABB_CB@@YAXAEBVBox@Gu@physx@@AEBVPxVec3@3@MAEBVBV4Tree@23@P6A_NPEAX111IAEAM@Z3I@Z 00000001800bb180 f   GuBV4_AABBSweep.obj
 0001:000c10c0       ?transform@PxMat44@physx@@QEBA?BVPxVec4@2@AEBV32@@Z 00000001800c20c0 f i GuBV4_AABBSweep.obj
 0001:000c1de0       ?BV4_OverlapBoxAny@@YAHAEBVBox@Gu@physx@@AEBVBV4Tree@23@PEIBVPxMat44@3@@Z 00000001800c2de0 f   GuBV4_BoxOverlap.obj
 0001:000c2570       ?BV4_OverlapBoxAll@@YAIAEBVBox@Gu@physx@@AEBVBV4Tree@23@PEIBVPxMat44@3@PEAIIAEA_N@Z 00000001800c3570 f   GuBV4_BoxOverlap.obj
 0001:000c2d70       ?BV4_OverlapBoxCB@@YAXAEBVBox@Gu@physx@@AEBVBV4Tree@23@P6A_NPEAXAEBVPxVec3@3@33IPEBI@Z2@Z 00000001800c3d70 f   GuBV4_BoxOverlap.obj
 0001:000c3230       ?BV4_OverlapCapsuleAny@@YAHAEBVCapsule@Gu@physx@@AEBVBV4Tree@23@PEIBVPxMat44@3@@Z 00000001800c4230 f   GuBV4_BoxOverlap.obj
 0001:000c38e0       ?BV4_OverlapCapsuleAll@@YAIAEBVCapsule@Gu@physx@@AEBVBV4Tree@23@PEIBVPxMat44@3@PEAIIAEA_N@Z 00000001800c48e0 f   GuBV4_BoxOverlap.obj
 0001:000c3ff0       ?BV4_OverlapCapsuleCB@@YAXAEBVCapsule@Gu@physx@@AEBVBV4Tree@23@PEIBVPxMat44@3@P6A_NPEAXAEBVPxVec3@3@44IPEBI@Z3@Z 00000001800c4ff0 f   GuBV4_BoxOverlap.obj
 0001:000c8a60       ?BV4_CapsuleSweepSingle@@YAHAEBVCapsule@Gu@physx@@AEBVPxVec3@3@MAEBVBV4Tree@23@PEIAVSweepHit@23@I@Z 00000001800c9a60 f   GuBV4_CapsuleSweep.obj
 0001:000c90b0       ?BV4_CapsuleSweepCB@@YAXAEBVCapsule@Gu@physx@@AEBVPxVec3@3@MAEBVBV4Tree@23@PEIBVPxMat44@3@P6A_NPEAXAEBVSweepHit@23@@Z4I_N@Z 00000001800ca0b0 f   GuBV4_CapsuleSweep.obj
 0001:000d0610       ?transform@PxMat44@physx@@QEBA?BVPxVec3@2@AEBV32@@Z 00000001800d1610 f i GuBV4_CapsuleSweep.obj
 0001:000d1430       ?BV4_CapsuleSweepSingleAA@@YAHAEBVCapsule@Gu@physx@@AEBVPxVec3@3@MAEBVBV4Tree@23@PEIAVSweepHit@23@I@Z 00000001800d2430 f   GuBV4_CapsuleSweepAA.obj
 0001:000d4560       ?Sweep_OBB_BV4@@YAHAEBVBox@Gu@physx@@AEBVPxVec3@3@MAEBVBV4Tree@23@PEIAVSweepHit@23@I@Z 00000001800d5560 f   GuBV4_OBBSweep.obj
 0001:000d4ac0       ?Sweep_OBB_BV4_CB@@YAXAEBVBox@Gu@physx@@AEBVPxVec3@3@MAEBVBV4Tree@23@PEIBVPxMat44@3@P6A_NPEAXAEBVSweepHit@23@@Z4I_N@Z 00000001800d5ac0 f   GuBV4_OBBSweep.obj
 0001:000d4c40       ?GenericSweep_OBB_CB@@YAXAEBVBox@Gu@physx@@AEBVPxVec3@3@MAEBVBV4Tree@23@P6A_NPEAX111IAEAM@Z3I@Z 00000001800d5c40 f   GuBV4_OBBSweep.obj
 0001:000d4d30       ?BV4_BoxSweepSingle@@YAHAEBVBox@Gu@physx@@AEBVPxVec3@3@MAEBVBV4Tree@23@PEIBVPxMat44@3@PEIAVSweepHit@23@I@Z 00000001800d5d30 f   GuBV4_OBBSweep.obj
 0001:000d5430       ?BV4_BoxSweepCB@@YAXAEBVBox@Gu@physx@@AEBVPxVec3@3@MAEBVBV4Tree@23@PEIBVPxMat44@3@P6A_NPEAXAEBVSweepHit@23@@Z4I_N@Z 00000001800d6430 f   GuBV4_OBBSweep.obj
 0001:000d5ca0       ?BV4_GenericSweepCB@@YAXAEBVBox@Gu@physx@@AEBVPxVec3@3@MAEBVBV4Tree@23@P6A_NPEAX111IAEAM@Z3_N@Z 00000001800d6ca0 f   GuBV4_OBBSweep.obj
 0001:000dd380       ??DPxMat33@physx@@QEBA?BVPxVec3@1@AEBV21@@Z 00000001800de380 f i GuBV4_OBBSweep.obj
 0001:000decb0       ?BV4_RaycastSingle@@YAHAEBVPxVec3@physx@@0AEBVBV4Tree@Gu@2@PEIBVPxMat44@2@PEIAUPxRaycastHit@2@MMIV?$PxFlags@W4Enum@PxHitFlag@physx@@G@2@@Z 00000001800dfcb0 f   GuBV4_Raycast.obj
 0001:000df240       ?BV4_RaycastCB@@YAXAEBVPxVec3@physx@@0AEBVBV4Tree@Gu@2@PEIBVPxMat44@2@MMIP6A?AW4HitCode@42@PEAX000IMMM@Z3@Z 00000001800e0240 f   GuBV4_Raycast.obj
 0001:000df660       ?BV4_RaycastAll@@YAIAEBVPxVec3@physx@@0AEBVBV4Tree@Gu@2@PEIBVPxMat44@2@PEIAUPxRaycastHit@2@IMMIV?$PxFlags@W4Enum@PxHitFlag@physx@@G@2@@Z 00000001800e0660 f   GuBV4_Raycast.obj
 0001:000e0bb0       ??$doBruteForceTests@VLeafFunction_RaycastAny@?A0xc322d885@@VLeafFunction_RaycastClosest@2@URayParams@@@Gu@physx@@YAXIPEIAURayParams@@@Z 00000001800e1bb0 f i GuBV4_Raycast.obj
 0001:000e2070       ?BV4_OverlapSphereAny@@YAHAEBVSphere@Gu@physx@@AEBVBV4Tree@23@PEIBVPxMat44@3@@Z 00000001800e3070 f   GuBV4_SphereOverlap.obj
 0001:000e2330       ?BV4_OverlapSphereAll@@YAIAEBVSphere@Gu@physx@@AEBVBV4Tree@23@PEIBVPxMat44@3@PEAIIAEA_N@Z 00000001800e3330 f   GuBV4_SphereOverlap.obj
 0001:000e2650       ?BV4_OverlapSphereCB@@YAXAEBVSphere@Gu@physx@@AEBVBV4Tree@23@PEIBVPxMat44@3@P6A_NPEAXAEBVPxVec3@3@44IPEBI@Z3@Z 00000001800e3650 f   GuBV4_SphereOverlap.obj
 0001:000e5650       ?BV4_SphereSweepSingle@@YAHAEBVSphere@Gu@physx@@AEBVPxVec3@3@MAEBVBV4Tree@23@PEIBVPxMat44@3@PEIAVSweepHit@23@I@Z 00000001800e6650 f   GuBV4_SphereSweep.obj
 0001:000e5d30       ?BV4_SphereSweepCB@@YAXAEBVSphere@Gu@physx@@AEBVPxVec3@3@MAEBVBV4Tree@23@PEIBVPxMat44@3@P6A_NPEAXAEBVSweepHit@23@@Z4I_N@Z 00000001800e6d30 f   GuBV4_SphereSweep.obj
 0001:000e6110       ?BV4_GenericSweepCB_Old@@YAXAEBVPxVec3@physx@@00MAEBVBV4Tree@Gu@2@PEIBVPxMat44@2@P6A_NPEAX000IAEAM@Z3@Z 00000001800e7110 f   GuBV4_SphereSweep.obj
 0001:000eaec0       ?raycast_triangleMesh_BV4@Gu@physx@@YAIPEBVTriangleMesh@12@AEBVPxTriangleMeshGeometry@2@AEBVPxTransform@2@AEBVPxVec3@2@3MV?$PxFlags@W4Enum@PxHitFlag@physx@@G@2@IPEIAUPxRaycastHit@2@@Z 00000001800ebec0 f   GuMidphaseBV4.obj
 0001:000ebd20       ?intersectSphereVsMesh_BV4@Gu@physx@@YA_NAEBVSphere@12@AEBVTriangleMesh@12@AEBVPxTransform@2@AEBVPxMeshScale@2@PEAULimitedResults@12@@Z 00000001800ecd20 f   GuMidphaseBV4.obj
 0001:000ec4a0       ?intersectBoxVsMesh_BV4@Gu@physx@@YA_NAEBVBox@12@AEBVTriangleMesh@12@AEBVPxTransform@2@AEBVPxMeshScale@2@PEAULimitedResults@12@@Z 00000001800ed4a0 f   GuMidphaseBV4.obj
 0001:000ed0a0       ?intersectCapsuleVsMesh_BV4@Gu@physx@@YA_NAEBVCapsule@12@AEBVTriangleMesh@12@AEBVPxTransform@2@AEBVPxMeshScale@2@PEAULimitedResults@12@@Z 00000001800ee0a0 f   GuMidphaseBV4.obj
 0001:000ed940       ?intersectOBB_BV4@Gu@physx@@YAXPEBVTriangleMesh@12@AEBVBox@12@AEAU?$MeshHitCallback@UPxRaycastHit@physx@@@12@_N3@Z 00000001800ee940 f   GuMidphaseBV4.obj
 0001:000ed970       ?sweepCapsule_MeshGeom_BV4@Gu@physx@@YA_NPEBVTriangleMesh@12@AEBVPxTriangleMeshGeometry@2@AEBVPxTransform@2@AEBVCapsule@12@AEBVPxVec3@2@MAEAUPxSweepHit@2@V?$PxFlags@W4Enum@PxHitFlag@physx@@G@2@M@Z 00000001800ee970 f   GuMidphaseBV4.obj
 0001:000ee540       ?sweepBox_MeshGeom_BV4@Gu@physx@@YA_NPEBVTriangleMesh@12@AEBVPxTriangleMeshGeometry@2@AEBVPxTransform@2@AEBVBox@12@AEBVPxVec3@2@MAEAUPxSweepHit@2@V?$PxFlags@W4Enum@PxHitFlag@physx@@G@2@M@Z 00000001800ef540 f   GuMidphaseBV4.obj
 0001:000efd70       ?sweepConvex_MeshGeom_BV4@Gu@physx@@YAXPEBVTriangleMesh@12@AEBVBox@12@AEBVPxVec3@2@MAEAUSweepConvexMeshHitCallback@12@_N@Z 00000001800f0d70 f   GuMidphaseBV4.obj
 0001:000f0ef0       ??1SweepBoxMeshHitCallback@Gu@physx@@UEAA@XZ 00000001800f1ef0 f i GuMidphaseBV4.obj
 0001:000f1710       ?computeSweepData@physx@@YAMAEBVPxTriangleMeshGeometry@1@AEAVPxVec3@1@11M@Z 00000001800f2710 f i GuMidphaseBV4.obj
 0001:000f1ac0       ?transform@PxMeshScale@physx@@QEBA?AVPxVec3@2@AEBV32@@Z 00000001800f2ac0 f i GuMidphaseBV4.obj
 0001:000f1d00       ?getTriangle@PxMeshQuery@physx@@SAXAEBVPxTriangleMeshGeometry@2@AEBVPxTransform@2@IAEAVPxTriangle@2@PEAI3@Z 00000001800f2d00 f   GuMeshQuery.obj
 0001:000f20c0       ?getTriangle@PxMeshQuery@physx@@SAXAEBVPxHeightFieldGeometry@2@AEBVPxTransform@2@IAEAVPxTriangle@2@PEAI3@Z 00000001800f30c0 f   GuMeshQuery.obj
 0001:000f2140       ?findOverlapTriangleMesh@PxMeshQuery@physx@@SAIAEBVPxGeometry@2@AEBVPxTransform@2@AEBVPxTriangleMeshGeometry@2@1PEAIIIAEA_N@Z 00000001800f3140 f   GuMeshQuery.obj
 0001:000f2450       ?findOverlapHeightField@PxMeshQuery@physx@@SAIAEBVPxGeometry@2@AEBVPxTransform@2@AEBVPxHeightFieldGeometry@2@1PEAIIIAEA_N@Z 00000001800f3450 f   GuMeshQuery.obj
 0001:000f2b40       ?sweep@PxMeshQuery@physx@@SA_NAEBVPxVec3@2@MAEBVPxGeometry@2@AEBVPxTransform@2@IPEBVPxTriangle@2@AEAUPxSweepHit@2@V?$PxFlags@W4Enum@PxHitFlag@physx@@G@2@PEBIM_N@Z 00000001800f3b40 f   GuMeshQuery.obj
 0001:000f2f50       ?raycast_triangleMesh_RTREE@Gu@physx@@YAIPEBVTriangleMesh@12@AEBVPxTriangleMeshGeometry@2@AEBVPxTransform@2@AEBVPxVec3@2@3MV?$PxFlags@W4Enum@PxHitFlag@physx@@G@2@IPEIAUPxRaycastHit@2@@Z 00000001800f3f50 f   GuMidphaseRTree.obj
 0001:000f3730       ?intersectSphereVsMesh_RTREE@Gu@physx@@YA_NAEBVSphere@12@AEBVTriangleMesh@12@AEBVPxTransform@2@AEBVPxMeshScale@2@PEAULimitedResults@12@@Z 00000001800f4730 f   GuMidphaseRTree.obj
 0001:000f3760       ?intersectBoxVsMesh_RTREE@Gu@physx@@YA_NAEBVBox@12@AEBVTriangleMesh@12@AEBVPxTransform@2@AEBVPxMeshScale@2@PEAULimitedResults@12@@Z 00000001800f4760 f   GuMidphaseRTree.obj
 0001:000f37e0       ?intersectCapsuleVsMesh_RTREE@Gu@physx@@YA_NAEBVCapsule@12@AEBVTriangleMesh@12@AEBVPxTransform@2@AEBVPxMeshScale@2@PEAULimitedResults@12@@Z 00000001800f47e0 f   GuMidphaseRTree.obj
 0001:000f3860       ?intersectOBB_RTREE@Gu@physx@@YAXPEBVTriangleMesh@12@AEBVBox@12@AEAU?$MeshHitCallback@UPxRaycastHit@physx@@@12@_N3@Z 00000001800f4860 f   GuMidphaseRTree.obj
 0001:000f3890       ?sweepCapsule_MeshGeom_RTREE@Gu@physx@@YA_NPEBVTriangleMesh@12@AEBVPxTriangleMeshGeometry@2@AEBVPxTransform@2@AEBVCapsule@12@AEBVPxVec3@2@MAEAUPxSweepHit@2@V?$PxFlags@W4Enum@PxHitFlag@physx@@G@2@M@Z 00000001800f4890 f   GuMidphaseRTree.obj
 0001:000f40b0       ?sweepBox_MeshGeom_RTREE@Gu@physx@@YA_NPEBVTriangleMesh@12@AEBVPxTriangleMeshGeometry@2@AEBVPxTransform@2@AEBVBox@12@AEBVPxVec3@2@MAEAUPxSweepHit@2@V?$PxFlags@W4Enum@PxHitFlag@physx@@G@2@M@Z 00000001800f50b0 f   GuMidphaseRTree.obj
 0001:000f5680       ?sweepConvex_MeshGeom_RTREE@Gu@physx@@YAXPEBVTriangleMesh@12@AEBVBox@12@AEBVPxVec3@2@MAEAUSweepConvexMeshHitCallback@12@_N@Z 00000001800f6680 f   GuMidphaseRTree.obj
 0001:000f56e0       ?collideOBB@MeshRayCollider@@SAXAEBVBox@Gu@physx@@_NPEBVRTreeTriangleMesh@34@AEAU?$MeshHitCallback@UPxRaycastHit@physx@@@34@1@Z 00000001800f66e0 f   GuMidphaseRTree.obj
 0001:000f59b0       ??$collide@$00$00@MeshRayCollider@@SAXAEBVPxVec3@physx@@0M_NPEBVRTreeTriangleMesh@Gu@2@AEAU?$MeshHitCallback@UPxRaycastHit@physx@@@42@PEBV12@@Z 00000001800f69b0 f i GuMidphaseRTree.obj
 0001:000f5d50       ??$collide@$00$0A@@MeshRayCollider@@SAXAEBVPxVec3@physx@@0M_NPEBVRTreeTriangleMesh@Gu@2@AEAU?$MeshHitCallback@UPxRaycastHit@physx@@@42@PEBV12@@Z 00000001800f6d50 f i GuMidphaseRTree.obj
 0001:000f5f90       ??$collide@$0A@$00@MeshRayCollider@@SAXAEBVPxVec3@physx@@0M_NPEBVRTreeTriangleMesh@Gu@2@AEAU?$MeshHitCallback@UPxRaycastHit@physx@@@42@PEBV12@@Z 00000001800f6f90 f i GuMidphaseRTree.obj
 0001:000f6360       ??$collide@$0A@$0A@@MeshRayCollider@@SAXAEBVPxVec3@physx@@0M_NPEBVRTreeTriangleMesh@Gu@2@AEAU?$MeshHitCallback@UPxRaycastHit@physx@@@42@PEBV12@@Z 00000001800f7360 f i GuMidphaseRTree.obj
 0001:000f8910       ??0?$RayRTreeCallback@$00$0A@@@QEAA@MAEAU?$MeshHitCallback@UPxRaycastHit@physx@@@Gu@physx@@HPEBXPEBVPxVec3@3@AEBV43@3M_N2@Z 00000001800f9910 f i GuMidphaseRTree.obj
 0001:000f8ab0       ??1?$RayRTreeCallback@$00$00@@UEAA@XZ 00000001800f9ab0 f i GuMidphaseRTree.obj
 0001:000f8b40       ??1?$RayRTreeCallback@$00$0A@@@UEAA@XZ 00000001800f9b40 f i GuMidphaseRTree.obj
 0001:000f8bd0       ??1?$RayRTreeCallback@$0A@$00@@UEAA@XZ 00000001800f9bd0 f i GuMidphaseRTree.obj
 0001:000f8c60       ??1?$RayRTreeCallback@$0A@$0A@@@UEAA@XZ 00000001800f9c60 f i GuMidphaseRTree.obj
 0001:000f8cf0       ??1Callback@RTree@Gu@physx@@UEAA@XZ 00000001800f9cf0 f i GuMidphaseRTree.obj
 0001:000f8d00       ??1CallbackRaycast@RTree@Gu@physx@@UEAA@XZ 00000001800f9d00 f i GuMidphaseRTree.obj
 0001:000f8d1c       ??_E?$RayRTreeCallback@$00$00@@W7EAAPEAXI@Z 00000001800f9d1c f i GuMidphaseRTree.obj
 0001:000f8d28       ??_E?$RayRTreeCallback@$00$0A@@@W7EAAPEAXI@Z 00000001800f9d28 f i GuMidphaseRTree.obj
 0001:000f8d34       ??_E?$RayRTreeCallback@$0A@$00@@W7EAAPEAXI@Z 00000001800f9d34 f i GuMidphaseRTree.obj
 0001:000f8d40       ??_E?$RayRTreeCallback@$0A@$0A@@@W7EAAPEAXI@Z 00000001800f9d40 f i GuMidphaseRTree.obj
 0001:000f8e70       ??_G?$RayRTreeCallback@$00$00@@UEAAPEAXI@Z 00000001800f9e70 f i GuMidphaseRTree.obj
 0001:000f8e70       ??_E?$RayRTreeCallback@$00$00@@UEAAPEAXI@Z 00000001800f9e70 f i GuMidphaseRTree.obj
 0001:000f8eb0       ??_E?$RayRTreeCallback@$00$0A@@@UEAAPEAXI@Z 00000001800f9eb0 f i GuMidphaseRTree.obj
 0001:000f8eb0       ??_G?$RayRTreeCallback@$00$0A@@@UEAAPEAXI@Z 00000001800f9eb0 f i GuMidphaseRTree.obj
 0001:000f8ef0       ??_G?$RayRTreeCallback@$0A@$00@@UEAAPEAXI@Z 00000001800f9ef0 f i GuMidphaseRTree.obj
 0001:000f8ef0       ??_E?$RayRTreeCallback@$0A@$00@@UEAAPEAXI@Z 00000001800f9ef0 f i GuMidphaseRTree.obj
 0001:000f8f30       ??_E?$RayRTreeCallback@$0A@$0A@@@UEAAPEAXI@Z 00000001800f9f30 f i GuMidphaseRTree.obj
 0001:000f8f30       ??_G?$RayRTreeCallback@$0A@$0A@@@UEAAPEAXI@Z 00000001800f9f30 f i GuMidphaseRTree.obj
 0001:000f8f70       ??_GCallback@RTree@Gu@physx@@UEAAPEAXI@Z 00000001800f9f70 f i GuMidphaseRTree.obj
 0001:000f8f70       ??_ECallback@RTree@Gu@physx@@UEAAPEAXI@Z 00000001800f9f70 f i GuMidphaseRTree.obj
 0001:000f8fa0       ??_ECallbackRaycast@RTree@Gu@physx@@UEAAPEAXI@Z 00000001800f9fa0 f i GuMidphaseRTree.obj
 0001:000f8fa0       ??_GCallbackRaycast@RTree@Gu@physx@@UEAAPEAXI@Z 00000001800f9fa0 f i GuMidphaseRTree.obj
 0001:000f9000       ??_GRayMeshColliderCallback@@UEAAPEAXI@Z 00000001800fa000 f i GuMidphaseRTree.obj
 0001:000f9000       ??_ERayMeshColliderCallback@@UEAAPEAXI@Z 00000001800fa000 f i GuMidphaseRTree.obj
 0001:000f9ff0       ?processHit@RayMeshColliderCallback@@UEAA_NAEBUPxRaycastHit@physx@@AEBVPxVec3@3@11AEAMPEBI@Z 00000001800faff0 f i GuMidphaseRTree.obj
 0001:000fa790       ?processResults@?$RayRTreeCallback@$00$00@@UEAA_NIPEAI@Z 00000001800fb790 f i GuMidphaseRTree.obj
 0001:000fab80       ?processResults@?$RayRTreeCallback@$00$00@@UEAA_NIPEAIAEAM@Z 00000001800fbb80 f i GuMidphaseRTree.obj
 0001:000faf40       ?processResults@?$RayRTreeCallback@$00$0A@@@UEAA_NIPEAI@Z 00000001800fbf40 f i GuMidphaseRTree.obj
 0001:000fb1d0       ?processResults@?$RayRTreeCallback@$00$0A@@@UEAA_NIPEAIAEAM@Z 00000001800fc1d0 f i GuMidphaseRTree.obj
 0001:000fb470       ?processResults@?$RayRTreeCallback@$0A@$00@@UEAA_NIPEAI@Z 00000001800fc470 f i GuMidphaseRTree.obj
 0001:000fbad0       ?processResults@?$RayRTreeCallback@$0A@$00@@UEAA_NIPEAIAEAM@Z 00000001800fcad0 f i GuMidphaseRTree.obj
 0001:000fc140       ?processResults@?$RayRTreeCallback@$0A@$0A@@@UEAA_NIPEAI@Z 00000001800fd140 f i GuMidphaseRTree.obj
 0001:000fc3d0       ?processResults@?$RayRTreeCallback@$0A@$0A@@@UEAA_NIPEAIAEAM@Z 00000001800fd3d0 f i GuMidphaseRTree.obj
 0001:000fc670       ?profile@Callback@RTree@Gu@physx@@UEAAXXZ 00000001800fd670 f i GuMidphaseRTree.obj
 0001:000fc680       ?checkOverlapAABB_triangleGeom@Gu@physx@@YA_NAEBVPxGeometry@2@AEBVPxTransform@2@AEBVPxBounds3@2@@Z 00000001800fd680 f   GuOverlapTestsMesh.obj
 0001:000fc790       ?GeomOverlapCallback_SphereMesh@@YA_NAEBVPxGeometry@physx@@AEBVPxTransform@2@01PEAUTriggerCache@Gu@2@@Z 00000001800fd790 f   GuOverlapTestsMesh.obj
 0001:000fc800       ?GeomOverlapCallback_CapsuleMesh@@YA_NAEBVPxGeometry@physx@@AEBVPxTransform@2@01PEAUTriggerCache@Gu@2@@Z 00000001800fd800 f   GuOverlapTestsMesh.obj
 0001:000fc920       ?GeomOverlapCallback_BoxMesh@@YA_NAEBVPxGeometry@physx@@AEBVPxTransform@2@01PEAUTriggerCache@Gu@2@@Z 00000001800fd920 f   GuOverlapTestsMesh.obj
 0001:000fca30       ?GeomOverlapCallback_ConvexMesh@@YA_NAEBVPxGeometry@physx@@AEBVPxTransform@2@01PEAUTriggerCache@Gu@2@@Z 00000001800fda30 f   GuOverlapTestsMesh.obj
 0001:000fd010       ??$gjk@U?$RelativeConvex@VTriangleV@Gu@physx@@@Gu@physx@@U?$LocalConvex@VConvexHullV@Gu@physx@@@23@@Gu@physx@@YA?AW4GjkStatus@01@AEBU?$RelativeConvex@VTriangleV@Gu@physx@@@01@AEBU?$LocalConvex@VConvexHullV@Gu@physx@@@01@AEBT__m128@@2AEAT5@333@Z 00000001800fe010 f i GuOverlapTestsMesh.obj
 0001:000fe070       ??0ConvexVsMeshOverlapCallback@@QEAA@AEBVConvexMesh@Gu@physx@@AEBVPxMeshScale@3@AEBVFastVertex2ShapeScaling@Cm@3@AEBVPxTransform@3@3_NAEBVBox@23@@Z 00000001800ff070 f i GuOverlapTestsMesh.obj
 0001:000fe9a0       ??1ConvexVsMeshOverlapCallback@@UEAA@XZ 00000001800ff9a0 f i GuOverlapTestsMesh.obj
 0001:000fe9b0       ??_GConvexVsMeshOverlapCallback@@UEAAPEAXI@Z 00000001800ff9b0 f i GuOverlapTestsMesh.obj
 0001:000fe9b0       ??_EConvexVsMeshOverlapCallback@@UEAAPEAXI@Z 00000001800ff9b0 f i GuOverlapTestsMesh.obj
 0001:000fe9e0       ?processHit@ConvexVsMeshOverlapCallback@@UEAA_NAEBUPxRaycastHit@physx@@AEBVPxVec3@3@11AEAMPEBI@Z 00000001800ff9e0 f i GuOverlapTestsMesh.obj
 0001:000fed90       ??0RTree@Gu@physx@@QEAA@W4PxEMPTY@2@@Z 00000001800ffd90 f   GuRTree.obj
 0001:000feda0       ?exportExtraData@RTree@Gu@physx@@QEAAXAEAVPxSerializationContext@3@@Z 00000001800ffda0 f   GuRTree.obj
 0001:000fedf0       ?importExtraData@RTree@Gu@physx@@QEAAXAEAVPxDeserializationContext@3@@Z 00000001800ffdf0 f   GuRTree.obj
 0001:000fee20       ?load@RTree@Gu@physx@@QEAA_NAEAVPxInputStream@3@I_N@Z 00000001800ffe20 f   GuRTree.obj
 0001:000ff120       ?refitAllStaticTree@RTree@Gu@physx@@QEAAXAEAUCallbackRefit@123@PEAVPxBounds3@3@@Z 0000000180100120 f   GuRTree.obj
 0001:000ff660       ?validate@RTree@Gu@physx@@QEAAXPEAUCallbackRefit@123@@Z 0000000180100660 f   GuRTree.obj
 0001:000ff8a0       ?computeBottomLevelCount@RTree@Gu@physx@@QEBAII@Z 00000001801008a0 f   GuRTree.obj
 0001:000ff990       ?validateRecursive@RTree@Gu@physx@@IEAAXIURTreeNodeQ@23@PEAURTreePage@23@PEAUCallbackRefit@123@@Z 0000000180100990 f   GuRTree.obj
 0001:000ffb10       ?traverseAABB@RTree@Gu@physx@@QEBAXAEBVPxVec3@3@0IPEAIPEAUCallback@123@@Z 0000000180100b10 f   GuRTreeQueries.obj
 0001:000ffcf0       ?traverseOBB@RTree@Gu@physx@@QEBAXAEBVBox@23@IPEAIPEAUCallback@123@@Z 0000000180100cf0 f   GuRTreeQueries.obj
 0001:00100670       ??$traverseRay@$00@RTree@Gu@physx@@QEBAXAEBVPxVec3@2@0IPEAIPEAUCallbackRaycast@012@PEBV32@M@Z 0000000180101670 f i GuRTreeQueries.obj
 0001:00100a40       ??$traverseRay@$0A@@RTree@Gu@physx@@QEBAXAEBVPxVec3@2@0IPEAIPEAUCallbackRaycast@012@PEBV32@M@Z 0000000180101a40 f i GuRTreeQueries.obj
 0001:00100da0       ??0SweepShapeMeshHitCallback@Gu@physx@@QEAA@W4Enum@CallbackMode@12@AEBV?$PxFlags@W4Enum@PxHitFlag@physx@@G@2@_NM@Z 0000000180101da0 f   GuSweepsMesh.obj
 0001:00100de0       ??0SweepCapsuleMeshHitCallback@Gu@physx@@QEAA@AEAUPxSweepHit@2@AEBVMatrix34@Cm@2@M_NAEBVCapsule@12@AEBVPxVec3@2@AEBV?$PxFlags@W4Enum@PxHitFlag@physx@@G@2@2M@Z 0000000180101de0 f   GuSweepsMesh.obj
 0001:00100eb0       ?processHit@SweepCapsuleMeshHitCallback@Gu@physx@@UEAA_NAEBUPxRaycastHit@3@AEBVPxVec3@3@11AEAMPEBI@Z 0000000180101eb0 f   GuSweepsMesh.obj
 0001:00101400       ?finalizeHit@SweepCapsuleMeshHitCallback@Gu@physx@@QEBA_NAEAUPxSweepHit@3@AEBVCapsule@23@AEBVPxTriangleMeshGeometry@3@AEBVPxTransform@3@_N@Z 0000000180102400 f   GuSweepsMesh.obj
 0001:001015f0       ??0SweepBoxMeshHitCallback@Gu@physx@@QEAA@W4Enum@CallbackMode@12@AEBVMatrix34Padded@12@M_NAEBVBox@12@AEBVPxVec3@2@44AEBV?$PxFlags@W4Enum@PxHitFlag@physx@@G@2@M2M@Z 00000001801025f0 f   GuSweepsMesh.obj
 0001:00101720       ?processHit@SweepBoxMeshHitCallback@Gu@physx@@UEAA_NAEBUPxRaycastHit@3@AEBVPxVec3@3@11AEAMPEBI@Z 0000000180102720 f   GuSweepsMesh.obj
 0001:00101f90       ?finalizeHit@SweepBoxMeshHitCallback@Gu@physx@@QEBA_NAEAUPxSweepHit@3@AEBVPxTriangleMeshGeometry@3@AEBVPxTransform@3@2AEBVPxVec3@3@_N4@Z 0000000180102f90 f   GuSweepsMesh.obj
 0001:001026b0       ??0SweepConvexMeshHitCallback@Gu@physx@@QEAA@AEBUConvexHullData@12@AEBVPxMeshScale@2@AEBVFastVertex2ShapeScaling@Cm@2@AEBVPxTransform@2@3AEBVPxVec3@2@MV?$PxFlags@W4Enum@PxHitFlag@physx@@G@2@_NM6M@Z 00000001801036b0 f   GuSweepsMesh.obj
 0001:00103100       ?processHit@SweepConvexMeshHitCallback@Gu@physx@@UEAA_NAEBUPxRaycastHit@3@AEBVPxVec3@3@11AEAMPEBI@Z 0000000180104100 f   GuSweepsMesh.obj
 0001:001038f0       ?finalizeHit@SweepConvexMeshHitCallback@Gu@physx@@QEAA_NAEAUPxSweepHit@3@AEBVPxTriangleMeshGeometry@3@AEBVPxTransform@3@AEBVPxConvexMeshGeometry@3@2AEBVPxVec3@3@M_N555@Z 00000001801048f0 f   GuSweepsMesh.obj
 0001:00103dd0       ?sweepCapsule_MeshGeom@@YA_NAEBVPxGeometry@physx@@AEBVPxTransform@2@AEBVPxCapsuleGeometry@2@1AEBVCapsule@Gu@2@AEBVPxVec3@2@MAEAUPxSweepHit@2@V?$PxFlags@W4Enum@PxHitFlag@physx@@G@2@M@Z 0000000180104dd0 f   GuSweepsMesh.obj
 0001:00103e70       ?sweepBox_MeshGeom@@YA_NAEBVPxGeometry@physx@@AEBVPxTransform@2@AEBVPxBoxGeometry@2@1AEBVBox@Gu@2@AEBVPxVec3@2@MAEAUPxSweepHit@2@V?$PxFlags@W4Enum@PxHitFlag@physx@@G@2@M@Z 0000000180104e70 f   GuSweepsMesh.obj
 0001:00103f10       ?sweepConvex_MeshGeom@@YA_NAEBVPxGeometry@physx@@AEBVPxTransform@2@AEBVPxConvexMeshGeometry@2@1AEBVPxVec3@2@MAEAUPxSweepHit@2@V?$PxFlags@W4Enum@PxHitFlag@physx@@G@2@M@Z 0000000180104f10 f   GuSweepsMesh.obj
 0001:00104860       ??1SweepConvexMeshHitCallback@Gu@physx@@UEAA@XZ 0000000180105860 f i GuSweepsMesh.obj
 0001:00104870       ??_GSweepBoxMeshHitCallback@Gu@physx@@UEAAPEAXI@Z 0000000180105870 f i GuSweepsMesh.obj
 0001:00104870       ??_ESweepBoxMeshHitCallback@Gu@physx@@UEAAPEAXI@Z 0000000180105870 f i GuSweepsMesh.obj
 0001:001048a0       ??_GSweepCapsuleMeshHitCallback@Gu@physx@@UEAAPEAXI@Z 00000001801058a0 f i GuSweepsMesh.obj
 0001:001048a0       ??_ESweepCapsuleMeshHitCallback@Gu@physx@@UEAAPEAXI@Z 00000001801058a0 f i GuSweepsMesh.obj
 0001:001048d0       ??_GSweepConvexMeshHitCallback@Gu@physx@@UEAAPEAXI@Z 00000001801058d0 f i GuSweepsMesh.obj
 0001:001048d0       ??_ESweepConvexMeshHitCallback@Gu@physx@@UEAAPEAXI@Z 00000001801058d0 f i GuSweepsMesh.obj
 0001:00104900       ??_GSweepShapeMeshHitCallback@Gu@physx@@UEAAPEAXI@Z 0000000180105900 f i GuSweepsMesh.obj
 0001:00104900       ??_ESweepShapeMeshHitCallback@Gu@physx@@UEAAPEAXI@Z 0000000180105900 f i GuSweepsMesh.obj
 0001:00104c10       ?exportExtraData@TriangleMesh@Gu@physx@@UEAAXAEAVPxSerializationContext@3@@Z 0000000180105c10 f   GuTriangleMesh.obj
 0001:00104d50       ?importExtraData@TriangleMesh@Gu@physx@@QEAAXAEAVPxDeserializationContext@3@@Z 0000000180105d50 f   GuTriangleMesh.obj
 0001:00104e60       ?release@TriangleMesh@Gu@physx@@UEAAXXZ 0000000180105e60 f   GuTriangleMesh.obj
 0001:00104ea0       ?onRefCountZero@TriangleMesh@Gu@physx@@UEAAXXZ 0000000180105ea0 f   GuTriangleMesh.obj
 0001:00104f50       ??0TriangleMesh@Gu@physx@@QEAA@AEAVGuMeshFactory@2@AEAVTriangleMeshData@12@@Z 0000000180105f50 f   GuTriangleMesh.obj
 0001:001050f0       ??1TriangleMesh@Gu@physx@@UEAA@XZ 00000001801060f0 f   GuTriangleMesh.obj
 0001:001052a0       ?getVerticesForModification@TriangleMesh@Gu@physx@@UEAAPEAVPxVec3@3@XZ 00000001801062a0 f   GuTriangleMesh.obj
 0001:001052e0       ?refitBVH@TriangleMesh@Gu@physx@@UEAA?AVPxBounds3@3@XZ 00000001801062e0 f   GuTriangleMesh.obj
 0001:001053a0       ??1PxTriangleMesh@physx@@MEAA@XZ 00000001801063a0 f i GuTriangleMesh.obj
 0001:001053ac       ??_ETriangleMesh@Gu@physx@@WBA@EAAPEAXI@Z 00000001801063ac f i GuTriangleMesh.obj
 0001:001053c0       ??_EPxTriangleMesh@physx@@MEAAPEAXI@Z 00000001801063c0 f i GuTriangleMesh.obj
 0001:001053c0       ??_GPxTriangleMesh@physx@@MEAAPEAXI@Z 00000001801063c0 f i GuTriangleMesh.obj
 0001:001053f0       ??_GTriangleMesh@Gu@physx@@UEAAPEAXI@Z 00000001801063f0 f i GuTriangleMesh.obj
 0001:001053f0       ??_ETriangleMesh@Gu@physx@@UEAAPEAXI@Z 00000001801063f0 f i GuTriangleMesh.obj
 0001:00105450       ?acquireReference@TriangleMesh@Gu@physx@@UEAAXXZ 0000000180106450 f i GuTriangleMesh.obj
 0001:00105460       ?getLocalBounds@TriangleMesh@Gu@physx@@UEBA?AVPxBounds3@3@XZ 0000000180106460 f i GuTriangleMesh.obj
 0001:001054f0       ?getNbTriangles@TriangleMesh@Gu@physx@@UEBAIXZ 00000001801064f0 f i GuTriangleMesh.obj
 0001:00105500       ?getNbVertices@TriangleMesh@Gu@physx@@UEBAIXZ 0000000180106500 f i GuTriangleMesh.obj
 0001:00105510       ?getReferenceCount@TriangleMesh@Gu@physx@@UEBAIXZ 0000000180106510 f i GuTriangleMesh.obj
 0001:00105520       ?getTriangleMaterialIndex@TriangleMesh@Gu@physx@@UEBAGI@Z 0000000180106520 f i GuTriangleMesh.obj
 0001:00105540       ?getTriangleMeshFlags@TriangleMesh@Gu@physx@@UEBA?AV?$PxFlags@W4Enum@PxTriangleMeshFlag@physx@@E@3@XZ 0000000180106540 f i GuTriangleMesh.obj
 0001:00105550       ?getTriangles@TriangleMesh@Gu@physx@@UEBAPEBXXZ 0000000180106550 f i GuTriangleMesh.obj
 0001:00105560       ?getTrianglesRemap@TriangleMesh@Gu@physx@@UEBAPEBIXZ 0000000180106560 f i GuTriangleMesh.obj
 0001:00105570       ?getVertices@TriangleMesh@Gu@physx@@UEBAPEBVPxVec3@3@XZ 0000000180106570 f i GuTriangleMesh.obj
 0001:00105580       ?isKindOf@PxTriangleMesh@physx@@MEBA_NPEBD@Z 0000000180106580 f i GuTriangleMesh.obj
 0001:001055d0       ?requiresObjects@TriangleMesh@Gu@physx@@UEAAXAEAVPxProcessPxBaseCallback@3@@Z 00000001801065d0 f i GuTriangleMesh.obj
 0001:001055e0       ?exportExtraData@BV4TriangleMesh@Gu@physx@@UEAAXAEAVPxSerializationContext@3@@Z 00000001801065e0 f   GuTriangleMeshBV4.obj
 0001:00105620       ?importExtraData@BV4TriangleMesh@Gu@physx@@QEAAXAEAVPxDeserializationContext@3@@Z 0000000180106620 f   GuTriangleMeshBV4.obj
 0001:001056a0       ?createObject@BV4TriangleMesh@Gu@physx@@SAPEAVTriangleMesh@23@AEAPEAEAEAVPxDeserializationContext@3@@Z 00000001801066a0 f   GuTriangleMeshBV4.obj
 0001:001057a0       ??0BV4TriangleMesh@Gu@physx@@QEAA@AEAVGuMeshFactory@2@AEAVTriangleMeshData@12@@Z 00000001801067a0 f   GuTriangleMeshBV4.obj
 0001:00105840       ??1BV4TriangleMesh@Gu@physx@@UEAA@XZ 0000000180106840 f i GuTriangleMeshBV4.obj
 0001:00105884       ??_EBV4TriangleMesh@Gu@physx@@WBA@EAAPEAXI@Z 0000000180106884 f i GuTriangleMeshBV4.obj
 0001:00105890       ??_GBV4TriangleMesh@Gu@physx@@UEAAPEAXI@Z 0000000180106890 f i GuTriangleMeshBV4.obj
 0001:00105890       ??_EBV4TriangleMesh@Gu@physx@@UEAAPEAXI@Z 0000000180106890 f i GuTriangleMeshBV4.obj
 0001:00105920       ?getConcreteTypeName@BV4TriangleMesh@Gu@physx@@UEBAPEBDXZ 0000000180106920 f i GuTriangleMeshBV4.obj
 0001:00105930       ?getMidphaseID@BV4TriangleMesh@Gu@physx@@UEBA?AW4Enum@PxMeshMidPhase@3@XZ 0000000180106930 f i GuTriangleMeshBV4.obj
 0001:00105940       ?exportExtraData@RTreeTriangleMesh@Gu@physx@@UEAAXAEAVPxSerializationContext@3@@Z 0000000180106940 f   GuTriangleMeshRTree.obj
 0001:00105980       ?importExtraData@RTreeTriangleMesh@Gu@physx@@QEAAXAEAVPxDeserializationContext@3@@Z 0000000180106980 f   GuTriangleMeshRTree.obj
 0001:001059c0       ?createObject@RTreeTriangleMesh@Gu@physx@@SAPEAVTriangleMesh@23@AEAPEAEAEAVPxDeserializationContext@3@@Z 00000001801069c0 f   GuTriangleMeshRTree.obj
 0001:00105a80       ??0RTreeTriangleMesh@Gu@physx@@QEAA@AEAVGuMeshFactory@2@AEAVTriangleMeshData@12@@Z 0000000180106a80 f   GuTriangleMeshRTree.obj
 0001:00105c00       ?getVerticesForModification@RTreeTriangleMesh@Gu@physx@@UEAAPEAVPxVec3@3@XZ 0000000180106c00 f   GuTriangleMeshRTree.obj
 0001:00105c10       ?refitBVH@RTreeTriangleMesh@Gu@physx@@UEAA?AVPxBounds3@3@XZ 0000000180106c10 f   GuTriangleMeshRTree.obj
 0001:00105e30       ??1CallbackRefit@RTree@Gu@physx@@UEAA@XZ 0000000180106e30 f i GuTriangleMeshRTree.obj
 0001:00105e40       ??1RTreeTriangleMesh@Gu@physx@@UEAA@XZ 0000000180106e40 f i GuTriangleMeshRTree.obj
 0001:00105eb0       ??_ERTreeTriangleMesh@Gu@physx@@WBA@EAAPEAXI@Z 0000000180106eb0 f i GuTriangleMeshRTree.obj
 0001:00105ec0       ??_G?$RefitCallback@G@physx@@UEAAPEAXI@Z 0000000180106ec0 f i GuTriangleMeshRTree.obj
 0001:00105ec0       ??_E?$RefitCallback@G@physx@@UEAAPEAXI@Z 0000000180106ec0 f i GuTriangleMeshRTree.obj
 0001:00105ef0       ??_G?$RefitCallback@I@physx@@UEAAPEAXI@Z 0000000180106ef0 f i GuTriangleMeshRTree.obj
 0001:00105ef0       ??_E?$RefitCallback@I@physx@@UEAAPEAXI@Z 0000000180106ef0 f i GuTriangleMeshRTree.obj
 0001:00105f20       ??_ECallbackRefit@RTree@Gu@physx@@UEAAPEAXI@Z 0000000180106f20 f i GuTriangleMeshRTree.obj
 0001:00105f20       ??_GCallbackRefit@RTree@Gu@physx@@UEAAPEAXI@Z 0000000180106f20 f i GuTriangleMeshRTree.obj
 0001:00105f50       ??_GRTreeTriangleMesh@Gu@physx@@UEAAPEAXI@Z 0000000180106f50 f i GuTriangleMeshRTree.obj
 0001:00105f50       ??_ERTreeTriangleMesh@Gu@physx@@UEAAPEAXI@Z 0000000180106f50 f i GuTriangleMeshRTree.obj
 0001:00106010       ?getConcreteTypeName@RTreeTriangleMesh@Gu@physx@@UEBAPEBDXZ 0000000180107010 f i GuTriangleMeshRTree.obj
 0001:00106020       ?getMidphaseID@RTreeTriangleMesh@Gu@physx@@UEBA?AW4Enum@PxMeshMidPhase@3@XZ 0000000180107020 f i GuTriangleMeshRTree.obj
 0001:00106030       ?recomputeBounds@?$RefitCallback@G@physx@@UEAAXIAEAT__m128@@0@Z 0000000180107030 f i GuTriangleMeshRTree.obj
 0001:001061c0       ?recomputeBounds@?$RefitCallback@I@physx@@UEAAXIAEAT__m128@@0@Z 00000001801071c0 f i GuTriangleMeshRTree.obj
 0001:00106350       ??0BV32Tree@Gu@physx@@QEAA@W4PxEMPTY@2@@Z 0000000180107350 f   GuBV32.obj
 0001:00106370       ?exportExtraData@BV32Tree@Gu@physx@@QEAAXAEAVPxSerializationContext@3@@Z 0000000180107370 f   GuBV32.obj
 0001:001063c0       ?importExtraData@BV32Tree@Gu@physx@@QEAAXAEAVPxDeserializationContext@3@@Z 00000001801073c0 f   GuBV32.obj
 0001:001063f0       ??0BV32Tree@Gu@physx@@QEAA@XZ 00000001801073f0 f   GuBV32.obj
 0001:00106420       ??0BV32Tree@Gu@physx@@QEAA@PEAVSourceMesh@12@AEBVPxBounds3@2@@Z 0000000180107420 f   GuBV32.obj
 0001:001064e0       ??1BV32Tree@Gu@physx@@QEAA@XZ 00000001801074e0 f   GuBV32.obj
 0001:001064f0       ?load@BV32Tree@Gu@physx@@QEAA_NAEAVPxInputStream@3@_N@Z 00000001801074f0 f   GuBV32.obj
 0001:00106710       ?calculateLeafNode@BV32Tree@Gu@physx@@QEAAXAEAUBV32Data@23@@Z 0000000180107710 f   GuBV32.obj
 0001:00106950       ?createSOAformatNode@BV32Tree@Gu@physx@@QEAAXAEAUBV32DataPacked@23@AEBUBV32Data@23@IAEAI2@Z 0000000180107950 f   GuBV32.obj
 0001:00106d60       ?reset@BV32Tree@Gu@physx@@QEAAXXZ 0000000180107d60 f   GuBV32.obj
 0001:00106d80       ??4BV32Tree@Gu@physx@@QEAAXAEAV012@@Z 0000000180107d80 f   GuBV32.obj
 0001:00106de0       ?init@BV32Tree@Gu@physx@@QEAA_NPEAVSourceMesh@23@AEBVPxBounds3@3@@Z 0000000180107de0 f   GuBV32.obj
 0001:00106e80       ?release@BV32Tree@Gu@physx@@QEAAXXZ 0000000180107e80 f   GuBV32.obj
 0001:00106f10       ?BuildBV32Ex@Gu@physx@@YA_NAEAVBV32Tree@12@AEAVSourceMesh@12@MI@Z 0000000180107f10 f   GuBV32Build.obj
 0001:001070b0       ??0BV32Data@Gu@physx@@QEAA@XZ 00000001801080b0 f i GuBV32Build.obj
 0001:001070e0       ??0BV32Node@@QEAA@XZ       00000001801080e0 f i GuBV32Build.obj
 0001:00108100       ?pcmContactBoxBox@Gu@physx@@YA_NAEBVGeometryUnion@12@0AEBVPxTransform@2@1AEBUNarrowPhaseParams@12@AEAUCache@12@AEAVContactBuffer@12@PEAVRenderOutput@Cm@2@@Z 0000000180109100 f   GuPCMContactBoxBox.obj
 0001:0010b780       ?pcmContactBoxConvex@Gu@physx@@YA_NAEBVGeometryUnion@12@0AEBVPxTransform@2@1AEBUNarrowPhaseParams@12@AEAUCache@12@AEAVContactBuffer@12@PEAVRenderOutput@Cm@2@@Z 000000018010c780 f   GuPCMContactBoxConvex.obj
 0001:0010c560       ??$gjkPenetration@U?$RelativeConvex@VBoxV@Gu@physx@@@Gu@physx@@U?$LocalConvex@VConvexHullNoScaleV@Gu@physx@@@23@@Gu@physx@@YA?AW4GjkStatus@01@AEBU?$RelativeConvex@VBoxV@Gu@physx@@@01@AEBU?$LocalConvex@VConvexHullNoScaleV@Gu@physx@@@01@AEBT__m128@@2_NPEIAE4AEAEAEAUGjkOutput@01@@Z 000000018010d560 f i GuPCMContactBoxConvex.obj
 0001:0010dd60       ??_E?$LocalConvex@VConvexHullNoScaleV@Gu@physx@@@Gu@physx@@UEAAPEAXI@Z 000000018010ed60 f i GuPCMContactBoxConvex.obj
 0001:0010dd60       ??_G?$LocalConvex@VConvexHullNoScaleV@Gu@physx@@@Gu@physx@@UEAAPEAXI@Z 000000018010ed60 f i GuPCMContactBoxConvex.obj
 0001:0010e4d0       ?getCenter@?$LocalConvex@VConvexHullNoScaleV@Gu@physx@@@Gu@physx@@UEBA?AT__m128@@XZ 000000018010f4d0 f i GuPCMContactBoxConvex.obj
 0001:0010e4e0       ?getSweepMargin@?$LocalConvex@VConvexHullNoScaleV@Gu@physx@@@Gu@physx@@UEBA?AT__m128@@XZ 000000018010f4e0 f i GuPCMContactBoxConvex.obj
 0001:0010e500       ?support@?$LocalConvex@VConvexHullNoScaleV@Gu@physx@@@Gu@physx@@UEBA?AT__m128@@AEBT4@@Z 000000018010f500 f i GuPCMContactBoxConvex.obj
 0001:0010e550       ?support@?$LocalConvex@VConvexHullNoScaleV@Gu@physx@@@Gu@physx@@UEBA?AT__m128@@AEBT4@AEAH@Z 000000018010f550 f i GuPCMContactBoxConvex.obj
 0001:0010e5b0       ?supportPoint@?$LocalConvex@VConvexHullNoScaleV@Gu@physx@@@Gu@physx@@UEBA?AT__m128@@H@Z 000000018010f5b0 f i GuPCMContactBoxConvex.obj
 0001:0010e5e0       ?pcmContactCapsuleBox@Gu@physx@@YA_NAEBVGeometryUnion@12@0AEBVPxTransform@2@1AEBUNarrowPhaseParams@12@AEAUCache@12@AEAVContactBuffer@12@PEAVRenderOutput@Cm@2@@Z 000000018010f5e0 f   GuPCMContactCapsuleBox.obj
 0001:0010f750       ?pcmContactCapsuleCapsule@Gu@physx@@YA_NAEBVGeometryUnion@12@0AEBVPxTransform@2@1AEBUNarrowPhaseParams@12@AEAUCache@12@AEAVContactBuffer@12@PEAVRenderOutput@Cm@2@@Z 0000000180110750 f   GuPCMContactCapsuleCapsule.obj
 0001:001100d0       ?pcmContactCapsuleConvex@Gu@physx@@YA_NAEBVGeometryUnion@12@0AEBVPxTransform@2@1AEBUNarrowPhaseParams@12@AEAUCache@12@AEAVContactBuffer@12@PEAVRenderOutput@Cm@2@@Z 00000001801110d0 f   GuPCMContactCapsuleConvex.obj
 0001:00111150       ??$gjkPenetration@U?$LocalConvex@VCapsuleV@Gu@physx@@@Gu@physx@@U?$LocalConvex@VConvexHullNoScaleV@Gu@physx@@@23@@Gu@physx@@YA?AW4GjkStatus@01@AEBU?$LocalConvex@VCapsuleV@Gu@physx@@@01@AEBU?$LocalConvex@VConvexHullNoScaleV@Gu@physx@@@01@AEBT__m128@@2_NPEIAE4AEAEAEAUGjkOutput@01@@Z 0000000180112150 f i GuPCMContactCapsuleConvex.obj
 0001:00112bf0       ?pcmContactCapsuleHeightField@Gu@physx@@YA_NAEBVGeometryUnion@12@0AEBVPxTransform@2@1AEBUNarrowPhaseParams@12@AEAUCache@12@AEAVContactBuffer@12@PEAVRenderOutput@Cm@2@@Z 0000000180113bf0 f   GuPCMContactCapsuleHeightField.obj
 0001:001139b0       ??0PCMContactPatch@Gu@physx@@QEAA@XZ 00000001801149b0 f i GuPCMContactCapsuleHeightField.obj
 0001:001139e0       ??0PCMMeshContactGeneration@Gu@physx@@QEAA@AEBT__m128@@0AEBVPsTransformV@aos@shdfnd@2@1AEAVMultiplePersistentContactManifold@12@AEAVContactBuffer@12@PEAV?$InlineArray@I$0EEA@V?$ReflectionAllocator@I@shdfnd@physx@@@62@PEAVRenderOutput@Cm@2@@Z 00000001801149e0 f i GuPCMContactCapsuleHeightField.obj
 0001:00114350       ??_E?$PCMHeightfieldContactGenerationCallback@UPCMCapsuleVsHeightfieldContactGenerationCallback@physx@@@Gu@physx@@UEAAPEAXI@Z 0000000180115350 f i GuPCMContactCapsuleHeightField.obj
 0001:00114350       ??_G?$PCMHeightfieldContactGenerationCallback@UPCMCapsuleVsHeightfieldContactGenerationCallback@physx@@@Gu@physx@@UEAAPEAXI@Z 0000000180115350 f i GuPCMContactCapsuleHeightField.obj
 0001:00114380       ??_EPCMCapsuleVsHeightfieldContactGenerationCallback@physx@@UEAAPEAXI@Z 0000000180115380 f i GuPCMContactCapsuleHeightField.obj
 0001:00114380       ??_GPCMCapsuleVsHeightfieldContactGenerationCallback@physx@@UEAAPEAXI@Z 0000000180115380 f i GuPCMContactCapsuleHeightField.obj
 0001:001143b0       ?onEvent@?$PCMHeightfieldContactGenerationCallback@UPCMCapsuleVsHeightfieldContactGenerationCallback@physx@@@Gu@physx@@UEAA_NIPEAI@Z 00000001801153b0 f i GuPCMContactCapsuleHeightField.obj
 0001:00114960       ?pcmContactCapsuleMesh@Gu@physx@@YA_NAEBVGeometryUnion@12@0AEBVPxTransform@2@1AEBUNarrowPhaseParams@12@AEAUCache@12@AEAVContactBuffer@12@PEAVRenderOutput@Cm@2@@Z 0000000180115960 f   GuPCMContactCapsuleMesh.obj
 0001:00115970       ??$processTriangleCache@$0BA@@PCMCapsuleVsMeshContactGenerationCallback@physx@@QEAAXAEAU?$TriangleCache@$0BA@@Gu@1@@Z 0000000180116970 f i GuPCMContactCapsuleMesh.obj
 0001:00115a00       ??_E?$PCMMeshContactGenerationCallback@UPCMCapsuleVsMeshContactGenerationCallback@physx@@@Gu@physx@@UEAAPEAXI@Z 0000000180116a00 f i GuPCMContactCapsuleMesh.obj
 0001:00115a00       ??_G?$PCMMeshContactGenerationCallback@UPCMCapsuleVsMeshContactGenerationCallback@physx@@@Gu@physx@@UEAAPEAXI@Z 0000000180116a00 f i GuPCMContactCapsuleMesh.obj
 0001:00115a30       ??_GPCMCapsuleVsMeshContactGenerationCallback@physx@@UEAAPEAXI@Z 0000000180116a30 f i GuPCMContactCapsuleMesh.obj
 0001:00115a30       ??_EPCMCapsuleVsMeshContactGenerationCallback@physx@@UEAAPEAXI@Z 0000000180116a30 f i GuPCMContactCapsuleMesh.obj
 0001:00115a60       ?processHit@?$PCMMeshContactGenerationCallback@UPCMCapsuleVsMeshContactGenerationCallback@physx@@@Gu@physx@@UEAA_NAEBUPxRaycastHit@3@AEBVPxVec3@3@11AEAMPEBI@Z 0000000180116a60 f i GuPCMContactCapsuleMesh.obj
 0001:00115e20       ?generateLastContacts@PCMConvexVsMeshContactGeneration@Gu@physx@@QEAAXXZ 0000000180116e20 f   GuPCMContactConvexCommon.obj
 0001:001163b0       ?addContactsToPatch@PCMConvexVsMeshContactGeneration@Gu@physx@@QEAAXAEBT__m128@@I@Z 00000001801173b0 f   GuPCMContactConvexCommon.obj
 0001:00116d20       ?processTriangle@PCMConvexVsMeshContactGeneration@Gu@physx@@QEAA_NPEBVPxVec3@3@IEPEBI@Z 0000000180117d20 f   GuPCMContactConvexCommon.obj
 0001:001171b0       ?processTriangle@PCMConvexVsMeshContactGeneration@Gu@physx@@SA_NAEBUPolygonalData@23@PEAVSupportLocal@23@PEBVPxVec3@3@IEAEBT__m128@@_NAEBVPsTransformV@aos@shdfnd@3@AEBVPsMatTransformV@9shdfnd@3@PEAVMeshPersistentContact@23@AEAI@Z 00000001801181b0 f   GuPCMContactConvexCommon.obj
 0001:001174a0       ?processTriangle@PCMSphereVsMeshContactGeneration@Gu@physx@@QEAA_NPEBVPxVec3@3@IEPEBI@Z 00000001801184a0 f   GuPCMContactConvexCommon.obj
 0001:00117920       ?generateLastContacts@PCMSphereVsMeshContactGeneration@Gu@physx@@QEAAXXZ 0000000180118920 f   GuPCMContactConvexCommon.obj
 0001:00117dd0       ?addToPatch@PCMSphereVsMeshContactGeneration@Gu@physx@@QEAAXAEBT__m128@@0T4@I@Z 0000000180118dd0 f   GuPCMContactConvexCommon.obj
 0001:00118470       ?generateEEContacts@PCMCapsuleVsMeshContactGeneration@Gu@physx@@QEAAXAEBT__m128@@000I000PEAVMeshPersistentContact@23@AEAI@Z 0000000180119470 f   GuPCMContactConvexCommon.obj
 0001:001185a0       ?generateEE@PCMCapsuleVsMeshContactGeneration@Gu@physx@@QEAAXAEBT__m128@@000I00PEAVMeshPersistentContact@23@AEAI@Z 00000001801195a0 f   GuPCMContactConvexCommon.obj
 0001:00118840       ?generateContacts@PCMCapsuleVsMeshContactGeneration@Gu@physx@@SA_NAEBT__m128@@0000I000PEAVMeshPersistentContact@23@AEAI@Z 0000000180119840 f   GuPCMContactConvexCommon.obj
 0001:00118d70       ?generateEEContactsMTD@PCMCapsuleVsMeshContactGeneration@Gu@physx@@SAXAEBT__m128@@000I000PEAVMeshPersistentContact@23@AEAI@Z 0000000180119d70 f   GuPCMContactConvexCommon.obj
 0001:00118e90       ?generateEEMTD@PCMCapsuleVsMeshContactGeneration@Gu@physx@@SAXAEBT__m128@@000I00PEAVMeshPersistentContact@23@AEAI@Z 0000000180119e90 f   GuPCMContactConvexCommon.obj
 0001:00119100       ?processTriangle@PCMCapsuleVsMeshContactGeneration@Gu@physx@@QEAA_NPEBVPxVec3@3@IEPEBI@Z 000000018011a100 f   GuPCMContactConvexCommon.obj
 0001:00119d50       ?processTriangle@PCMCapsuleVsMeshContactGeneration@Gu@physx@@SA_NAEBVTriangleV@23@IAEBVCapsuleV@23@AEBT__m128@@EPEAVMeshPersistentContact@23@AEAI@Z 000000018011ad50 f   GuPCMContactConvexCommon.obj
 0001:0011a0d0       ?pcmDistanceSegmentTriangleSquared@Gu@physx@@YA?AT__m128@@AEBT3@0000AEAT3@11@Z 000000018011b0d0 f   GuPCMContactConvexCommon.obj
 0001:0011aac0       ??$sort@USortedTriangle@Gu@physx@@U?$Less@USortedTriangle@Gu@physx@@@shdfnd@3@@shdfnd@physx@@YAXPEAUSortedTriangle@Gu@1@IAEBU?$Less@USortedTriangle@Gu@physx@@@01@@Z 000000018011bac0 f i GuPCMContactConvexCommon.obj
 0001:0011aae0       ??$sort@USortedTriangle@Gu@physx@@U?$Less@USortedTriangle@Gu@physx@@@shdfnd@3@V?$ReflectionAllocator@USortedTriangle@Gu@physx@@@53@@shdfnd@physx@@YAXPEAUSortedTriangle@Gu@1@IAEBU?$Less@USortedTriangle@Gu@physx@@@01@AEBV?$ReflectionAllocator@USortedTriangle@Gu@physx@@@01@I@Z 000000018011bae0 f i GuPCMContactConvexCommon.obj
 0001:0011b000       ??_E?$SupportLocalImpl@VTriangleV@Gu@physx@@@Gu@physx@@UEAAPEAXI@Z 000000018011c000 f i GuPCMContactConvexCommon.obj
 0001:0011b000       ??_G?$SupportLocalImpl@VTriangleV@Gu@physx@@@Gu@physx@@UEAAPEAXI@Z 000000018011c000 f i GuPCMContactConvexCommon.obj
 0001:0011b030       ?allocate@?$ReflectionAllocator@USortedTriangle@Gu@physx@@@shdfnd@physx@@QEAAPEAX_KPEBDH@Z 000000018011c030 f i GuPCMContactConvexCommon.obj
 0001:0011b0d0       ?doSupport@?$SupportLocalImpl@VTriangleV@Gu@physx@@@Gu@physx@@UEBA?AT__m128@@AEBT4@@Z 000000018011c0d0 f i GuPCMContactConvexCommon.obj
 0001:0011b160       ?doSupport@?$SupportLocalImpl@VTriangleV@Gu@physx@@@Gu@physx@@UEBAXAEBT__m128@@AEAT4@1@Z 000000018011c160 f i GuPCMContactConvexCommon.obj
 0001:0011b1e0       ?growAndPushBack@?$Array@USortedTriangle@Gu@physx@@V?$InlineAllocator@$0IAA@V?$ReflectionAllocator@USortedTriangle@Gu@physx@@@shdfnd@physx@@@shdfnd@3@@shdfnd@physx@@IEAAAEAUSortedTriangle@Gu@3@AEBU453@@Z 000000018011c1e0 f i GuPCMContactConvexCommon.obj
 0001:0011b860       ?populateVerts@?$SupportLocalImpl@VTriangleV@Gu@physx@@@Gu@physx@@UEBAXPEBEIPEBVPxVec3@3@PEAT__m128@@@Z 000000018011c860 f i GuPCMContactConvexCommon.obj
 0001:0011b8b0       ?pcmContactConvexConvex@Gu@physx@@YA_NAEBVGeometryUnion@12@0AEBVPxTransform@2@1AEBUNarrowPhaseParams@12@AEAUCache@12@AEAVContactBuffer@12@PEAVRenderOutput@Cm@2@@Z 000000018011c8b0 f   GuPCMContactConvexConvex.obj
 0001:0011cad0       ??$gjkPenetration@U?$RelativeConvex@VConvexHullNoScaleV@Gu@physx@@@Gu@physx@@U?$LocalConvex@VConvexHullNoScaleV@Gu@physx@@@23@@Gu@physx@@YA?AW4GjkStatus@01@AEBU?$RelativeConvex@VConvexHullNoScaleV@Gu@physx@@@01@AEBU?$LocalConvex@VConvexHullNoScaleV@Gu@physx@@@01@AEBT__m128@@2_NPEIAE4AEAEAEAUGjkOutput@01@@Z 000000018011dad0 f i GuPCMContactConvexConvex.obj
 0001:0011e2f0       ??$gjkPenetration@U?$RelativeConvex@VConvexHullNoScaleV@Gu@physx@@@Gu@physx@@U?$LocalConvex@VConvexHullV@Gu@physx@@@23@@Gu@physx@@YA?AW4GjkStatus@01@AEBU?$RelativeConvex@VConvexHullNoScaleV@Gu@physx@@@01@AEBU?$LocalConvex@VConvexHullV@Gu@physx@@@01@AEBT__m128@@2_NPEIAE4AEAEAEAUGjkOutput@01@@Z 000000018011f2f0 f i GuPCMContactConvexConvex.obj
 0001:0011fbd0       ??$gjkPenetration@U?$RelativeConvex@VConvexHullV@Gu@physx@@@Gu@physx@@U?$LocalConvex@VConvexHullNoScaleV@Gu@physx@@@23@@Gu@physx@@YA?AW4GjkStatus@01@AEBU?$RelativeConvex@VConvexHullV@Gu@physx@@@01@AEBU?$LocalConvex@VConvexHullNoScaleV@Gu@physx@@@01@AEBT__m128@@2_NPEIAE4AEAEAEAUGjkOutput@01@@Z 0000000180120bd0 f i GuPCMContactConvexConvex.obj
 0001:001214a0       ??_G?$RelativeConvex@VConvexHullNoScaleV@Gu@physx@@@Gu@physx@@UEAAPEAXI@Z 00000001801224a0 f i GuPCMContactConvexConvex.obj
 0001:001214a0       ??_E?$RelativeConvex@VConvexHullNoScaleV@Gu@physx@@@Gu@physx@@UEAAPEAXI@Z 00000001801224a0 f i GuPCMContactConvexConvex.obj
 0001:00121fb0       ?getCenter@?$RelativeConvex@VConvexHullNoScaleV@Gu@physx@@@Gu@physx@@UEBA?AT__m128@@XZ 0000000180122fb0 f i GuPCMContactConvexConvex.obj
 0001:00121ff0       ?getSweepMargin@?$RelativeConvex@VConvexHullNoScaleV@Gu@physx@@@Gu@physx@@UEBA?AT__m128@@XZ 0000000180122ff0 f i GuPCMContactConvexConvex.obj
 0001:00122010       ?support@?$RelativeConvex@VConvexHullNoScaleV@Gu@physx@@@Gu@physx@@UEBA?AT__m128@@AEBT4@@Z 0000000180123010 f i GuPCMContactConvexConvex.obj
 0001:001220c0       ?support@?$RelativeConvex@VConvexHullNoScaleV@Gu@physx@@@Gu@physx@@UEBA?AT__m128@@AEBT4@AEAH@Z 00000001801230c0 f i GuPCMContactConvexConvex.obj
 0001:00122180       ?supportPoint@?$RelativeConvex@VConvexHullNoScaleV@Gu@physx@@@Gu@physx@@UEBA?AT__m128@@H@Z 0000000180123180 f i GuPCMContactConvexConvex.obj
 0001:001221e0       ?pcmContactBoxHeightField@Gu@physx@@YA_NAEBVGeometryUnion@12@0AEBVPxTransform@2@1AEBUNarrowPhaseParams@12@AEAUCache@12@AEAVContactBuffer@12@PEAVRenderOutput@Cm@2@@Z 00000001801231e0 f   GuPCMContactConvexHeightField.obj
 0001:00122490       ?pcmContactConvexHeightField@Gu@physx@@YA_NAEBVGeometryUnion@12@0AEBVPxTransform@2@1AEBUNarrowPhaseParams@12@AEAUCache@12@AEAVContactBuffer@12@PEAVRenderOutput@Cm@2@@Z 0000000180123490 f   GuPCMContactConvexHeightField.obj
 0001:00122b70       ?PCMContactConvexHeightfield@Gu@physx@@YA_NAEBUPolygonalData@12@PEAVSupportLocal@12@AEBT__m128@@AEBVPxBounds3@2@AEBVPxHeightFieldGeometry@2@AEBVPxTransform@2@5MAEAVContactBuffer@12@AEBVFastVertex2ShapeScaling@Cm@2@_NAEAVMultiplePersistentContactManifold@12@PEAVRenderOutput@Cm@2@@Z 0000000180123b70 f   GuPCMContactConvexHeightField.obj
 0001:001236b0       ??_G?$PCMHeightfieldContactGenerationCallback@UPCMConvexVsHeightfieldContactGenerationCallback@physx@@@Gu@physx@@UEAAPEAXI@Z 00000001801246b0 f i GuPCMContactConvexHeightField.obj
 0001:001236b0       ??_E?$PCMHeightfieldContactGenerationCallback@UPCMConvexVsHeightfieldContactGenerationCallback@physx@@@Gu@physx@@UEAAPEAXI@Z 00000001801246b0 f i GuPCMContactConvexHeightField.obj
 0001:001236e0       ??_EPCMConvexVsHeightfieldContactGenerationCallback@physx@@UEAAPEAXI@Z 00000001801246e0 f i GuPCMContactConvexHeightField.obj
 0001:001236e0       ??_GPCMConvexVsHeightfieldContactGenerationCallback@physx@@UEAAPEAXI@Z 00000001801246e0 f i GuPCMContactConvexHeightField.obj
 0001:00123710       ?onEvent@?$PCMHeightfieldContactGenerationCallback@UPCMConvexVsHeightfieldContactGenerationCallback@physx@@@Gu@physx@@UEAA_NIPEAI@Z 0000000180124710 f i GuPCMContactConvexHeightField.obj
 0001:00123cc0       ?pcmContactBoxMesh@Gu@physx@@YA_NAEBVGeometryUnion@12@0AEBVPxTransform@2@1AEBUNarrowPhaseParams@12@AEAUCache@12@AEAVContactBuffer@12@PEAVRenderOutput@Cm@2@@Z 0000000180124cc0 f   GuPCMContactConvexMesh.obj
 0001:00124000       ?pcmContactConvexMesh@Gu@physx@@YA_NAEBVGeometryUnion@12@0AEBVPxTransform@2@1AEBUNarrowPhaseParams@12@AEAUCache@12@AEAVContactBuffer@12@PEAVRenderOutput@Cm@2@@Z 0000000180125000 f   GuPCMContactConvexMesh.obj
 0001:00124740       ?PCMContactConvexMesh@Gu@physx@@YA_NAEBUPolygonalData@12@PEAVSupportLocal@12@AEBT__m128@@AEBVPxBounds3@2@AEBUPxTriangleMeshGeometryLL@2@AEBVPxTransform@2@5MAEAVContactBuffer@12@AEBVFastVertex2ShapeScaling@Cm@2@7_N8AEAVMultiplePersistentContactManifold@12@PEAVRenderOutput@Cm@2@@Z 0000000180125740 f   GuPCMContactConvexMesh.obj
 0001:001253a0       ??$processTriangleCache@$0BA@@PCMConvexVsMeshContactGenerationCallback@physx@@QEAAXAEAU?$TriangleCache@$0BA@@Gu@1@@Z 00000001801263a0 f i GuPCMContactConvexMesh.obj
 0001:00125430       ??_G?$PCMMeshContactGenerationCallback@UPCMConvexVsMeshContactGenerationCallback@physx@@@Gu@physx@@UEAAPEAXI@Z 0000000180126430 f i GuPCMContactConvexMesh.obj
 0001:00125430       ??_E?$PCMMeshContactGenerationCallback@UPCMConvexVsMeshContactGenerationCallback@physx@@@Gu@physx@@UEAAPEAXI@Z 0000000180126430 f i GuPCMContactConvexMesh.obj
 0001:00125460       ??_EPCMConvexVsMeshContactGenerationCallback@physx@@UEAAPEAXI@Z 0000000180126460 f i GuPCMContactConvexMesh.obj
 0001:00125460       ??_GPCMConvexVsMeshContactGenerationCallback@physx@@UEAAPEAXI@Z 0000000180126460 f i GuPCMContactConvexMesh.obj
 0001:00125490       ?processHit@?$PCMMeshContactGenerationCallback@UPCMConvexVsMeshContactGenerationCallback@physx@@@Gu@physx@@UEAA_NAEBUPxRaycastHit@3@AEBVPxVec3@3@11AEAMPEBI@Z 0000000180126490 f i GuPCMContactConvexMesh.obj
 0001:001258c0       ?generateFullContactManifold@Gu@physx@@YA_NAEAUPolygonalData@12@0PEAVSupportLocal@12@1PEAVPersistentContact@12@AEAIAEBT__m128@@444MM_NPEAVRenderOutput@Cm@2@M@Z 00000001801268c0 f   GuPCMContactGenBoxConvex.obj
 0001:00127130       ?addGJKEPAContacts@Gu@physx@@YA_NPEBUGjkConvex@12@0AEBVPsMatTransformV@aos@shdfnd@2@W4GjkStatus@12@PEAVPersistentContact@12@T__m128@@4AEAUGjkOutput@12@AEAVPersistentContactManifold@12@@Z 0000000180128130 f   GuPCMContactGenBoxConvex.obj
 0001:00127370       ?computeMTD@Gu@physx@@YA_NAEAUPolygonalData@12@0PEAVSupportLocal@12@1AEAT__m128@@2@Z 0000000180128370 f   GuPCMContactGenBoxConvex.obj
 0001:00127a60       ?buildPartialHull@Gu@physx@@YAXAEBUPolygonalData@12@PEAVSupportLocal@12@AEAVSeparatingAxes@12@AEBT__m128@@3@Z 0000000180128a60 f   GuPCMContactGenBoxConvex.obj
 0001:00127d20       ?generatedContacts@Gu@physx@@YAXAEAUPolygonalData@12@0AEBUHullPolygonData@12@1PEAVSupportLocal@12@2AEBVPsMatTransformV@aos@shdfnd@2@PEAVPersistentContact@12@AEAIAEBT__m128@@PEAVRenderOutput@Cm@2@@Z 0000000180128d20 f   GuPCMContactGenBoxConvex.obj
 0001:00129590       ?generateFullContactManifold@Gu@physx@@YA_NAEBVCapsuleV@12@AEAUPolygonalData@12@PEAVSupportLocal@12@AEBVPsMatTransformV@aos@shdfnd@2@PEAVPersistentContact@12@AEAIAEBT__m128@@AEAT__m128@@6M_NM@Z 000000018012a590 f   GuPCMContactGenSphereCapsule.obj
 0001:00129e70       ?generateCapsuleBoxFullContactManifold@Gu@physx@@YA_NAEBVCapsuleV@12@AEAUPolygonalData@12@PEAVSupportLocal@12@AEBVPsMatTransformV@aos@shdfnd@2@PEAVPersistentContact@12@AEAIAEBT__m128@@AEAT__m128@@6M_NM@Z 000000018012ae70 f   GuPCMContactGenSphereCapsule.obj
 0001:0012a6e0       ?computeMTD@Gu@physx@@YA_NAEBVCapsuleV@12@AEAUPolygonalData@12@PEAVSupportLocal@12@AEAT__m128@@3@Z 000000018012b6e0 f   GuPCMContactGenSphereCapsule.obj
 0001:0012a810       ?generateSphereFullContactManifold@Gu@physx@@YA_NAEBVCapsuleV@12@AEAUPolygonalData@12@PEAVSupportLocal@12@PEAVPersistentContact@12@AEAIAEBT__m128@@AEAT7@_N@Z 000000018012b810 f   GuPCMContactGenSphereCapsule.obj
 0001:0012acd0       ?generatedCapsuleBoxFaceContacts@Gu@physx@@YAXAEBVCapsuleV@12@AEAUPolygonalData@12@AEBUHullPolygonData@12@PEAVSupportLocal@12@AEBVPsMatTransformV@aos@shdfnd@2@PEAVPersistentContact@12@AEAIAEBT__m128@@7@Z 000000018012bcd0 f   GuPCMContactGenSphereCapsule.obj
 0001:0012b500       ?generatedContactsEEContacts@Gu@physx@@YAXAEBVCapsuleV@12@AEAUPolygonalData@12@AEBUHullPolygonData@12@PEAVSupportLocal@12@AEBVPsMatTransformV@aos@shdfnd@2@PEAVPersistentContact@12@AEAIAEBT__m128@@7@Z 000000018012c500 f   GuPCMContactGenSphereCapsule.obj
 0001:0012c250       ?pcmContactPlaneBox@Gu@physx@@YA_NAEBVGeometryUnion@12@0AEBVPxTransform@2@1AEBUNarrowPhaseParams@12@AEAUCache@12@AEAVContactBuffer@12@PEAVRenderOutput@Cm@2@@Z 000000018012d250 f   GuPCMContactPlaneBox.obj
 0001:0012ce40       ?pcmContactPlaneCapsule@Gu@physx@@YA_NAEBVGeometryUnion@12@0AEBVPxTransform@2@1AEBUNarrowPhaseParams@12@AEAUCache@12@AEAVContactBuffer@12@PEAVRenderOutput@Cm@2@@Z 000000018012de40 f   GuPCMContactPlaneCapsule.obj
 0001:0012d730       ?pcmContactPlaneConvex@Gu@physx@@YA_NAEBVGeometryUnion@12@0AEBVPxTransform@2@1AEBUNarrowPhaseParams@12@AEAUCache@12@AEAVContactBuffer@12@PEAVRenderOutput@Cm@2@@Z 000000018012e730 f   GuPCMContactPlaneConvex.obj
 0001:0012e180       ?pcmContactSphereBox@Gu@physx@@YA_NAEBVGeometryUnion@12@0AEBVPxTransform@2@1AEBUNarrowPhaseParams@12@AEAUCache@12@AEAVContactBuffer@12@PEAVRenderOutput@Cm@2@@Z 000000018012f180 f   GuPCMContactSphereBox.obj
 0001:0012e690       ?pcmContactSphereCapsule@Gu@physx@@YA_NAEBVGeometryUnion@12@0AEBVPxTransform@2@1AEBUNarrowPhaseParams@12@AEAUCache@12@AEAVContactBuffer@12@PEAVRenderOutput@Cm@2@@Z 000000018012f690 f   GuPCMContactSphereCapsule.obj
 0001:0012e940       ?pcmContactSphereConvex@Gu@physx@@YA_NAEBVGeometryUnion@12@0AEBVPxTransform@2@1AEBUNarrowPhaseParams@12@AEAUCache@12@AEAVContactBuffer@12@PEAVRenderOutput@Cm@2@@Z 000000018012f940 f   GuPCMContactSphereConvex.obj
 0001:0012fa00       ?pcmContactSphereHeightField@Gu@physx@@YA_NAEBVGeometryUnion@12@0AEBVPxTransform@2@1AEBUNarrowPhaseParams@12@AEAUCache@12@AEAVContactBuffer@12@PEAVRenderOutput@Cm@2@@Z 0000000180130a00 f   GuPCMContactSphereHeightField.obj
 0001:00130550       ??1PCMSphereVsHeightfieldContactGenerationCallback@physx@@UEAA@XZ 0000000180131550 f i GuPCMContactSphereHeightField.obj
 0001:001305c0       ??_E?$PCMHeightfieldContactGenerationCallback@UPCMSphereVsHeightfieldContactGenerationCallback@physx@@@Gu@physx@@UEAAPEAXI@Z 00000001801315c0 f i GuPCMContactSphereHeightField.obj
 0001:001305c0       ??_G?$PCMHeightfieldContactGenerationCallback@UPCMSphereVsHeightfieldContactGenerationCallback@physx@@@Gu@physx@@UEAAPEAXI@Z 00000001801315c0 f i GuPCMContactSphereHeightField.obj
 0001:001305f0       ??_GPCMSphereVsHeightfieldContactGenerationCallback@physx@@UEAAPEAXI@Z 00000001801315f0 f i GuPCMContactSphereHeightField.obj
 0001:001305f0       ??_EPCMSphereVsHeightfieldContactGenerationCallback@physx@@UEAAPEAXI@Z 00000001801315f0 f i GuPCMContactSphereHeightField.obj
 0001:00130630       ?onEvent@?$PCMHeightfieldContactGenerationCallback@UPCMSphereVsHeightfieldContactGenerationCallback@physx@@@Gu@physx@@UEAA_NIPEAI@Z 0000000180131630 f i GuPCMContactSphereHeightField.obj
 0001:00130be0       ?pcmContactSphereMesh@Gu@physx@@YA_NAEBVGeometryUnion@12@0AEBVPxTransform@2@1AEBUNarrowPhaseParams@12@AEAUCache@12@AEAVContactBuffer@12@PEAVRenderOutput@Cm@2@@Z 0000000180131be0 f   GuPCMContactSphereMesh.obj
 0001:00131870       ??$processTriangleCache@$0BA@@PCMSphereVsMeshContactGenerationCallback@physx@@QEAAXAEAU?$TriangleCache@$0BA@@Gu@1@@Z 0000000180132870 f i GuPCMContactSphereMesh.obj
 0001:00131900       ??1PCMSphereVsMeshContactGenerationCallback@physx@@UEAA@XZ 0000000180132900 f i GuPCMContactSphereMesh.obj
 0001:00131970       ??_E?$PCMMeshContactGenerationCallback@UPCMSphereVsMeshContactGenerationCallback@physx@@@Gu@physx@@UEAAPEAXI@Z 0000000180132970 f i GuPCMContactSphereMesh.obj
 0001:00131970       ??_G?$PCMMeshContactGenerationCallback@UPCMSphereVsMeshContactGenerationCallback@physx@@@Gu@physx@@UEAAPEAXI@Z 0000000180132970 f i GuPCMContactSphereMesh.obj
 0001:001319a0       ??_EPCMSphereVsMeshContactGenerationCallback@physx@@UEAAPEAXI@Z 00000001801329a0 f i GuPCMContactSphereMesh.obj
 0001:001319a0       ??_GPCMSphereVsMeshContactGenerationCallback@physx@@UEAAPEAXI@Z 00000001801329a0 f i GuPCMContactSphereMesh.obj
 0001:001319e0       ?processHit@?$PCMMeshContactGenerationCallback@UPCMSphereVsMeshContactGenerationCallback@physx@@@Gu@physx@@UEAA_NAEBUPxRaycastHit@3@AEBVPxVec3@3@11AEAMPEBI@Z 00000001801329e0 f i GuPCMContactSphereMesh.obj
 0001:00131da0       ?pcmContactSpherePlane@Gu@physx@@YA_NAEBVGeometryUnion@12@0AEBVPxTransform@2@1AEBUNarrowPhaseParams@12@AEAUCache@12@AEAVContactBuffer@12@PEAVRenderOutput@Cm@2@@Z 0000000180132da0 f   GuPCMContactSpherePlane.obj
 0001:00131f90       ?pcmContactSphereSphere@Gu@physx@@YA_NAEBVGeometryUnion@12@0AEBVPxTransform@2@1AEBUNarrowPhaseParams@12@AEAUCache@12@AEAVContactBuffer@12@PEAVRenderOutput@Cm@2@@Z 0000000180132f90 f   GuPCMContactSphereSphere.obj
 0001:001320c0       ??0PCMPolygonalBox@Gu@physx@@QEAA@AEBVPxVec3@2@@Z 00000001801330c0 f   GuPCMShapeConvex.obj
 0001:001322a0       ?getPolygonalData@PCMPolygonalBox@Gu@physx@@QEBAXPEIAUPolygonalData@23@@Z 00000001801332a0 f   GuPCMShapeConvex.obj
 0001:001322f0       ?getPCMConvexData@Gu@physx@@YAXAEBVConvexHullV@12@_NAEAUPolygonalData@12@@Z 00000001801332f0 f   GuPCMShapeConvex.obj
 0001:00132460       ?getPCMConvexData@Gu@physx@@YA_NAEBVGeometryUnion@12@AEAVFastVertex2ShapeScaling@Cm@2@AEAVPxBounds3@2@AEAUPolygonalData@12@@Z 0000000180133460 f   GuPCMShapeConvex.obj
 0001:00132820       ?generateTriangleFullContactManifold@PCMConvexVsMeshContactGeneration@Gu@physx@@QEAA_NAEAVTriangleV@23@IPEBIEAEBUPolygonalData@23@PEAV?$SupportLocalImpl@VTriangleV@Gu@physx@@@23@PEAVSupportLocal@23@PEAVMeshPersistentContact@23@AEAIAEBT__m128@@AEAT9@@Z 0000000180133820 f   GuPCMTriangleContactGen.obj
 0001:00133160       ?generatePolyDataContactManifold@PCMConvexVsMeshContactGeneration@Gu@physx@@QEAA_NAEAVTriangleV@23@IIEPEAVMeshPersistentContact@23@AEAIAEBT__m128@@AEAT6@@Z 0000000180134160 f   GuPCMTriangleContactGen.obj
 0001:001332a0       ?generateTriangleFullContactManifold@PCMConvexVsMeshContactGeneration@Gu@physx@@SA_NAEAVTriangleV@23@IEAEBUPolygonalData@23@PEAV?$SupportLocalImpl@VTriangleV@Gu@physx@@@23@PEAVSupportLocal@23@PEAVMeshPersistentContact@23@AEAIAEBT__m128@@AEAT9@PEAVRenderOutput@Cm@3@@Z 00000001801342a0 f   GuPCMTriangleContactGen.obj
 0001:00135b90       ?findRotationMatrixFromZAxis@Gu@physx@@YA?AUMat33V@aos@shdfnd@2@AEBT__m128@@@Z 0000000180136b90 f   GuPersistentContactManifold.obj
 0001:00135e60       ?replaceManifoldPoint@PersistentContactManifold@Gu@physx@@QEAA_NAEBT__m128@@000@Z 0000000180136e60 f   GuPersistentContactManifold.obj
 0001:00135f30       ?addManifoldPoint@PersistentContactManifold@Gu@physx@@QEAAIAEBT__m128@@000@Z 0000000180136f30 f   GuPersistentContactManifold.obj
 0001:00135ff0       ?addManifoldPoint2@PersistentContactManifold@Gu@physx@@QEAAIAEBT__m128@@000@Z 0000000180136ff0 f   GuPersistentContactManifold.obj
 0001:00136120       ?addBatchManifoldContactsCluster@PersistentContactManifold@Gu@physx@@QEAAXPEBVPersistentContact@23@I@Z 0000000180137120 f   GuPersistentContactManifold.obj
 0001:001361a0       ?addBatchManifoldContacts2@PersistentContactManifold@Gu@physx@@QEAAXPEBVPersistentContact@23@I@Z 00000001801371a0 f   GuPersistentContactManifold.obj
 0001:00136220       ?addBatchManifoldContacts@PersistentContactManifold@Gu@physx@@QEAAXPEBVPersistentContact@23@IM@Z 0000000180137220 f   GuPersistentContactManifold.obj
 0001:001362a0       ?reduceBatchContactsCluster@PersistentContactManifold@Gu@physx@@QEAAXPEBVPersistentContact@23@I@Z 00000001801372a0 f   GuPersistentContactManifold.obj
 0001:00136750       ?reduceBatchContacts2@PersistentContactManifold@Gu@physx@@QEAAXPEBVPersistentContact@23@I@Z 0000000180137750 f   GuPersistentContactManifold.obj
 0001:00136950       ?reduceBatchContacts@PersistentContactManifold@Gu@physx@@QEAAXPEBVPersistentContact@23@IM@Z 0000000180137950 f   GuPersistentContactManifold.obj
 0001:00136e30       ?reduceContactsForPCM@PersistentContactManifold@Gu@physx@@QEAAIAEBT__m128@@00@Z 0000000180137e30 f   GuPersistentContactManifold.obj
 0001:00137410       ?reduceContactSegment@PersistentContactManifold@Gu@physx@@QEAAIAEBT__m128@@00@Z 0000000180138410 f   GuPersistentContactManifold.obj
 0001:001374b0       ?addManifoldContactsToContactBuffer@PersistentContactManifold@Gu@physx@@QEAAXAEAVContactBuffer@23@AEBT__m128@@AEBVPsMatTransformV@aos@shdfnd@3@@Z 00000001801384b0 f   GuPersistentContactManifold.obj
 0001:00137560       ?addManifoldContactsToContactBuffer@PersistentContactManifold@Gu@physx@@QEAAXAEAVContactBuffer@23@AEBT__m128@@AEBVPsTransformV@aos@shdfnd@3@1@Z 0000000180138560 f   GuPersistentContactManifold.obj
 0001:001376e0       ?addManifoldContactsToContactBuffer@PersistentContactManifold@Gu@physx@@QEAAXAEAVContactBuffer@23@AEBT__m128@@1AEBVPsTransformV@aos@shdfnd@3@11@Z 00000001801386e0 f   GuPersistentContactManifold.obj
 0001:001378a0       ?recordWarmStart@PersistentContactManifold@Gu@physx@@QEAAXPEAE0AEAE@Z 00000001801388a0 f   GuPersistentContactManifold.obj
 0001:001378f0       ?setWarmStart@PersistentContactManifold@Gu@physx@@QEAAXPEBE0E@Z 00000001801388f0 f   GuPersistentContactManifold.obj
 0001:00137930       ?drawManifold@PersistentContactManifold@Gu@physx@@QEAAXAEAVRenderOutput@Cm@3@AEBVPsTransformV@aos@shdfnd@3@1@Z 0000000180138930 f   GuPersistentContactManifold.obj
 0001:001379b0       ?drawManifold@PersistentContactManifold@Gu@physx@@QEAAXAEAVRenderOutput@Cm@3@AEBVPsTransformV@aos@shdfnd@3@1AEBT__m128@@@Z 00000001801389b0 f   GuPersistentContactManifold.obj
 0001:00137a50       ?drawManifold@PersistentContactManifold@Gu@physx@@QEAAXAEBVPersistentContact@23@AEAVRenderOutput@Cm@3@AEBVPsTransformV@aos@shdfnd@3@2@Z 0000000180138a50 f   GuPersistentContactManifold.obj
 0001:00137a80       ?drawPoint@PersistentContactManifold@Gu@physx@@SAXAEAVRenderOutput@Cm@3@AEBT__m128@@MI@Z 0000000180138a80 f   GuPersistentContactManifold.obj
 0001:00137c60       ?drawLine@PersistentContactManifold@Gu@physx@@SAXAEAVRenderOutput@Cm@3@AEBT__m128@@1I@Z 0000000180138c60 f   GuPersistentContactManifold.obj
 0001:00137d20       ?drawTriangle@PersistentContactManifold@Gu@physx@@SAXAEAVRenderOutput@Cm@3@AEBT__m128@@11I@Z 0000000180138d20 f   GuPersistentContactManifold.obj
 0001:00137e10       ?drawPolygon@PersistentContactManifold@Gu@physx@@SAXAEAVRenderOutput@Cm@3@AEBVPsTransformV@aos@shdfnd@3@PEAT__m128@@II@Z 0000000180138e10 f   GuPersistentContactManifold.obj
 0001:00138130       ?drawPolygon@PersistentContactManifold@Gu@physx@@SAXAEAVRenderOutput@Cm@3@AEBVPsMatTransformV@aos@shdfnd@3@PEAT__m128@@II@Z 0000000180139130 f   GuPersistentContactManifold.obj
 0001:001382f0       ?reduceBatchContactsConvex@SinglePersistentContactManifold@Gu@physx@@QEAA?AT__m128@@PEBVMeshPersistentContact@23@IAEAUPCMContactPatch@23@@Z 00000001801392f0 f   GuPersistentContactManifold.obj
 0001:001388f0       ?reduceBatchContactsSphere@SinglePersistentContactManifold@Gu@physx@@QEAA?AT__m128@@PEBVMeshPersistentContact@23@IAEAUPCMContactPatch@23@@Z 00000001801398f0 f   GuPersistentContactManifold.obj
 0001:001389c0       ?reduceBatchContactsCapsule@SinglePersistentContactManifold@Gu@physx@@QEAA?AT__m128@@PEBVMeshPersistentContact@23@IAEAUPCMContactPatch@23@@Z 00000001801399c0 f   GuPersistentContactManifold.obj
 0001:00138c60       ?addBatchManifoldContactsConvex@SinglePersistentContactManifold@Gu@physx@@QEAA?AT__m128@@PEBVMeshPersistentContact@23@IAEAUPCMContactPatch@23@AEBT4@@Z 0000000180139c60 f   GuPersistentContactManifold.obj
 0001:00138d30       ?addBatchManifoldContactsSphere@SinglePersistentContactManifold@Gu@physx@@QEAA?AT__m128@@PEBVMeshPersistentContact@23@IAEAUPCMContactPatch@23@AEBT4@@Z 0000000180139d30 f   GuPersistentContactManifold.obj
 0001:00138e10       ?addBatchManifoldContactsCapsule@SinglePersistentContactManifold@Gu@physx@@QEAA?AT__m128@@PEBVMeshPersistentContact@23@IAEAUPCMContactPatch@23@AEBT4@@Z 0000000180139e10 f   GuPersistentContactManifold.obj
 0001:00138ee0       ?reduceContacts@SinglePersistentContactManifold@Gu@physx@@SAIPEAVMeshPersistentContact@23@I@Z 0000000180139ee0 f   GuPersistentContactManifold.obj
 0001:00139400       ?refreshContactPoints@SinglePersistentContactManifold@Gu@physx@@QEAA?AT__m128@@AEBVPsMatTransformV@aos@shdfnd@3@AEBT4@1@Z 000000018013a400 f   GuPersistentContactManifold.obj
 0001:00139550       ?drawManifold@SinglePersistentContactManifold@Gu@physx@@QEAAXAEAVRenderOutput@Cm@3@AEBVPsTransformV@aos@shdfnd@3@1@Z 000000018013a550 f   GuPersistentContactManifold.obj
 0001:001395e0       ?addManifoldContactPoints@MultiplePersistentContactManifold@Gu@physx@@QEAAXPEAVMeshPersistentContact@23@IPEAPEAUPCMContactPatch@23@IAEBT__m128@@2E@Z 000000018013a5e0 f   GuPersistentContactManifold.obj
 0001:00139a20       ?addManifoldContactsToContactBuffer@MultiplePersistentContactManifold@Gu@physx@@QEAA_NAEAVContactBuffer@23@AEBVPsTransformV@aos@shdfnd@3@@Z 000000018013aa20 f   GuPersistentContactManifold.obj
 0001:00139d00       ?addManifoldContactsToContactBuffer@MultiplePersistentContactManifold@Gu@physx@@QEAA_NAEAVContactBuffer@23@AEBVPsTransformV@aos@shdfnd@3@1AEBT__m128@@@Z 000000018013ad00 f   GuPersistentContactManifold.obj
 0001:0013a030       ?drawManifold@MultiplePersistentContactManifold@Gu@physx@@QEAAXAEAVRenderOutput@Cm@3@AEBVPsTransformV@aos@shdfnd@3@1@Z 000000018013b030 f   GuPersistentContactManifold.obj
 0001:0013a0f0       ?fromBuffer@MultiplePersistentContactManifold@Gu@physx@@QEAAXPEIAE@Z 000000018013b0f0 f   GuPersistentContactManifold.obj
 0001:0013a260       ?drawLine@MultiplePersistentContactManifold@Gu@physx@@SAXAEAVRenderOutput@Cm@3@AEBT__m128@@1I@Z 000000018013b260 f   GuPersistentContactManifold.obj
 0001:0013a320       ?drawLine@MultiplePersistentContactManifold@Gu@physx@@SAXAEAVRenderOutput@Cm@3@VPxVec3@3@1I@Z 000000018013b320 f   GuPersistentContactManifold.obj
 0001:0013a3e0       ?drawPoint@MultiplePersistentContactManifold@Gu@physx@@SAXAEAVRenderOutput@Cm@3@AEBT__m128@@MI@Z 000000018013b3e0 f   GuPersistentContactManifold.obj
 0001:0013a5c0       ?drawPolygon@MultiplePersistentContactManifold@Gu@physx@@SAXAEAVRenderOutput@Cm@3@AEBVPsTransformV@aos@shdfnd@3@PEAT__m128@@II@Z 000000018013b5c0 f   GuPersistentContactManifold.obj
 0001:0013a8e0       ?addManifoldPoint@Gu@physx@@YAXPEAVPersistentContact@12@AEAVPersistentContactManifold@12@AEAUGjkOutput@12@AEBVPsMatTransformV@aos@shdfnd@2@T__m128@@@Z 000000018013b8e0 f   GuPersistentContactManifold.obj
 0001:0013be60       ?sweepBoxBox@Gu@physx@@YA_NAEBVBox@12@0AEBVPxVec3@2@MV?$PxFlags@W4Enum@PxHitFlag@physx@@G@2@AEAUPxSweepHit@2@@Z 000000018013ce60 f   GuSweepBoxBox.obj
 0001:0013d4b0       ?sweepBoxSphere@Gu@physx@@YA_NAEBVBox@12@MAEBVPxVec3@2@1MAEAMAEAV42@V?$PxFlags@W4Enum@PxHitFlag@physx@@G@2@@Z 000000018013e4b0 f   GuSweepBoxSphere.obj
 0001:0013df70       ?sweepBoxTriangle@Gu@physx@@YA_NAEBVPxTriangle@2@AEBVPxBounds3@2@AEBVPxVec3@2@2AEAV52@3AEAM_N@Z 000000018013ef70 f   GuSweepBoxTriangle_FeatureBased.obj
 0001:0013f7d0       ?triBoxSweepTestBoxSpace@Gu@physx@@YAHAEBVPxTriangle@2@AEBVPxVec3@2@11MAEAM_N@Z 00000001801407d0 f   GuSweepBoxTriangle_SAT.obj
 0001:001400e0       ?sweepCapsuleBox@Gu@physx@@YA_NAEBVCapsule@12@AEBVPxTransform@2@AEBVPxVec3@2@2MAEAV52@AEAM3V?$PxFlags@W4Enum@PxHitFlag@physx@@G@2@@Z 00000001801410e0 f   GuSweepCapsuleBox.obj
 0001:00140450       ??0PxTriangle@physx@@QEAA@XZ 0000000180141450 f i GuSweepCapsuleBox.obj
 0001:00140460       ??1PxTriangle@physx@@QEAA@XZ 0000000180141460 f i GuSweepCapsuleBox.obj
 0001:001415e0       ?sweepCapsuleCapsule@Gu@physx@@YA_NAEBVCapsule@12@0AEBVPxVec3@2@MAEAMAEAV42@3IAEAG@Z 00000001801425e0 f   GuSweepCapsuleCapsule.obj
 0001:001423b0       ??0Capsule@Gu@physx@@QEAA@XZ 00000001801433b0 f i GuSweepCapsuleCapsule.obj
 0001:001423c0       ??1Capsule@Gu@physx@@QEAA@XZ 00000001801433c0 f i GuSweepCapsuleCapsule.obj
 0001:001423d0       ?distancePointSegmentSquared@Gu@physx@@YAMAEBVSegment@12@AEBVPxVec3@2@PEAM@Z 00000001801433d0 f i GuSweepCapsuleCapsule.obj
 0001:00142750       ?sweepCapsuleTriangles_Precise@Gu@physx@@YA_NIPEIBVPxTriangle@2@AEBVCapsule@12@AEBVPxVec3@2@MPEIBIAEAUPxSweepHit@2@AEAV52@V?$PxFlags@W4Enum@PxHitFlag@physx@@G@2@_NPEBVBoxPadded@12@@Z 0000000180143750 f   GuSweepCapsuleTriangle.obj
 0001:00144890       ?sweepSphereCapsule@Gu@physx@@YA_NAEBVSphere@12@AEBVCapsule@12@AEBVPxVec3@2@MAEAMAEAV52@4V?$PxFlags@W4Enum@PxHitFlag@physx@@G@2@@Z 0000000180145890 f   GuSweepSphereCapsule.obj
 0001:00144f50       ?sweepSphereSphere@Gu@physx@@YA_NAEBVPxVec3@2@M0M0AEAMAEAV32@@Z 0000000180145f50 f   GuSweepSphereSphere.obj
 0001:001451d0       ?sweepSphereVSTri@Gu@physx@@YA_NPEIBVPxVec3@2@AEBV32@1M1AEAMAEA_N_N@Z 00000001801461d0 f   GuSweepSphereTriangle.obj
 0001:001460c0       ?sweepSphereVSQuad@Gu@physx@@YA_NPEIBVPxVec3@2@AEBV32@1M1AEAM@Z 00000001801470c0 f   GuSweepSphereTriangle.obj
 0001:00147550       ?sweepSphereTriangles@Gu@physx@@YA_NIPEIBVPxTriangle@2@AEBVPxVec3@2@M1MPEIBIAEAUPxSweepHit@2@AEAV42@_N555@Z 0000000180148550 f   GuSweepSphereTriangle.obj
 0001:00147df0       ?computeSphereTriImpactData@Gu@physx@@YAXAEAVPxVec3@2@0AEBV32@1MAEBVPxTriangle@2@@Z 0000000180148df0 f   GuSweepTriangleUtils.obj
 0001:00148090       ?computeBoxTriImpactData@Gu@physx@@YAXAEAVPxVec3@2@0AEBV32@1AEBVPxTriangle@2@M@Z 0000000180149090 f   GuSweepTriangleUtils.obj
 0001:00148320       ?computeEdgeEdgeNormal@Gu@physx@@YAXAEAVPxVec3@2@AEBV32@1111M@Z 0000000180149320 f   GuSweepTriangleUtils.obj
 0001:001485e0       ??$gjk@U?$LocalConvex@VTriangleV@Gu@physx@@@Gu@physx@@U?$LocalConvex@VBoxV@Gu@physx@@@23@@Gu@physx@@YA?AW4GjkStatus@01@AEBU?$LocalConvex@VTriangleV@Gu@physx@@@01@AEBU?$LocalConvex@VBoxV@Gu@physx@@@01@AEBT__m128@@2AEAT5@333@Z 00000001801495e0 f i GuSweepTriangleUtils.obj
 0001:00149679       __imp_load_PxGetFoundation 000000018014a679 f   PhysXFoundation_64:PhysXFoundation_64.dll
 0001:00149685       PxGetFoundation            000000018014a685 f   PhysXFoundation_64:PhysXFoundation_64.dll
 0001:0014968b       __tailMerge_physxfoundation_64_dll 000000018014a68b     PhysXFoundation_64:PhysXFoundation_64.dll
 0001:00149704       __imp_load_?getAllocator@shdfnd@physx@@YAAEAVPxAllocatorCallback@2@XZ 000000018014a704 f   PhysXFoundation_64:PhysXFoundation_64.dll
 0001:00149710       ?getAllocator@shdfnd@physx@@YAAEAVPxAllocatorCallback@2@XZ 000000018014a710 f   PhysXFoundation_64:PhysXFoundation_64.dll
 0001:00149716       __imp_load_?getInstance@Foundation@shdfnd@physx@@SAAEAV123@XZ 000000018014a716 f   PhysXFoundation_64:PhysXFoundation_64.dll
 0001:00149722       ?getInstance@Foundation@shdfnd@physx@@SAAEAV123@XZ 000000018014a722 f   PhysXFoundation_64:PhysXFoundation_64.dll
 0001:00149728       __imp_load_?error@Foundation@shdfnd@physx@@QEAAXW4Enum@PxErrorCode@3@PEBDH1ZZ 000000018014a728 f   PhysXFoundation_64:PhysXFoundation_64.dll
 0001:00149734       ?error@Foundation@shdfnd@physx@@QEAAXW4Enum@PxErrorCode@3@PEBDH1ZZ 000000018014a734 f   PhysXFoundation_64:PhysXFoundation_64.dll
 0001:0014973a       __imp_load_?PxShortestRotation@physx@@YA?AVPxQuat@1@AEBVPxVec3@1@0@Z 000000018014a73a f   PhysXFoundation_64:PhysXFoundation_64.dll
 0001:00149746       ?PxShortestRotation@physx@@YA?AVPxQuat@1@AEBVPxVec3@1@0@Z 000000018014a746 f   PhysXFoundation_64:PhysXFoundation_64.dll
 0001:0014974c       __imp_load_?vsnprintf@shdfnd@physx@@YAHPEAD_KPEBD0@Z 000000018014a74c f   PhysXFoundation_64:PhysXFoundation_64.dll
 0001:00149758       ?vsnprintf@shdfnd@physx@@YAHPEAD_KPEBD0@Z 000000018014a758 f   PhysXFoundation_64:PhysXFoundation_64.dll
 0001:0014975e       __imp_load_??0MutexImpl@shdfnd@physx@@QEAA@XZ 000000018014a75e f   PhysXFoundation_64:PhysXFoundation_64.dll
 0001:0014976a       ??0MutexImpl@shdfnd@physx@@QEAA@XZ 000000018014a76a f   PhysXFoundation_64:PhysXFoundation_64.dll
 0001:00149770       __imp_load_??1MutexImpl@shdfnd@physx@@QEAA@XZ 000000018014a770 f   PhysXFoundation_64:PhysXFoundation_64.dll
 0001:0014977c       ??1MutexImpl@shdfnd@physx@@QEAA@XZ 000000018014a77c f   PhysXFoundation_64:PhysXFoundation_64.dll
 0001:00149782       __imp_load_?lock@MutexImpl@shdfnd@physx@@QEAAXXZ 000000018014a782 f   PhysXFoundation_64:PhysXFoundation_64.dll
 0001:0014978e       ?lock@MutexImpl@shdfnd@physx@@QEAAXXZ 000000018014a78e f   PhysXFoundation_64:PhysXFoundation_64.dll
 0001:00149794       __imp_load_?unlock@MutexImpl@shdfnd@physx@@QEAAXXZ 000000018014a794 f   PhysXFoundation_64:PhysXFoundation_64.dll
 0001:001497a0       ?unlock@MutexImpl@shdfnd@physx@@QEAAXXZ 000000018014a7a0 f   PhysXFoundation_64:PhysXFoundation_64.dll
 0001:001497a6       __imp_load_?getSize@MutexImpl@shdfnd@physx@@SAIXZ 000000018014a7a6 f   PhysXFoundation_64:PhysXFoundation_64.dll
 0001:001497b2       ?getSize@MutexImpl@shdfnd@physx@@SAIXZ 000000018014a7b2 f   PhysXFoundation_64:PhysXFoundation_64.dll
 0001:001497b8       __imp_load_?atomicDecrement@shdfnd@physx@@YAHPECH@Z 000000018014a7b8 f   PhysXFoundation_64:PhysXFoundation_64.dll
 0001:001497c4       ?atomicDecrement@shdfnd@physx@@YAHPECH@Z 000000018014a7c4 f   PhysXFoundation_64:PhysXFoundation_64.dll
 0001:001497ca       __imp_load_?optimizeBoundingBox@shdfnd@physx@@YA?AVPxVec3@2@AEAVPxMat33@2@@Z 000000018014a7ca f   PhysXFoundation_64:PhysXFoundation_64.dll
 0001:001497d6       ?optimizeBoundingBox@shdfnd@physx@@YA?AVPxVec3@2@AEAVPxMat33@2@@Z 000000018014a7d6 f   PhysXFoundation_64:PhysXFoundation_64.dll
 0001:001497dc       __imp_load_?allocate@TempAllocator@shdfnd@physx@@QEAAPEAX_KPEBDH@Z 000000018014a7dc f   PhysXFoundation_64:PhysXFoundation_64.dll
 0001:001497e8       ?allocate@TempAllocator@shdfnd@physx@@QEAAPEAX_KPEBDH@Z 000000018014a7e8 f   PhysXFoundation_64:PhysXFoundation_64.dll
 0001:001497ee       __imp_load_?deallocate@TempAllocator@shdfnd@physx@@QEAAXPEAX@Z 000000018014a7ee f   PhysXFoundation_64:PhysXFoundation_64.dll
 0001:001497fa       ?deallocate@TempAllocator@shdfnd@physx@@QEAAXPEAX@Z 000000018014a7fa f   PhysXFoundation_64:PhysXFoundation_64.dll
 0001:00149800       __imp_load_?atomicIncrement@shdfnd@physx@@YAHPECH@Z 000000018014a800 f   PhysXFoundation_64:PhysXFoundation_64.dll
 0001:0014980c       ?atomicIncrement@shdfnd@physx@@YAHPECH@Z 000000018014a80c f   PhysXFoundation_64:PhysXFoundation_64.dll
 0001:00149812       FreeLibrary                000000018014a812 f   kernel32:KERNEL32.dll
 0001:00149818       GetProcAddress             000000018014a818 f   kernel32:KERNEL32.dll
 0001:0014981e       LoadLibraryA               000000018014a81e f   kernel32:KERNEL32.dll
 0001:00149824       ??$PFromRva@PEAP6A_JXZ@@YAPEAP6A_JXZK@Z 000000018014a824 f i Delayimp:delayhlp.obj
 0001:00149834       ??$PFromRva@PEAPEAUHINSTANCE__@@@@YAPEAPEAUHINSTANCE__@@K@Z 000000018014a834 f i Delayimp:delayhlp.obj
 0001:00149844       ??$PFromRva@PEAU_IMAGE_IMPORT_BY_NAME@@@@YAPEAU_IMAGE_IMPORT_BY_NAME@@K@Z 000000018014a844 f i Delayimp:delayhlp.obj
 0001:00149854       ??$PFromRva@PEAU_IMAGE_THUNK_DATA64@@@@YAPEAU_IMAGE_THUNK_DATA64@@K@Z 000000018014a854 f i Delayimp:delayhlp.obj
 0001:00149864       ??$PFromRva@PEBD@@YAPEBDK@Z 000000018014a864 f i Delayimp:delayhlp.obj
 0001:00149874       ??$PFromRva@PEBUImgDelayDescr@@@@YAPEBUImgDelayDescr@@K@Z 000000018014a874 f i Delayimp:delayhlp.obj
 0001:00149884       ??$PFromRva@PEBU_IMAGE_THUNK_DATA64@@@@YAPEBU_IMAGE_THUNK_DATA64@@K@Z 000000018014a884 f i Delayimp:delayhlp.obj
 0001:00149894       ?CountOfImports@@YAIPEBU_IMAGE_THUNK_DATA64@@@Z 000000018014a894 f i Delayimp:delayhlp.obj
 0001:001498a8       ?DloadAcquireSectionWriteAccess@@YAXXZ 000000018014a8a8 f i Delayimp:delayhlp.obj
 0001:00149954       ?DloadGetSRWLockFunctionPointers@@YAEXZ 000000018014a954 f i Delayimp:delayhlp.obj
 0001:001499f0       ?DloadLock@@YAXXZ          000000018014a9f0 f i Delayimp:delayhlp.obj
 0001:00149a38       ?DloadMakePermanentImageCommit@@YAXPEAX_K@Z 000000018014aa38 f i Delayimp:delayhlp.obj
 0001:00149ad0       ?DloadObtainSection@@YAPEAXPEAK0@Z 000000018014aad0 f i Delayimp:delayhlp.obj
 0001:00149b6c       ?DloadProtectSection@@YAXKPEAK@Z 000000018014ab6c f i Delayimp:delayhlp.obj
 0001:00149bfc       ?DloadReleaseSectionWriteAccess@@YAXXZ 000000018014abfc f i Delayimp:delayhlp.obj
 0001:00149c90       ?DloadUnlock@@YAXXZ        000000018014ac90 f i Delayimp:delayhlp.obj
 0001:00149cd0       ?IndexFromPImgThunkData@@YAIPEBU_IMAGE_THUNK_DATA64@@0@Z 000000018014acd0 f i Delayimp:delayhlp.obj
 0001:00149e18       HRESULT_FROM_WIN32         000000018014ae18 f i Delayimp:delayhlp.obj
 0001:00149e28       ReadAcquire64              000000018014ae28 f i Delayimp:delayhlp.obj
 0001:00149e2c       ReadPointerAcquire         000000018014ae2c f i Delayimp:delayhlp.obj
 0001:00149e30       WritePointerRelease        000000018014ae30 f i Delayimp:delayhlp.obj
 0001:00149e34       WriteRelease64             000000018014ae34 f i Delayimp:delayhlp.obj
 0001:00149e38       __FUnloadDelayLoadedDLL2   000000018014ae38 f   Delayimp:delayhlp.obj
 0001:00149ef4       __HrLoadAllImportsForDll   000000018014aef4 f   Delayimp:delayhlp.obj
 0001:00149f68       __delayLoadHelper2         000000018014af68 f   Delayimp:delayhlp.obj
 0001:0014a228       ??3@YAXPEAX_K@Z            000000018014b228 f   LIBCMT:delete_scalar_size.obj
 0001:0014a230       ??_V@YAXPEAX_K@Z           000000018014b230 f   LIBCMT:delete_array_size.obj
 0001:0014a238       ?__scrt_initialize_type_info@@YAXXZ 000000018014b238 f   LIBCMT:tncleanup.obj
 0001:0014a248       ?__scrt_uninitialize_type_info@@YAXXZ 000000018014b248 f   LIBCMT:tncleanup.obj
 0001:0014a254       ??1type_info@@UEAA@XZ      000000018014b254 f   LIBCMT:std_type_info_static.obj
 0001:0014a260       ??_Etype_info@@UEAAPEAXI@Z 000000018014b260 f i LIBCMT:std_type_info_static.obj
 0001:0014a260       ??_Gtype_info@@UEAAPEAXI@Z 000000018014b260 f i LIBCMT:std_type_info_static.obj
 0001:0014a2a0       _alloca_probe              000000018014b2a0 f   LIBCMT:chkstk.obj
 0001:0014a2a0       __chkstk                   000000018014b2a0 f   LIBCMT:chkstk.obj
 0001:0014a300       __vdecl_sinf4              000000018014b300 f   LIBCMT:svml_ssinf4_dispatch.obj
 0001:0014a310       __libm_sse2_sincosf_       000000018014b310 f   LIBCMT:svml_ssinf4_dispatch.obj
 0001:0014a356       __libm_sse2_sincosf4_      000000018014b356 f   LIBCMT:svml_ssinf4_dispatch.obj
 0001:0014a368       ??3@YAXPEAX@Z              000000018014b368 f   LIBCMT:delete_scalar.obj
 0001:0014a370       ??_V@YAXPEAX@Z             000000018014b370 f   LIBCMT:delete_array.obj
 0001:0014a6c4       _CRT_INIT                  000000018014b6c4 f   LIBCMT:dll_dllmain.obj
 0001:0014a6cc       _DllMainCRTStartup         000000018014b6cc f   LIBCMT:dll_dllmain.obj
 0001:0014a70c       _guard_check_icall_nop     000000018014b70c f i LIBCMT:guard_support.obj
 0001:0014a710       ReadNoFence64              000000018014b710 f i LIBCMT:guard_support.obj
 0001:0014a714       ReadPointerNoFence         000000018014b714 f i LIBCMT:guard_support.obj
 0001:0014a718       _guard_icall_checks_enforced 000000018014b718 f i LIBCMT:guard_support.obj
 0001:0014a730       _guard_rf_checks_enforced  000000018014b730 f i LIBCMT:guard_support.obj
 0001:0014a740       __sse2_sinf4               000000018014b740 f   LIBCMT:svml_ssinf4_sse2.obj
 0001:0014b06c       __security_init_cookie     000000018014c06c f   LIBCMT:gs_support.obj
 0001:0014b118       DllMain                    000000018014c118 f   LIBCMT:dll_dllmain_stub.obj
 0001:0014b120       __local_stdio_printf_options 000000018014c120 f i LIBCMT:default_local_stdio_options.obj
 0001:0014b128       __local_stdio_scanf_options 000000018014c128 f i LIBCMT:default_local_stdio_options.obj
 0001:0014b130       __scrt_initialize_default_local_stdio_options 000000018014c130 f   LIBCMT:default_local_stdio_options.obj
 0001:0014b14c       ??$__crt_fast_decode_pointer@PEAP6AXXZ@@YAPEAP6AXXZQEAP6AXXZ@Z 000000018014c14c f i LIBCMT:utility.obj
 0001:0014b164       ??$__crt_fast_encode_pointer@PEAP6AXXZ@@YAPEAP6AXXZQEAP6AXXZ@Z 000000018014c164 f i LIBCMT:utility.obj
 0001:0014b184       ?__crt_rotate_pointer_value@@YA_K_KH@Z 000000018014c184 f i LIBCMT:utility.obj
 0001:0014b190       ?configure_argv@__scrt_narrow_argv_policy@@SAHXZ 000000018014c190 f i LIBCMT:utility.obj
 0001:0014b1f0       ?initialize_environment@__scrt_narrow_environment_policy@@SAHXZ 000000018014c1f0 f i LIBCMT:utility.obj
 0001:0014b228       NtCurrentTeb               000000018014c228 f i LIBCMT:utility.obj
 0001:0014b234       __scrt_acquire_startup_lock 000000018014c234 f   LIBCMT:utility.obj
 0001:0014b270       __scrt_dllmain_after_initialize_c 000000018014c270 f   LIBCMT:utility.obj
 0001:0014b2a4       __scrt_dllmain_before_initialize_c 000000018014c2a4 f   LIBCMT:utility.obj
 0001:0014b2bc       __scrt_dllmain_crt_thread_attach 000000018014c2bc f   LIBCMT:utility.obj
 0001:0014b2e4       __scrt_dllmain_crt_thread_detach 000000018014c2e4 f   LIBCMT:utility.obj
 0001:0014b2fc       __scrt_dllmain_exception_filter 000000018014c2fc f   LIBCMT:utility.obj
 0001:0014b35c       __scrt_dllmain_uninitialize_c 000000018014c35c f   LIBCMT:utility.obj
 0001:0014b38c       __scrt_dllmain_uninitialize_critical 000000018014c38c f   LIBCMT:utility.obj
 0001:0014b3a0       __scrt_initialize_crt      000000018014c3a0 f   LIBCMT:utility.obj
 0001:0014b3ec       __scrt_initialize_onexit_tables 000000018014c3ec f   LIBCMT:utility.obj
 0001:0014b4c4       __scrt_is_nonwritable_in_current_image 000000018014c4c4 f   LIBCMT:utility.obj
 0001:0014b560       __scrt_release_startup_lock 000000018014c560 f   LIBCMT:utility.obj
 0001:0014b584       __scrt_uninitialize_crt    000000018014c584 f   LIBCMT:utility.obj
 0001:0014b5b0       _onexit                    000000018014c5b0 f   LIBCMT:utility.obj
 0001:0014b600       at_quick_exit              000000018014c600 f   LIBCMT:utility.obj
 0001:0014b638       atexit                     000000018014c638 f   LIBCMT:utility.obj
 0001:0014b650       __scrt_get_dyn_tls_init_callback 000000018014c650 f   LIBCMT:dyn_tls_init.obj
 0001:0014b658       __crt_debugger_hook        000000018014c658 f   LIBCMT:utility_desktop.obj
 0001:0014b660       __scrt_fastfail            000000018014c660 f   LIBCMT:utility_desktop.obj
 0001:0014b7ac       __scrt_get_show_window_mode 000000018014c7ac f   LIBCMT:utility_desktop.obj
 0001:0014b7e8       __scrt_initialize_mta      000000018014c7e8 f   LIBCMT:utility_desktop.obj
 0001:0014b7f0       __scrt_initialize_winrt    000000018014c7f0 f   LIBCMT:utility_desktop.obj
 0001:0014b7f4       __scrt_is_managed_app      000000018014c7f4 f   LIBCMT:utility_desktop.obj
 0001:0014b848       __scrt_set_unhandled_exception_filter 000000018014c848 f   LIBCMT:utility_desktop.obj
 0001:0014b858       __scrt_stub_for_initialize_mta 000000018014c858 f   LIBCMT:utility_desktop.obj
 0001:0014b858       __scrt_exe_initialize_mta  000000018014c858 f   LIBCMT:utility_desktop.obj
 0001:0014b85c       __scrt_unhandled_exception_filter 000000018014c85c f   LIBCMT:utility_desktop.obj
 0001:0014b894       _RTC_Initialize            000000018014c894 f   LIBCMT:initsect.obj
 0001:0014b8d0       _RTC_Terminate             000000018014c8d0 f   LIBCMT:initsect.obj
 0001:0014b910       __isa_available_init       000000018014c910 f   LIBCMT:cpu_disp.obj
 0001:0014ba8c       _get_startup_argv_mode     000000018014ca8c f   LIBCMT:argv_mode.obj
 0001:0014ba94       __scrt_is_ucrt_dll_in_use  000000018014ca94 f   LIBCMT:ucrt_detection.obj
 0001:0014baa0       ??$__crt_fast_decode_pointer@P6AXXZ@@YAP6AXXZQ6AXXZ@Z 000000018014caa0 f i libvcruntime:purevirt.obj
 0001:0014bab8       ??$__crt_fast_encode_pointer@P6AXXZ@@YAP6AXXZQ6AXXZ@Z 000000018014cab8 f i libvcruntime:purevirt.obj
 0001:0014bad8       ??$__crt_interlocked_exchange_pointer@$$A6AXXZP6AXXZ@@YAP6AXXZPEDS6AXXZQ6AXXZ@Z 000000018014cad8 f i libvcruntime:purevirt.obj
 0001:0014bae0       ??$__crt_interlocked_read_pointer@$$A6AXXZ@@YAP6AXXZPEDS6AXXZ@Z 000000018014cae0 f i libvcruntime:purevirt.obj
 0001:0014bae4       ?__crt_interlocked_read_64@@YA_JPED_J@Z 000000018014cae4 f i libvcruntime:purevirt.obj
 0001:0014bae8       _get_purecall_handler      000000018014cae8 f   libvcruntime:purevirt.obj
 0001:0014bb04       _purecall                  000000018014cb04 f   libvcruntime:purevirt.obj
 0001:0014bb34       _set_purecall_handler      000000018014cb34 f   libvcruntime:purevirt.obj
 0001:0014bb7c       ??$?RD@__crt_internal_free_policy@@QEBAXQEBD@Z 000000018014cb7c f i libvcruntime:std_type_info.obj
 0001:0014bb84       ??$?RX@__crt_internal_free_policy@@QEBAXQEBX@Z 000000018014cb84 f i libvcruntime:std_type_info.obj
 0001:0014bb8c       ??$__crt_interlocked_compare_exchange_pointer@$$CBDPEAD$$T@@YAPEBDPEDSEBDQEAD$$T@Z 000000018014cb8c f i libvcruntime:std_type_info.obj
 0001:0014bb98       ??$__crt_interlocked_read_pointer@$$CBD@@YAPEBDPEDSEBD@Z 000000018014cb98 f i libvcruntime:std_type_info.obj
 0001:0014bb9c       ??0?$__crt_unique_heap_ptr@DU__crt_internal_free_policy@@@@QEAA@QEAD@Z 000000018014cb9c f i libvcruntime:std_type_info.obj
 0001:0014bba4       ??0?$__crt_unique_heap_ptr@XU__crt_internal_free_policy@@@@QEAA@QEAX@Z 000000018014cba4 f i libvcruntime:std_type_info.obj
 0001:0014bbac       ??1?$__crt_unique_heap_ptr@DU__crt_internal_free_policy@@@@QEAA@XZ 000000018014cbac f i libvcruntime:std_type_info.obj
 0001:0014bbc8       ??1?$__crt_unique_heap_ptr@XU__crt_internal_free_policy@@@@QEAA@XZ 000000018014cbc8 f i libvcruntime:std_type_info.obj
 0001:0014bbf4       ??B?$__crt_unique_heap_ptr@DU__crt_internal_free_policy@@@@QEBA_NXZ 000000018014cbf4 f i libvcruntime:std_type_info.obj
 0001:0014bbfc       ??B?$__crt_unique_heap_ptr@XU__crt_internal_free_policy@@@@QEBA_NXZ 000000018014cbfc f i libvcruntime:std_type_info.obj
 0001:0014bc14       ?detach@?$__crt_unique_heap_ptr@XU__crt_internal_free_policy@@@@QEAAPEAXXZ 000000018014cc14 f i libvcruntime:std_type_info.obj
 0001:0014bc1c       ?get@?$__crt_unique_heap_ptr@DU__crt_internal_free_policy@@@@QEBAPEADXZ 000000018014cc1c f i libvcruntime:std_type_info.obj
 0001:0014bc20       ?get@?$__crt_unique_heap_ptr@XU__crt_internal_free_policy@@@@QEBAPEAXXZ 000000018014cc20 f i libvcruntime:std_type_info.obj
 0001:0014bc24       ?is_valid@?$__crt_unique_heap_ptr@DU__crt_internal_free_policy@@@@QEBA_NXZ 000000018014cc24 f i libvcruntime:std_type_info.obj
 0001:0014bc2c       ?is_valid@?$__crt_unique_heap_ptr@XU__crt_internal_free_policy@@@@QEBA_NXZ 000000018014cc2c f i libvcruntime:std_type_info.obj
 0001:0014bc34       ?release@?$__crt_unique_heap_ptr@DU__crt_internal_free_policy@@@@QEAAXXZ 000000018014cc34 f i libvcruntime:std_type_info.obj
 0001:0014bc50       ?release@?$__crt_unique_heap_ptr@XU__crt_internal_free_policy@@@@QEAAXXZ 000000018014cc50 f i libvcruntime:std_type_info.obj
 0001:0014bc6c       __std_type_info_compare    000000018014cc6c f   libvcruntime:std_type_info.obj
 0001:0014bc94       __std_type_info_destroy_list 000000018014cc94 f   libvcruntime:std_type_info.obj
 0001:0014bcc0       __std_type_info_hash       000000018014ccc0 f   libvcruntime:std_type_info.obj
 0001:0014bcfc       __std_type_info_name       000000018014ccfc f   libvcruntime:std_type_info.obj
 0001:0014be30       memcpy_repmovs             000000018014ce30 f   libvcruntime:memcpy.obj
 0001:0014be50       memmove                    000000018014ce50 f   libvcruntime:memcpy.obj
 0001:0014be50       memcpy                     000000018014ce50 f   libvcruntime:memcpy.obj
 0001:0014c290       memset_repmovs             000000018014d290 f   libvcruntime:memset.obj
 0001:0014c2b0       memset                     000000018014d2b0 f   libvcruntime:memset.obj
 0001:0014c440       strstr                     000000018014d440 f   libvcruntime:strstr.obj
 0001:0014c640       __C_specific_handler       000000018014d640 f   libvcruntime:riscchandler.obj
 0001:0014c84c       __vcrt_initialize          000000018014d84c f   libvcruntime:initialization.obj
 0001:0014c880       __vcrt_thread_attach       000000018014d880 f   libvcruntime:initialization.obj
 0001:0014c894       __vcrt_thread_detach       000000018014d894 f   libvcruntime:initialization.obj
 0001:0014c8a8       __vcrt_uninitialize        000000018014d8a8 f   libvcruntime:initialization.obj
 0001:0014c8c8       __vcrt_uninitialize_critical 000000018014d8c8 f   libvcruntime:initialization.obj
 0001:0014c8dc       ??$?B$$A6AXXZ@__crt_fast_encoded_nullptr_t@@QEBAP6AXXZXZ 000000018014d8dc f i libvcruntime:purevirt_data.obj
 0001:0014c8e4       ?__crt_fast_encode_pointer@@YA?AU__crt_fast_encoded_nullptr_t@@$$T@Z 000000018014d8e4 f i libvcruntime:purevirt_data.obj
 0001:0014c8ec       __vcrt_initialize_pure_virtual_call_handler 000000018014d8ec f   libvcruntime:purevirt_data.obj
 0001:0014c8fc       ??0Block@_HeapManager@@QEAA@XZ 000000018014d8fc f i libvcruntime:undname.obj
 0001:0014c904       ??0DName@@QEAA@AEAPEBDD@Z  000000018014d904 f   libvcruntime:undname.obj
 0001:0014c9d0       ??0DName@@QEAA@AEBV0@@Z    000000018014d9d0 f i libvcruntime:undname.obj
 0001:0014c9e0       ??0DName@@QEAA@D@Z         000000018014d9e0 f   libvcruntime:undname.obj
 0001:0014ca14       ??0DName@@QEAA@PEAV0@@Z    000000018014da14 f   libvcruntime:undname.obj
 0001:0014ca98       ??0DName@@QEAA@PEBD@Z      000000018014da98 f   libvcruntime:undname.obj
 0001:0014cad8       ??0DName@@QEAA@W4DNameStatus@@@Z 000000018014dad8 f   libvcruntime:undname.obj
 0001:0014cb08       ??0DName@@QEAA@XZ          000000018014db08 f i libvcruntime:undname.obj
 0001:0014cb14       ??0DName@@QEAA@_J@Z        000000018014db14 f   libvcruntime:undname.obj
 0001:0014cbbc       ??0DName@@QEAA@_K@Z        000000018014dbbc f   libvcruntime:undname.obj
 0001:0014cc44       ??0DNameNode@@IEAA@XZ      000000018014dc44 f i libvcruntime:undname.obj
 0001:0014cc54       ??0Replicator@@QEAA@XZ     000000018014dc54 f i libvcruntime:undname.obj
 0001:0014cc68       ??0UnDecorator@@QEAA@PEBDP6APEADJ@ZK@Z 000000018014dc68 f i libvcruntime:undname.obj
 0001:0014ccb8       ??0charNode@@QEAA@D@Z      000000018014dcb8 f i libvcruntime:undname.obj
 0001:0014cccc       ??0pDNameNode@@QEAA@PEAVDName@@@Z 000000018014dccc f   libvcruntime:undname.obj
 0001:0014ccf4       ??0pairNode@@QEAA@PEBVDNameNode@@0@Z 000000018014dcf4 f i libvcruntime:undname.obj
 0001:0014cd10       ??0pcharNode@@QEAA@PEBDH@Z 000000018014dd10 f   libvcruntime:undname.obj
 0001:0014cda0       ??2@YAPEAX_KAEAV_HeapManager@@H@Z 000000018014dda0 f i libvcruntime:undname.obj
 0001:0014cdb0       ??4DName@@QEAAAEAV0@AEBV0@@Z 000000018014ddb0 f   libvcruntime:undname.obj
 0001:0014cdc0       ??4DName@@QEAAAEAV0@D@Z    000000018014ddc0 f i libvcruntime:undname.obj
 0001:0014cdf4       ??4DName@@QEAAAEAV0@PEAV0@@Z 000000018014ddf4 f   libvcruntime:undname.obj
 0001:0014ce74       ??4DName@@QEAAAEAV0@PEBD@Z 000000018014de74 f   libvcruntime:undname.obj
 0001:0014ceac       ??4DName@@QEAAAEAV0@W4DNameStatus@@@Z 000000018014deac f   libvcruntime:undname.obj
 0001:0014cecc       ??AReplicator@@QEBA?AVDName@@H@Z 000000018014decc f   libvcruntime:undname.obj
 0001:0014cf0c       ??H@YA?AVDName@@DAEBV0@@Z  000000018014df0c f i libvcruntime:undname.obj
 0001:0014cf44       ??H@YA?AVDName@@PEBDAEBV0@@Z 000000018014df44 f i libvcruntime:undname.obj
 0001:0014cf7c       ??H@YA?AVDName@@W4DNameStatus@@AEBV0@@Z 000000018014df7c f i libvcruntime:undname.obj
 0001:0014cfc8       ??HDName@@QEBA?AV0@AEBV0@@Z 000000018014dfc8 f   libvcruntime:undname.obj
 0001:0014cff4       ??HDName@@QEBA?AV0@D@Z     000000018014dff4 f   libvcruntime:undname.obj
 0001:0014d020       ??HDName@@QEBA?AV0@PEAV0@@Z 000000018014e020 f   libvcruntime:undname.obj
 0001:0014d04c       ??HDName@@QEBA?AV0@PEBD@Z  000000018014e04c f   libvcruntime:undname.obj
 0001:0014d078       ??HDName@@QEBA?AV0@W4DNameStatus@@@Z 000000018014e078 f   libvcruntime:undname.obj
 0001:0014d0a4       ??YDName@@QEAAAEAV0@AEBV0@@Z 000000018014e0a4 f   libvcruntime:undname.obj
 0001:0014d0e8       ??YDName@@QEAAAEAV0@D@Z    000000018014e0e8 f   libvcruntime:undname.obj
 0001:0014d168       ??YDName@@QEAAAEAV0@PEAV0@@Z 000000018014e168 f   libvcruntime:undname.obj
 0001:0014d200       ??YDName@@QEAAAEAV0@PEBD@Z 000000018014e200 f   libvcruntime:undname.obj
 0001:0014d28c       ??YDName@@QEAAAEAV0@W4DNameStatus@@@Z 000000018014e28c f   libvcruntime:undname.obj
 0001:0014d2f8       ??YReplicator@@QEAAAEAV0@AEBVDName@@@Z 000000018014e2f8 f   libvcruntime:undname.obj
 0001:0014d360       ??_5DName@@QEAAAEAV0@AEBV0@@Z 000000018014e360 f   libvcruntime:undname.obj
 0001:0014d374       ?Constructor@_HeapManager@@QEAAXP6APEAX_K@ZP6AXPEAX@Z@Z 000000018014e374 f i libvcruntime:undname.obj
 0001:0014d38c       ?Destructor@_HeapManager@@QEAAXXZ 000000018014e38c f i libvcruntime:undname.obj
 0001:0014d3d0       ?UScore@UnDecorator@@SAPEBDW4Tokens@@@Z 000000018014e3d0 f   libvcruntime:undname.obj
 0001:0014d3f0       ?append@DName@@AEAAXPEBVDNameNode@@@Z 000000018014e3f0 f   libvcruntime:undname.obj
 0001:0014d454       ?composeDeclaration@UnDecorator@@CA?AVDName@@AEBV2@@Z 000000018014e454 f i libvcruntime:undname.obj
 0001:0014e208       ?doAccessSpecifiers@UnDecorator@@SAHXZ 000000018014f208 f i libvcruntime:undname.obj
 0001:0014e218       ?doAllocationLanguage@UnDecorator@@SAHXZ 000000018014f218 f i libvcruntime:undname.obj
 0001:0014e228       ?doAllocationModel@UnDecorator@@SAHXZ 000000018014f228 f i libvcruntime:undname.obj
 0001:0014e238       ?doEcsu@UnDecorator@@SAHXZ 000000018014f238 f i libvcruntime:undname.obj
 0001:0014e248       ?doEllipsis@UnDecorator@@SAHXZ 000000018014f248 f i libvcruntime:undname.obj
 0001:0014e258       ?doFunctionReturns@UnDecorator@@SAHXZ 000000018014f258 f i libvcruntime:undname.obj
 0001:0014e268       ?doMSKeywords@UnDecorator@@SAHXZ 000000018014f268 f i libvcruntime:undname.obj
 0001:0014e278       ?doMemberTypes@UnDecorator@@SAHXZ 000000018014f278 f i libvcruntime:undname.obj
 0001:0014e288       ?doNameOnly@UnDecorator@@SAHXZ 000000018014f288 f i libvcruntime:undname.obj
 0001:0014e294       ?doNoIdentCharCheck@UnDecorator@@SAHXZ 000000018014f294 f i libvcruntime:undname.obj
 0001:0014e2a0       ?doPchar@DName@@AEAAXPEBDH@Z 000000018014f2a0 f   libvcruntime:undname.obj
 0001:0014e348       ?doPtr64@UnDecorator@@SAHXZ 000000018014f348 f i libvcruntime:undname.obj
 0001:0014e358       ?doRestrictionSpec@UnDecorator@@SAHXZ 000000018014f358 f i libvcruntime:undname.obj
 0001:0014e368       ?doThisTypes@UnDecorator@@SAHXZ 000000018014f368 f i libvcruntime:undname.obj
 0001:0014e37c       ?doThrowTypes@UnDecorator@@SAHXZ 000000018014f37c f i libvcruntime:undname.obj
 0001:0014e38c       ?doTypeOnly@UnDecorator@@SAHXZ 000000018014f38c f i libvcruntime:undname.obj
 0001:0014e398       ?doUnderScore@UnDecorator@@SAHXZ 000000018014f398 f i libvcruntime:undname.obj
 0001:0014e3a4       ?getArgumentList@UnDecorator@@CA?AVDName@@XZ 000000018014f3a4 f   libvcruntime:undname.obj
 0001:0014e4d0       ?getArgumentTypes@UnDecorator@@CA?AVDName@@XZ 000000018014f4d0 f   libvcruntime:undname.obj
 0001:0014e5c4       ?getArrayType@UnDecorator@@CA?AVDName@@AEBV2@@Z 000000018014f5c4 f i libvcruntime:undname.obj
 0001:0014e818       ?getBasedType@UnDecorator@@CA?AVDName@@XZ 000000018014f818 f   libvcruntime:undname.obj
 0001:0014e8e0       ?getBasicDataType@UnDecorator@@CA?AVDName@@AEBV2@@Z 000000018014f8e0 f   libvcruntime:undname.obj
 0001:0014ed48       ?getCHPEName@UnDecorator@@QEAAPEADPEADH@Z 000000018014fd48 f i libvcruntime:undname.obj
 0001:0014ee68       ?getCallIndex@UnDecorator@@CA?AVDName@@XZ 000000018014fe68 f i libvcruntime:undname.obj
 0001:0014ee84       ?getCallingConvention@UnDecorator@@CA?AVDName@@XZ 000000018014fe84 f   libvcruntime:undname.obj
 0001:0014efc4       ?getDataIndirectType@UnDecorator@@CA?AVDName@@AEBV2@PEBD0H@Z 000000018014ffc4 f   libvcruntime:undname.obj
 0001:0014f77c       ?getDataIndirectType@UnDecorator@@CA?AVDName@@XZ 000000018015077c f i libvcruntime:undname.obj
 0001:0014f7bc       ?getDataType@UnDecorator@@CA?AVDName@@PEAV2@@Z 00000001801507bc f   libvcruntime:undname.obj
 0001:0014f8a4       ?getDecoratedName@UnDecorator@@CA?AVDName@@XZ 00000001801508a4 f   libvcruntime:undname.obj
 0001:0014fb4c       ?getDimension@UnDecorator@@CA?AVDName@@_N@Z 0000000180150b4c f   libvcruntime:undname.obj
 0001:0014fcc8       ?getDispatchTarget@UnDecorator@@CA?AVDName@@XZ 0000000180150cc8 f   libvcruntime:undname.obj
 0001:0014fd14       ?getDisplacement@UnDecorator@@CA?AVDName@@XZ 0000000180150d14 f i libvcruntime:undname.obj
 0001:0014fd30       ?getECSUDataType@UnDecorator@@CA?AVDName@@XZ 0000000180150d30 f   libvcruntime:undname.obj
 0001:0014fe90       ?getECSUName@UnDecorator@@CA?AVDName@@XZ 0000000180150e90 f i libvcruntime:undname.obj
 0001:0014fea8       ?getEnumType@UnDecorator@@CA?AVDName@@XZ 0000000180150ea8 f i libvcruntime:undname.obj
 0001:0014ffa4       ?getExtendedDataIndirectType@UnDecorator@@CA?AVDName@@AEAPEBDAEA_NH@Z 0000000180150fa4 f   libvcruntime:undname.obj
 0001:001501b8       ?getExternalDataType@UnDecorator@@CA?AVDName@@AEBV2@@Z 00000001801511b8 f i libvcruntime:undname.obj
 0001:00150280       ?getFunctionIndirectType@UnDecorator@@CA?AVDName@@AEBV2@@Z 0000000180151280 f   libvcruntime:undname.obj
 0001:001507d8       ?getGuardNumber@UnDecorator@@CA?AVDName@@XZ 00000001801517d8 f i libvcruntime:undname.obj
 0001:001507f4       ?getLastChar@DName@@QEBADXZ 00000001801517f4 f i libvcruntime:undname.obj
 0001:00150810       ?getLastChar@DNameStatusNode@@UEBADXZ 0000000180151810 f i libvcruntime:undname.obj
 0001:0015081c       ?getLastChar@charNode@@UEBADXZ 000000018015181c f i libvcruntime:undname.obj
 0001:00150820       ?getLastChar@pDNameNode@@UEBADXZ 0000000180151820 f i libvcruntime:undname.obj
 0001:0015084c       ?getLastChar@pairNode@@UEBADXZ 000000018015184c f i libvcruntime:undname.obj
 0001:00150884       ?getLastChar@pcharNode@@UEBADXZ 0000000180151884 f i libvcruntime:undname.obj
 0001:00150898       ?getLexicalFrame@UnDecorator@@CA?AVDName@@XZ 0000000180151898 f i libvcruntime:undname.obj
 0001:0015090c       ?getMemory@_HeapManager@@QEAAPEAX_KH@Z 000000018015190c f   libvcruntime:undname.obj
 0001:001509b8       ?getNoexcept@UnDecorator@@CA?AVDName@@XZ 00000001801519b8 f   libvcruntime:undname.obj
 0001:00150a00       ?getNumberOfDimensions@UnDecorator@@CAHXZ 0000000180151a00 f   libvcruntime:undname.obj
 0001:00150a74       ?getOperatorName@UnDecorator@@CA?AVDName@@_NPEA_N@Z 0000000180151a74 f i libvcruntime:undname.obj
 0001:001511e4       ?getPointerType@UnDecorator@@CA?AVDName@@AEBV2@0@Z 00000001801521e4 f i libvcruntime:undname.obj
 0001:00151204       ?getPointerTypeArray@UnDecorator@@CA?AVDName@@AEBV2@0@Z 0000000180152204 f i libvcruntime:undname.obj
 0001:00151224       ?getPrimaryDataType@UnDecorator@@CA?AVDName@@AEBV2@@Z 0000000180152224 f   libvcruntime:undname.obj
 0001:00151474       ?getPtrRefDataType@UnDecorator@@CA?AVDName@@AEBV2@H@Z 0000000180152474 f   libvcruntime:undname.obj
 0001:001515d8       ?getPtrRefType@UnDecorator@@CA?AVDName@@AEBV2@0PEBD@Z 00000001801525d8 f   libvcruntime:undname.obj
 0001:00151710       ?getReferenceType@UnDecorator@@CA?AVDName@@AEBV2@0PEBD@Z 0000000180152710 f i libvcruntime:undname.obj
 0001:00151728       ?getRestrictionSpec@UnDecorator@@CA?AVDName@@XZ 0000000180152728 f   libvcruntime:undname.obj
 0001:00151868       ?getReturnType@UnDecorator@@CA?AVDName@@PEAV2@@Z 0000000180152868 f   libvcruntime:undname.obj
 0001:0015189c       ?getScope@UnDecorator@@CA?AVDName@@XZ 000000018015289c f   libvcruntime:undname.obj
 0001:00151d14       ?getScopedName@UnDecorator@@CA?AVDName@@XZ 0000000180152d14 f   libvcruntime:undname.obj
 0001:00151e18       ?getSignedDimension@UnDecorator@@CA?AVDName@@XZ 0000000180152e18 f   libvcruntime:undname.obj
 0001:00151eac       ?getStorageConvention@UnDecorator@@CA?AVDName@@XZ 0000000180152eac f i libvcruntime:undname.obj
 0001:00151eec       ?getString@DName@@QEBAPEADPEAD0@Z 0000000180152eec f i libvcruntime:undname.obj
 0001:00151f08       ?getString@DName@@QEBAPEADPEADH@Z 0000000180152f08 f i libvcruntime:undname.obj
 0001:00151f9c       ?getString@DNameStatusNode@@UEBAPEADPEAD0@Z 0000000180152f9c f i libvcruntime:undname.obj
 0001:00151fe4       ?getString@charNode@@UEBAPEADPEAD0@Z 0000000180152fe4 f i libvcruntime:undname.obj
 0001:00151ff8       ?getString@pDNameNode@@UEBAPEADPEAD0@Z 0000000180152ff8 f i libvcruntime:undname.obj
 0001:00152028       ?getString@pairNode@@UEBAPEADPEAD0@Z 0000000180153028 f i libvcruntime:undname.obj
 0001:00152074       ?getString@pcharNode@@UEBAPEADPEAD0@Z 0000000180153074 f i libvcruntime:undname.obj
 0001:001520ac       ?getStringEncoding@UnDecorator@@CA?AVDName@@PEBDH@Z 00000001801530ac f   libvcruntime:undname.obj
 0001:0015217c       ?getStringHelper@@YAPEADPEADPEBD1H@Z 000000018015317c f i libvcruntime:undname.obj
 0001:001521ac       ?getSymbolName@UnDecorator@@CA?AVDName@@XZ 00000001801531ac f i libvcruntime:undname.obj
 0001:001521f8       ?getTemplateArgumentList@UnDecorator@@CA?AVDName@@XZ 00000001801531f8 f   libvcruntime:undname.obj
 0001:00152514       ?getTemplateConstant@UnDecorator@@CA?AVDName@@XZ 0000000180153514 f   libvcruntime:undname.obj
 0001:001528b4       ?getTemplateName@UnDecorator@@CA?AVDName@@_N@Z 00000001801538b4 f   libvcruntime:undname.obj
 0001:00152ab0       ?getThisType@UnDecorator@@CA?AVDName@@XZ 0000000180153ab0 f i libvcruntime:undname.obj
 0001:00152af4       ?getThrowTypes@UnDecorator@@CA?AVDName@@XZ 0000000180153af4 f   libvcruntime:undname.obj
 0001:00152b18       ?getTypeEncoding@UnDecorator@@CAHXZ 0000000180153b18 f i libvcruntime:undname.obj
 0001:00152e78       ?getUndecoratedName@UnDecorator@@QEAAPEADPEADH@Z 0000000180153e78 f i libvcruntime:undname.obj
 0001:00152f84       ?getVCallThunkType@UnDecorator@@CA?AVDName@@XZ 0000000180153f84 f i libvcruntime:undname.obj
 0001:00152fdc       ?getVbTableType@UnDecorator@@CA?AVDName@@AEBV2@@Z 0000000180153fdc f i libvcruntime:undname.obj
 0001:00152ff4       ?getVdispMapType@UnDecorator@@CA?AVDName@@AEBV2@@Z 0000000180153ff4 f i libvcruntime:undname.obj
 0001:00153054       ?getVfTableType@UnDecorator@@CA?AVDName@@AEBV2@@Z 0000000180154054 f i libvcruntime:undname.obj
 0001:00153254       ?getZName@UnDecorator@@CA?AVDName@@_N0@Z 0000000180154254 f   libvcruntime:undname.obj
 0001:00153530       ?haveTemplateParameters@UnDecorator@@SAHXZ 0000000180154530 f i libvcruntime:undname.obj
 0001:0015353c       ?isArray@DName@@QEBAHXZ    000000018015453c f i libvcruntime:undname.obj
 0001:00153548       ?isComArray@DName@@QEBAHXZ 0000000180154548 f i libvcruntime:undname.obj
 0001:00153554       ?isEmpty@DName@@QEBAHXZ    0000000180154554 f i libvcruntime:undname.obj
 0001:00153560       ?isFull@Replicator@@QEBAHXZ 0000000180154560 f i libvcruntime:undname.obj
 0001:0015356c       ?isNoTE@DName@@QEBAHXZ     000000018015456c f i libvcruntime:undname.obj
 0001:00153578       ?isPinPtr@DName@@QEBAHXZ   0000000180154578 f i libvcruntime:undname.obj
 0001:00153584       ?isPtrRef@DName@@QEBAHXZ   0000000180154584 f i libvcruntime:undname.obj
 0001:00153590       ?isUDC@DName@@QEBAHXZ      0000000180154590 f i libvcruntime:undname.obj
 0001:001535a8       ?isUDTThunk@DName@@QEBAHXZ 00000001801545a8 f i libvcruntime:undname.obj
 0001:001535c0       ?isVCallThunk@DName@@QEBAHXZ 00000001801545c0 f i libvcruntime:undname.obj
 0001:001535cc       ?isValid@DName@@QEBAHXZ    00000001801545cc f i libvcruntime:undname.obj
 0001:001535d8       ?length@DName@@QEBAHXZ     00000001801545d8 f i libvcruntime:undname.obj
 0001:001535f0       ?length@DNameStatusNode@@UEBAHXZ 00000001801545f0 f i libvcruntime:undname.obj
 0001:001535f4       ?length@charNode@@UEBAHXZ  00000001801545f4 f i libvcruntime:undname.obj
 0001:001535fc       ?length@pDNameNode@@UEBAHXZ 00000001801545fc f i libvcruntime:undname.obj
 0001:00153624       ?length@pairNode@@UEBAHXZ  0000000180154624 f i libvcruntime:undname.obj
 0001:00153678       ?length@pcharNode@@UEBAHXZ 0000000180154678 f i libvcruntime:undname.obj
 0001:0015367c       ?make@DNameStatusNode@@SAPEBV1@W4DNameStatus@@@Z 000000018015467c f i libvcruntime:undname.obj
 0001:0015369c       ?parseDecoratedName@UnDecorator@@CA?AVDName@@XZ 000000018015469c f   libvcruntime:undname.obj
 0001:00153794       ?setIsArray@DName@@QEAAXXZ 0000000180154794 f i libvcruntime:undname.obj
 0001:0015379c       ?setIsComArray@DName@@QEAAXXZ 000000018015479c f i libvcruntime:undname.obj
 0001:001537a4       ?setIsNoTE@DName@@QEAAXXZ  00000001801547a4 f i libvcruntime:undname.obj
 0001:001537ac       ?setIsPinPtr@DName@@QEAAXXZ 00000001801547ac f i libvcruntime:undname.obj
 0001:001537b4       ?setIsUDC@DName@@QEAAXXZ   00000001801547b4 f i libvcruntime:undname.obj
 0001:001537c0       ?setIsVCallThunk@DName@@QEAAXXZ 00000001801547c0 f i libvcruntime:undname.obj
 0001:001537c8       ?setPtrRef@DName@@QEAAAEAV1@XZ 00000001801547c8 f i libvcruntime:undname.obj
 0001:001537d4       ?status@DName@@QEBA?AW4DNameStatus@@XZ 00000001801547d4 f i libvcruntime:undname.obj
 0001:00153838       __unDName                  0000000180154838 f   libvcruntime:undname.obj
 0001:00153860       __unDNameEx                0000000180154860 f   libvcruntime:undname.obj
 0001:00153994       _vsprintf_s_l              0000000180154994 f i libvcruntime:undname.obj
 0001:001539f8       sprintf_s                  00000001801549f8 f i libvcruntime:undname.obj
 0001:00153a4c       unDNameGenerateCHPE        0000000180154a4c f   libvcruntime:undname.obj
 0001:00153b70       _NLG_Notify                0000000180154b70 f   libvcruntime:notify.obj
 0001:00153b90       __NLG_Dispatch2            0000000180154b90 f   libvcruntime:notify.obj
 0001:00153ba0       __NLG_Return2              0000000180154ba0 f   libvcruntime:notify.obj
 0001:00153bac       __except_validate_context_record 0000000180154bac f   libvcruntime:jbcxrval.obj
 0001:00153be4       __except_validate_jump_buffer 0000000180154be4 f   libvcruntime:jbcxrval.obj
 0001:00153c24       __except_validate_jump_buffer_common 0000000180154c24 f i libvcruntime:jbcxrval.obj
 0001:00153c80       __DestructExceptionObject  0000000180154c80 f   libvcruntime:ehhelpers.obj
 0001:00153cf4       ?_CallMemberFunction0@@YAXQEAX0@Z 0000000180154cf4 f i libvcruntime:ehhelpers.obj
 0001:00153cf8       ?raw_name@type_info@@QEBAPEBDXZ 0000000180154cf8 f i libvcruntime:ehhelpers.obj
 0001:00153d00       _IsExceptionObjectToBeDestroyed 0000000180154d00 f   libvcruntime:ehhelpers.obj
 0001:00153d30       _SetWinRTOutOfMemoryExceptionCallback 0000000180154d30 f   libvcruntime:ehhelpers.obj
 0001:00153d38       __AdjustPointer            0000000180154d38 f   libvcruntime:ehhelpers.obj
 0001:00153d5c       __FrameUnwindFilter        0000000180154d5c f   libvcruntime:ehhelpers.obj
 0001:00153da8       __GetPlatformExceptionInfo 0000000180154da8 f   libvcruntime:ehhelpers.obj
 0001:00153e04       __current_exception        0000000180154e04 f   libvcruntime:ehhelpers.obj
 0001:00153e18       __current_exception_context 0000000180154e18 f   libvcruntime:ehhelpers.obj
 0001:00153e2c       __processing_throw         0000000180154e2c f   libvcruntime:ehhelpers.obj
 0001:00153e40       __std_terminate            0000000180154e40 f   libvcruntime:ehhelpers.obj
 0001:00153e4c       _is_exception_typeof       0000000180154e4c f   libvcruntime:ehhelpers.obj
 0001:00153ef4       ??$?RU__vcrt_ptd@@@__crt_internal_free_policy@@QEBAXQEBU__vcrt_ptd@@@Z 0000000180154ef4 f i libvcruntime:per_thread_data.obj
 0001:00153efc       ??0?$__crt_unique_heap_ptr@U__vcrt_ptd@@U__crt_internal_free_policy@@@@QEAA@QEAU__vcrt_ptd@@@Z 0000000180154efc f i libvcruntime:per_thread_data.obj
 0001:00153f20       ??1?$__crt_unique_heap_ptr@U__vcrt_ptd@@U__crt_internal_free_policy@@@@QEAA@XZ 0000000180154f20 f i libvcruntime:per_thread_data.obj
 0001:00153f48       ??B?$__crt_unique_heap_ptr@U__vcrt_ptd@@U__crt_internal_free_policy@@@@QEBA_NXZ 0000000180154f48 f i libvcruntime:per_thread_data.obj
 0001:00153f50       ?detach@?$__crt_unique_heap_ptr@U__vcrt_ptd@@U__crt_internal_free_policy@@@@QEAAPEAU__vcrt_ptd@@XZ 0000000180154f50 f i libvcruntime:per_thread_data.obj
 0001:00153f58       ?get@?$__crt_unique_heap_ptr@U__vcrt_ptd@@U__crt_internal_free_policy@@@@QEBAPEAU__vcrt_ptd@@XZ 0000000180154f58 f i libvcruntime:per_thread_data.obj
 0001:00153f5c       ?is_valid@?$__crt_unique_heap_ptr@U__vcrt_ptd@@U__crt_internal_free_policy@@@@QEBA_NXZ 0000000180154f5c f i libvcruntime:per_thread_data.obj
 0001:00153f64       ?release@?$__crt_unique_heap_ptr@U__vcrt_ptd@@U__crt_internal_free_policy@@@@QEAAXXZ 0000000180154f64 f i libvcruntime:per_thread_data.obj
 0001:00153fb4       __vcrt_freefls             0000000180154fb4 f   libvcruntime:per_thread_data.obj
 0001:00153fd4       __vcrt_freeptd             0000000180154fd4 f   libvcruntime:per_thread_data.obj
 0001:00154024       __vcrt_getptd              0000000180155024 f   libvcruntime:per_thread_data.obj
 0001:00154040       __vcrt_getptd_noexit       0000000180155040 f   libvcruntime:per_thread_data.obj
 0001:0015410c       __vcrt_getptd_noinit       000000018015510c f   libvcruntime:per_thread_data.obj
 0001:0015415c       __vcrt_initialize_ptd      000000018015515c f   libvcruntime:per_thread_data.obj
 0001:001541b0       __vcrt_uninitialize_ptd    00000001801551b0 f   libvcruntime:per_thread_data.obj
 0001:001541d4       __vcrt_initialize_locks    00000001801551d4 f   libvcruntime:locks.obj
 0001:0015421c       __vcrt_lock                000000018015521c f   libvcruntime:locks.obj
 0001:00154238       __vcrt_uninitialize_locks  0000000180155238 f   libvcruntime:locks.obj
 0001:00154270       __vcrt_unlock              0000000180155270 f   libvcruntime:locks.obj
 0001:0015428c       ??$?BX@__crt_fast_encoded_nullptr_t@@QEBAPEAXXZ 000000018015528c f i libvcruntime:winapi_downlevel.obj
 0001:00154294       ??$__crt_fast_decode_pointer@PEAX@@YAPEAXQEAX@Z 0000000180155294 f i libvcruntime:winapi_downlevel.obj
 0001:001542ac       ??$__crt_fast_encode_pointer@PEAX@@YAPEAXQEAX@Z 00000001801552ac f i libvcruntime:winapi_downlevel.obj
 0001:001542cc       ??$__crt_interlocked_exchange_pointer@UHINSTANCE__@@PEAU1@@@YAPEAUHINSTANCE__@@PEDSEAU0@QEAU0@@Z 00000001801552cc f i libvcruntime:winapi_downlevel.obj
 0001:001542d4       ??$__crt_interlocked_exchange_pointer@UHINSTANCE__@@PEAX@@YAPEAUHINSTANCE__@@PEDSEAU0@QEAX@Z 00000001801552d4 f i libvcruntime:winapi_downlevel.obj
 0001:001542dc       ??$__crt_interlocked_exchange_pointer@XPEAX@@YAPEAXPEDSEAXQEAX@Z 00000001801552dc f i libvcruntime:winapi_downlevel.obj
 0001:001542e4       ??$__crt_interlocked_read_pointer@UHINSTANCE__@@@@YAPEAUHINSTANCE__@@PEDSEAU0@@Z 00000001801552e4 f i libvcruntime:winapi_downlevel.obj
 0001:001542e8       ??$__crt_interlocked_read_pointer@X@@YAPEAXPEDSEAX@Z 00000001801552e8 f i libvcruntime:winapi_downlevel.obj
 0001:00154930       __vcrt_FlsAlloc            0000000180155930 f   libvcruntime:winapi_downlevel.obj
 0001:00154978       __vcrt_FlsFree             0000000180155978 f   libvcruntime:winapi_downlevel.obj
 0001:001549c0       __vcrt_FlsGetValue         00000001801559c0 f   libvcruntime:winapi_downlevel.obj
 0001:00154a08       __vcrt_FlsSetValue         0000000180155a08 f   libvcruntime:winapi_downlevel.obj
 0001:00154a5c       __vcrt_InitializeCriticalSectionEx 0000000180155a5c f   libvcruntime:winapi_downlevel.obj
 0001:00154ac0       __vcrt_initialize_winapi_thunks 0000000180155ac0 f   libvcruntime:winapi_downlevel.obj
 0001:00154af0       __vcrt_uninitialize_winapi_thunks 0000000180155af0 f   libvcruntime:winapi_downlevel.obj
 0001:00154b30       ??$?0AEAViterator@TryBlockMap@__FrameHandler3@@AEAV012@$0A@@?$pair@Viterator@TryBlockMap@__FrameHandler3@@V123@@std@@QEAA@AEAViterator@TryBlockMap@__FrameHandler3@@0@Z 0000000180155b30 f i libvcruntime:risctrnsctrl.obj
 0001:00154b44       ??$?0AEAViterator@TryBlockMap@__FrameHandler4@@AEAV012@$0A@@?$pair@Viterator@TryBlockMap@__FrameHandler4@@V123@@std@@QEAA@AEAViterator@TryBlockMap@__FrameHandler4@@0@Z 0000000180155b44 f i libvcruntime:risctrnsctrl.obj
 0001:00154c88       ??$_CallSETranslator@V__FrameHandler3@@@@YAHPEAUEHExceptionRecord@@PEA_KPEAU_CONTEXT@@PEAU_xDISPATCHER_CONTEXT@@PEBU_s_FuncInfo@@K1@Z 0000000180155c88 f i libvcruntime:risctrnsctrl.obj
 0001:00154cdc       ??$_CallSETranslator@V__FrameHandler4@@@@YAHPEAUEHExceptionRecord@@PEA_KPEAU_CONTEXT@@PEAU_xDISPATCHER_CONTEXT@@PEAUFuncInfo4@@K1@Z 0000000180155cdc f i libvcruntime:risctrnsctrl.obj
 0001:00154d30       ??$forward@AEAViterator@TryBlockMap@__FrameHandler3@@@std@@YAAEAViterator@TryBlockMap@__FrameHandler3@@AEAV123@@Z 0000000180155d30 f i libvcruntime:risctrnsctrl.obj
 0001:00154d34       ??$forward@AEAViterator@TryBlockMap@__FrameHandler4@@@std@@YAAEAViterator@TryBlockMap@__FrameHandler4@@AEAV123@@Z 0000000180155d34 f i libvcruntime:risctrnsctrl.obj
 0001:00154d38       ??0FuncInfo4@@QEAA@XZ      0000000180155d38 f i libvcruntime:risctrnsctrl.obj
 0001:00154d4c       ??0iterator@TryBlockMap@__FrameHandler3@@QEAA@AEAV12@I@Z 0000000180155d4c f i libvcruntime:risctrnsctrl.obj
 0001:00154d58       ??0iterator@TryBlockMap@__FrameHandler4@@QEAA@AEAV12@I@Z 0000000180155d58 f i libvcruntime:risctrnsctrl.obj
 0001:00154d64       ??4iterator@TryBlockMap@__FrameHandler4@@QEAAAEAV012@AEBV012@@Z 0000000180155d64 f i libvcruntime:risctrnsctrl.obj
 0001:00154d70       ??9iterator@TryBlockMap@__FrameHandler4@@QEBA_NAEBV012@@Z 0000000180155d70 f i libvcruntime:risctrnsctrl.obj
 0001:00154d7c       ??Diterator@TryBlockMap@__FrameHandler4@@QEAAPEAUTryBlockMapEntry4@@XZ 0000000180155d7c f i libvcruntime:risctrnsctrl.obj
 0001:00154d84       ??Eiterator@TryBlockMap@__FrameHandler4@@QEAAAEAV012@XZ 0000000180155d84 f i libvcruntime:risctrnsctrl.obj
 0001:00154e2c       ?CatchTryBlock@__FrameHandler3@@SAPEBU_s_TryBlockMapEntry@@PEBU_s_FuncInfo@@H@Z 0000000180155e2c f   libvcruntime:risctrnsctrl.obj
 0001:00154e84       ?DecompFuncInfo@@YAXPEAEAEAUFuncInfo4@@@Z 0000000180155e84 f i libvcruntime:risctrnsctrl.obj
 0001:00154f18       ?DecompTryBlock@TryBlockMap@__FrameHandler4@@AEAAXXZ 0000000180155f18 f i libvcruntime:risctrnsctrl.obj
 0001:00154fb8       ?ExecutionInCatch@__FrameHandler3@@SA_NPEAU_xDISPATCHER_CONTEXT@@PEBU_s_FuncInfo@@@Z 0000000180155fb8 f   libvcruntime:risctrnsctrl.obj
 0001:00154fe4       ?ExecutionInCatch@__FrameHandler4@@SA_NPEAU_xDISPATCHER_CONTEXT@@PEAUFuncInfo4@@@Z 0000000180155fe4 f   libvcruntime:risctrnsctrl.obj
 0001:00154ff0       ?FrameUnwindToEmptyState@__FrameHandler3@@SAXPEA_KPEAU_xDISPATCHER_CONTEXT@@PEBU_s_FuncInfo@@@Z 0000000180155ff0 f   libvcruntime:risctrnsctrl.obj
 0001:00155054       ?FrameUnwindToEmptyState@__FrameHandler4@@SAXPEA_KPEAU_xDISPATCHER_CONTEXT@@PEAUFuncInfo4@@@Z 0000000180156054 f   libvcruntime:risctrnsctrl.obj
 0001:0015508c       ?GetEstablisherFrame@__FrameHandler3@@SAPEA_KPEA_KPEAU_xDISPATCHER_CONTEXT@@PEBU_s_FuncInfo@@0@Z 000000018015608c f   libvcruntime:risctrnsctrl.obj
 0001:00155158       ?GetEstablisherFrame@__FrameHandler4@@SAPEA_KPEA_KPEAU_xDISPATCHER_CONTEXT@@PEAUFuncInfo4@@0@Z 0000000180156158 f   libvcruntime:risctrnsctrl.obj
 0001:0015517c       ?GetRangeOfTrysToCheck@__FrameHandler3@@SA?AU?$pair@Viterator@TryBlockMap@__FrameHandler3@@V123@@std@@AEAVTryBlockMap@1@HH@Z 000000018015617c f   libvcruntime:risctrnsctrl.obj
 0001:001552d8       ?GetRangeOfTrysToCheck@__FrameHandler4@@SA?AU?$pair@Viterator@TryBlockMap@__FrameHandler4@@V123@@std@@AEAVTryBlockMap@1@HH@Z 00000001801562d8 f   libvcruntime:risctrnsctrl.obj
 0001:001553ac       ?ReadInt@@YAHPEAPEAE@Z     00000001801563ac f i libvcruntime:risctrnsctrl.obj
 0001:001553bc       ?ReadUnsigned@@YAIPEAPEAE@Z 00000001801563bc f i libvcruntime:risctrnsctrl.obj
 0001:001553ec       ?UnwindNestedFrames@__FrameHandler3@@SAXPEA_KPEAUEHExceptionRecord@@PEAU_CONTEXT@@0PEAXPEBU_s_FuncInfo@@HHPEBU_s_HandlerType@@PEAU_xDISPATCHER_CONTEXT@@E@Z 00000001801563ec f   libvcruntime:risctrnsctrl.obj
 0001:00155510       ?UnwindNestedFrames@__FrameHandler4@@SAXPEA_KPEAUEHExceptionRecord@@PEAU_CONTEXT@@0PEAXPEAUFuncInfo4@@HHPEAUHandlerType4@@PEAU_xDISPATCHER_CONTEXT@@E@Z 0000000180156510 f   libvcruntime:risctrnsctrl.obj
 0001:00155680       ?__FuncToImageRelOffset@@YA_KPEAU_xDISPATCHER_CONTEXT@@I@Z 0000000180156680 f   libvcruntime:risctrnsctrl.obj
 0001:00155690       ?begin@TryBlockMap@__FrameHandler4@@QEAA?AViterator@12@XZ 0000000180156690 f i libvcruntime:risctrnsctrl.obj
 0001:0015569c       ?end@TryBlockMap@__FrameHandler4@@QEAA?AViterator@12@XZ 000000018015669c f i libvcruntime:risctrnsctrl.obj
 0001:001556a8       ?getFuncInfo@TryBlockMap@__FrameHandler3@@QEAAPEBU_s_FuncInfo@@XZ 00000001801566a8 f i libvcruntime:risctrnsctrl.obj
 0001:001556ac       ?getpDC@TryBlockMap@__FrameHandler3@@QEAAPEAU_xDISPATCHER_CONTEXT@@XZ 00000001801566ac f i libvcruntime:risctrnsctrl.obj
 0001:001556b4       ?incrementToSentinel@iterator@TryBlockMap@__FrameHandler4@@QEAAXXZ 00000001801566b4 f i libvcruntime:risctrnsctrl.obj
 0001:001556b8       ?setBuffer@TryBlockMap@__FrameHandler4@@QEAAXViterator@12@@Z 00000001801566b8 f i libvcruntime:risctrnsctrl.obj
 0001:00155830       _CreateFrameInfo           0000000180156830 f   libvcruntime:risctrnsctrl.obj
 0001:0015586c       _FindAndUnlinkFrame        000000018015686c f   libvcruntime:risctrnsctrl.obj
 0001:001558c0       _GetImageBase              00000001801568c0 f   libvcruntime:risctrnsctrl.obj
 0001:001558d4       _GetThrowImageBase         00000001801568d4 f   libvcruntime:risctrnsctrl.obj
 0001:001558e8       _SetImageBase              00000001801568e8 f   libvcruntime:risctrnsctrl.obj
 0001:00155900       _SetThrowImageBase         0000000180156900 f   libvcruntime:risctrnsctrl.obj
 0001:00155918       __CxxFrameHandler          0000000180156918 f   libvcruntime:risctrnsctrl.obj
 0001:00155920       __CxxFrameHandler2         0000000180156920 f   libvcruntime:risctrnsctrl.obj
 0001:00155928       __CxxFrameHandler3         0000000180156928 f   libvcruntime:risctrnsctrl.obj
 0001:001559a8       __CxxFrameHandler4         00000001801569a8 f   libvcruntime:risctrnsctrl.obj
 0001:00155a4c       ?GetCurrentState@__FrameHandler3@@SAHPEA_KPEAU_xDISPATCHER_CONTEXT@@PEBU_s_FuncInfo@@@Z 0000000180156a4c f   libvcruntime:ehstate.obj
 0001:00155a74       ?GetUnwindTryBlock@__FrameHandler3@@SAHPEA_KPEAU_xDISPATCHER_CONTEXT@@PEBU_s_FuncInfo@@@Z 0000000180156a74 f   libvcruntime:ehstate.obj
 0001:00155aa0       ?SetState@__FrameHandler3@@SAXPEA_KPEBU_s_FuncInfo@@H@Z 0000000180156aa0 f   libvcruntime:ehstate.obj
 0001:00155aac       ?SetUnwindTryBlock@__FrameHandler3@@SAXPEA_KPEAU_xDISPATCHER_CONTEXT@@PEBU_s_FuncInfo@@H@Z 0000000180156aac f   libvcruntime:ehstate.obj
 0001:00155ae8       ?StateFromControlPc@__FrameHandler3@@SAHPEBU_s_FuncInfo@@PEAU_xDISPATCHER_CONTEXT@@@Z 0000000180156ae8 f   libvcruntime:ehstate.obj
 0001:00155af0       ?StateFromControlPc@__FrameHandler4@@SAHPEAUFuncInfo4@@PEAU_xDISPATCHER_CONTEXT@@@Z 0000000180156af0 f   libvcruntime:ehstate.obj
 0001:00155af8       ?StateFromIp@__FrameHandler3@@SAHPEBU_s_FuncInfo@@PEAU_xDISPATCHER_CONTEXT@@_K@Z 0000000180156af8 f   libvcruntime:ehstate.obj
 0001:00155b60       ?StateFromIp@__FrameHandler4@@SAHPEAUFuncInfo4@@PEAU_xDISPATCHER_CONTEXT@@_K@Z 0000000180156b60 f   libvcruntime:ehstate.obj
 0001:00157048       ??$TypeMatchHelper@V__FrameHandler3@@@@YAHPEBU_s_HandlerType@@PEBU_s_CatchableType@@PEBU_s_ThrowInfo@@@Z 0000000180158048 f i libvcruntime:frame.obj
 0001:0015718c       ??$TypeMatchHelper@V__FrameHandler4@@@@YAHPEAUHandlerType4@@PEBU_s_CatchableType@@PEBU_s_ThrowInfo@@@Z 000000018015818c f i libvcruntime:frame.obj
 0001:001572d4       ??$__InternalCxxFrameHandler@V__FrameHandler3@@@@YA?AW4_EXCEPTION_DISPOSITION@@PEAUEHExceptionRecord@@PEA_KPEAU_CONTEXT@@PEAU_xDISPATCHER_CONTEXT@@PEBU_s_FuncInfo@@H1E@Z 00000001801582d4 f i libvcruntime:frame.obj
 0001:0015751c       ??$__InternalCxxFrameHandler@V__FrameHandler4@@@@YA?AW4_EXCEPTION_DISPOSITION@@PEAUEHExceptionRecord@@PEA_KPEAU_CONTEXT@@PEAU_xDISPATCHER_CONTEXT@@PEAUFuncInfo4@@H1E@Z 000000018015851c f i libvcruntime:frame.obj
 0001:001577bc       ??0HandlerMap@__FrameHandler3@@QEAA@PEBU_s_TryBlockMapEntry@@PEAU_xDISPATCHER_CONTEXT@@@Z 00000001801587bc f i libvcruntime:frame.obj
 0001:001577d4       ??0HandlerMap@__FrameHandler4@@QEAA@PEAUTryBlockMapEntry4@@PEAU_xDISPATCHER_CONTEXT@@@Z 00000001801587d4 f i libvcruntime:frame.obj
 0001:00157840       ??0HandlerType4@@QEAA@XZ   0000000180158840 f i libvcruntime:frame.obj
 0001:00157854       ??0TryBlockMap@__FrameHandler3@@QEAA@PEBU_s_FuncInfo@@PEAU_xDISPATCHER_CONTEXT@@@Z 0000000180158854 f i libvcruntime:frame.obj
 0001:00157860       ??0TryBlockMap@__FrameHandler4@@QEAA@PEAUFuncInfo4@@PEAU_xDISPATCHER_CONTEXT@@@Z 0000000180158860 f i libvcruntime:frame.obj
 0001:0015794c       ??0UWMap@@QEAA@PEAE@Z      000000018015894c f i libvcruntime:frame.obj
 0001:00157984       ??0bad_exception@std@@QEAA@AEBV01@@Z 0000000180158984 f i libvcruntime:frame.obj
 0001:001579c4       ??0bad_exception@std@@QEAA@XZ 00000001801589c4 f i libvcruntime:frame.obj
 0001:001579e4       ??0exception@std@@QEAA@AEBV01@@Z 00000001801589e4 f i libvcruntime:frame.obj
 0001:00157a1c       ??0exception@std@@QEAA@QEBDH@Z 0000000180158a1c f i libvcruntime:frame.obj
 0001:00157a34       ??0iterator@HandlerMap@__FrameHandler3@@QEAA@AEAV12@I@Z 0000000180158a34 f i libvcruntime:frame.obj
 0001:00157a40       ??0iterator@HandlerMap@__FrameHandler4@@QEAA@AEAV12@I@Z 0000000180158a40 f i libvcruntime:frame.obj
 0001:00157a4c       ??0iterator@UWMap@@QEAA@AEAV1@PEAE@Z 0000000180158a4c f i libvcruntime:frame.obj
 0001:00157a58       ??1bad_exception@std@@UEAA@XZ 0000000180158a58 f i libvcruntime:frame.obj
 0001:00157a6c       ??1exception@std@@UEAA@XZ  0000000180158a6c f i libvcruntime:frame.obj
 0001:00157a80       ??4iterator@UWMap@@QEAAAEAV01@AEBV01@@Z 0000000180158a80 f i libvcruntime:frame.obj
 0001:00157a8c       ??8iterator@HandlerMap@__FrameHandler3@@QEBA_NAEBV012@@Z 0000000180158a8c f i libvcruntime:frame.obj
 0001:00157a98       ??8iterator@HandlerMap@__FrameHandler4@@QEBA_NAEBV012@@Z 0000000180158a98 f i libvcruntime:frame.obj
 0001:00157aa4       ??8type_info@@QEBA_NAEBV0@@Z 0000000180158aa4 f i libvcruntime:frame.obj
 0001:00157ac0       ??9iterator@HandlerMap@__FrameHandler3@@QEBA_NAEBV012@@Z 0000000180158ac0 f i libvcruntime:frame.obj
 0001:00157acc       ??9iterator@HandlerMap@__FrameHandler4@@QEBA_NAEBV012@@Z 0000000180158acc f i libvcruntime:frame.obj
 0001:00157ad8       ??Diterator@HandlerMap@__FrameHandler3@@QEAAPEBU_s_HandlerType@@XZ 0000000180158ad8 f i libvcruntime:frame.obj
 0001:00157aec       ??Diterator@HandlerMap@__FrameHandler4@@QEAAPEAUHandlerType4@@XZ 0000000180158aec f i libvcruntime:frame.obj
 0001:00157af4       ??Diterator@TryBlockMap@__FrameHandler3@@QEAAPEBU_s_TryBlockMapEntry@@XZ 0000000180158af4 f i libvcruntime:frame.obj
 0001:00157b14       ??Diterator@UWMap@@QEAA?AUUnwindMapEntry4@@XZ 0000000180158b14 f i libvcruntime:frame.obj
 0001:00157b50       ??Eiterator@HandlerMap@__FrameHandler3@@QEAAAEAV012@XZ 0000000180158b50 f i libvcruntime:frame.obj
 0001:00157b58       ??Eiterator@HandlerMap@__FrameHandler4@@QEAAAEAV012@XZ 0000000180158b58 f i libvcruntime:frame.obj
 0001:00157b78       ??Eiterator@TryBlockMap@__FrameHandler3@@QEAAAEAV012@XZ 0000000180158b78 f i libvcruntime:frame.obj
 0001:00157b80       ??Eiterator@UWMap@@QEAAAEAV01@XZ 0000000180158b80 f i libvcruntime:frame.obj
 0001:00157bd0       ??Giterator@UWMap@@QEBA_JAEBV01@@Z 0000000180158bd0 f i libvcruntime:frame.obj
 0001:00157bdc       ??Miterator@TryBlockMap@__FrameHandler3@@QEBA_NAEBV012@@Z 0000000180158bdc f i libvcruntime:frame.obj
 0001:00157be8       ??Miterator@TryBlockMap@__FrameHandler4@@QEBA_NAEBV012@@Z 0000000180158be8 f i libvcruntime:frame.obj
 0001:00157bf4       ??Oiterator@UWMap@@QEBA_NAEBV01@@Z 0000000180158bf4 f i libvcruntime:frame.obj
 0001:00157c00       ??Piterator@UWMap@@QEBA_NAEBV01@@Z 0000000180158c00 f i libvcruntime:frame.obj
 0001:00157c0c       ??_Gbad_exception@std@@UEAAPEAXI@Z 0000000180158c0c f i libvcruntime:frame.obj
 0001:00157c0c       ??_Ebad_exception@std@@UEAAPEAXI@Z 0000000180158c0c f i libvcruntime:frame.obj
 0001:00157c50       ??_Eexception@std@@UEAAPEAXI@Z 0000000180158c50 f i libvcruntime:frame.obj
 0001:00157c50       ??_Gexception@std@@UEAAPEAXI@Z 0000000180158c50 f i libvcruntime:frame.obj
 0001:00157c94       ?BuildCatchObject@__FrameHandler3@@SAXPEAUEHExceptionRecord@@PEAXPEBU_s_HandlerType@@PEBU_s_CatchableType@@@Z 0000000180158c94 f   libvcruntime:frame.obj
 0001:00157c9c       ?BuildCatchObject@__FrameHandler4@@SAXPEAUEHExceptionRecord@@PEAXPEAUHandlerType4@@PEBU_s_CatchableType@@@Z 0000000180158c9c f   libvcruntime:frame.obj
 0001:00157ca4       ?BuildCatchObjectHelper@__FrameHandler3@@SAHPEAUEHExceptionRecord@@PEAXPEBU_s_HandlerType@@PEBU_s_CatchableType@@@Z 0000000180158ca4 f   libvcruntime:frame.obj
 0001:00157cac       ?BuildCatchObjectHelper@__FrameHandler4@@SAHPEAUEHExceptionRecord@@PEAXPEAUHandlerType4@@PEBU_s_CatchableType@@@Z 0000000180158cac f   libvcruntime:frame.obj
 0001:00157cb4       ?CxxCallCatchBlock@__FrameHandler3@@SAPEAXPEAU_EXCEPTION_RECORD@@@Z 0000000180158cb4 f   libvcruntime:frame.obj
 0001:00157ea0       ?CxxCallCatchBlock@__FrameHandler4@@SAPEAXPEAU_EXCEPTION_RECORD@@@Z 0000000180158ea0 f   libvcruntime:frame.obj
 0001:001580e0       ?DecompHandler@HandlerMap@__FrameHandler4@@AEAAXXZ 00000001801590e0 f i libvcruntime:frame.obj
 0001:001582b0       ?FrameUnwindToState@__FrameHandler3@@SAXPEA_KPEAU_xDISPATCHER_CONTEXT@@PEBU_s_FuncInfo@@H@Z 00000001801592b0 f   libvcruntime:frame.obj
 0001:00158444       ?FrameUnwindToState@__FrameHandler4@@SAXPEA_KPEAU_xDISPATCHER_CONTEXT@@PEAUFuncInfo4@@H@Z 0000000180159444 f   libvcruntime:frame.obj
 0001:00158720       ?GetHandlerSearchState@__FrameHandler3@@SAHPEA_KPEAU_xDISPATCHER_CONTEXT@@PEBU_s_FuncInfo@@@Z 0000000180159720 f i libvcruntime:frame.obj
 0001:001587b8       ?GetHandlerSearchState@__FrameHandler4@@SAHPEA_KPEAU_xDISPATCHER_CONTEXT@@PEAUFuncInfo4@@@Z 00000001801597b8 f i libvcruntime:frame.obj
 0001:001587f0       ?GetMaxState@__FrameHandler3@@SAHPEAU_xDISPATCHER_CONTEXT@@PEBU_s_FuncInfo@@@Z 00000001801597f0 f i libvcruntime:frame.obj
 0001:001587f4       ?GetMaxState@__FrameHandler4@@SAHPEAU_xDISPATCHER_CONTEXT@@PEAUFuncInfo4@@@Z 00000001801597f4 f i libvcruntime:frame.obj
 0001:00158998       ?ReadEntry@UWMap@@AEAAXXZ  0000000180159998 f i libvcruntime:frame.obj
 0001:00158a34       ?TypeMatch@__FrameHandler3@@SAHPEBU_s_HandlerType@@PEBU_s_CatchableType@@PEBU_s_ThrowInfo@@@Z 0000000180159a34 f   libvcruntime:frame.obj
 0001:00158a3c       ?TypeMatch@__FrameHandler4@@SAHPEAUHandlerType4@@PEBU_s_CatchableType@@PEBU_s_ThrowInfo@@@Z 0000000180159a3c f   libvcruntime:frame.obj
 0001:00158a44       ?WalkBack@UWMap@@AEAAPEAEXZ 0000000180159a44 f i libvcruntime:frame.obj
 0001:00158a74       ?_CallMemberFunction1@@YAXQEAX00@Z 0000000180159a74 f i libvcruntime:frame.obj
 0001:00158a80       ?_CallMemberFunction2@@YAXQEAX00H@Z 0000000180159a80 f i libvcruntime:frame.obj
 0001:00158a90       ?_ValidateExecute@@YA_NP6A_JXZ@Z 0000000180159a90 f i libvcruntime:frame.obj
 0001:00158a98       ?_ValidateRead@@YA_NPEBXI@Z 0000000180159a98 f i libvcruntime:frame.obj
 0001:00158aa0       ?_ValidateWrite@@YA_NPEAXI@Z 0000000180159aa0 f i libvcruntime:frame.obj
 0001:00158abc       ?begin@HandlerMap@__FrameHandler3@@QEAA?AViterator@12@XZ 0000000180159abc f i libvcruntime:frame.obj
 0001:00158ac8       ?begin@HandlerMap@__FrameHandler4@@QEAA?AViterator@12@XZ 0000000180159ac8 f i libvcruntime:frame.obj
 0001:00158ad4       ?begin@UWMap@@QEAA?AViterator@1@XZ 0000000180159ad4 f i libvcruntime:frame.obj
 0001:00158ae4       ?end@HandlerMap@__FrameHandler3@@QEAA?AViterator@12@XZ 0000000180159ae4 f i libvcruntime:frame.obj
 0001:00158af0       ?end@HandlerMap@__FrameHandler4@@QEAA?AViterator@12@XZ 0000000180159af0 f i libvcruntime:frame.obj
 0001:00158afc       ?getESTypes@__FrameHandler3@@SAPEBU_s_ESTypeList@@PEBU_s_FuncInfo@@@Z 0000000180159afc f i libvcruntime:frame.obj
 0001:00158b24       ?getESTypes@__FrameHandler4@@SAPEBU_s_ESTypeList@@PEAUFuncInfo4@@@Z 0000000180159b24 f i libvcruntime:frame.obj
 0001:00158b28       ?getLastEntry@HandlerMap@__FrameHandler3@@QEAAPEBU_s_HandlerType@@XZ 0000000180159b28 f i libvcruntime:frame.obj
 0001:00158b3c       ?getLastEntry@HandlerMap@__FrameHandler4@@QEAAPEAUHandlerType4@@XZ 0000000180159b3c f i libvcruntime:frame.obj
 0001:00158b8c       ?getMagicNum@__FrameHandler3@@SAIPEBU_s_FuncInfo@@@Z 0000000180159b8c f i libvcruntime:frame.obj
 0001:00158b94       ?getMagicNum@__FrameHandler4@@SAIPEAUFuncInfo4@@@Z 0000000180159b94 f i libvcruntime:frame.obj
 0001:00158b9c       ?getNumTryBlocks@TryBlockMap@__FrameHandler3@@QEAAIXZ 0000000180159b9c f i libvcruntime:frame.obj
 0001:00158ba4       ?getNumTryBlocks@TryBlockMap@__FrameHandler4@@QEAAIXZ 0000000180159ba4 f i libvcruntime:frame.obj
 0001:00158ba8       ?getOffsetIter@UWMap@@QEAA?AViterator@1@_J@Z 0000000180159ba8 f i libvcruntime:frame.obj
 0001:00158bbc       ?getStartStop@UWMap@@QEAAXHHAEAViterator@1@0@Z 0000000180159bbc f i libvcruntime:frame.obj
 0001:00158c60       ?getStateIter@UWMap@@QEAA?AViterator@1@H@Z 0000000180159c60 f i libvcruntime:frame.obj
 0001:00158ce8       ?isEHs@__FrameHandler3@@SA_NPEBU_s_FuncInfo@@@Z 0000000180159ce8 f i libvcruntime:frame.obj
 0001:00158cf0       ?isEHs@__FrameHandler4@@SA_NPEAUFuncInfo4@@@Z 0000000180159cf0 f i libvcruntime:frame.obj
 0001:00158cf8       ?isNoExcept@__FrameHandler3@@SA_NPEBU_s_FuncInfo@@@Z 0000000180159cf8 f i libvcruntime:frame.obj
 0001:00158d04       ?isNoExcept@__FrameHandler4@@SA_NPEAUFuncInfo4@@@Z 0000000180159d04 f i libvcruntime:frame.obj
 0001:00158d0c       ?reset@HandlerType4@@QEAAXXZ 0000000180159d0c f i libvcruntime:frame.obj
 0001:00158d20       ?resetBuffer@HandlerMap@__FrameHandler4@@QEAAXXZ 0000000180159d20 f i libvcruntime:frame.obj
 0001:00158d30       ?setBuffer@HandlerMap@__FrameHandler4@@QEAAXI@Z 0000000180159d30 f i libvcruntime:frame.obj
 0001:00158d6c       ?what@exception@std@@UEBAPEBDXZ 0000000180159d6c f i libvcruntime:frame.obj
 0001:00158d80       __BuildCatchObject         0000000180159d80 f   libvcruntime:frame.obj
 0001:00158d88       __BuildCatchObjectHelper   0000000180159d88 f   libvcruntime:frame.obj
 0001:00158d90       __TypeMatch                0000000180159d90 f   libvcruntime:frame.obj
 0001:00158d98       __vcrt_EncodePointer       0000000180159d98 f i libvcruntime:frame.obj
 0001:00158db0       _CallSettingFrame          0000000180159db0 f   libvcruntime:handlers.obj
 0001:00158e00       _CallSettingFrameEncoded   0000000180159e00 f   libvcruntime:handlers.obj
 0001:00158e48       ??$?RD@__crt_public_free_policy@@QEBAXQEBD@Z 0000000180159e48 f i libvcruntime:std_exception.obj
 0001:00158e50       ??0?$__crt_unique_heap_ptr@DU__crt_public_free_policy@@@@QEAA@QEAD@Z 0000000180159e50 f i libvcruntime:std_exception.obj
 0001:00158e58       ??1?$__crt_unique_heap_ptr@DU__crt_public_free_policy@@@@QEAA@XZ 0000000180159e58 f i libvcruntime:std_exception.obj
 0001:00158e74       ??B?$__crt_unique_heap_ptr@DU__crt_public_free_policy@@@@QEBA_NXZ 0000000180159e74 f i libvcruntime:std_exception.obj
 0001:00158e7c       ?detach@?$__crt_unique_heap_ptr@DU__crt_public_free_policy@@@@QEAAPEADXZ 0000000180159e7c f i libvcruntime:std_exception.obj
 0001:00158e84       ?get@?$__crt_unique_heap_ptr@DU__crt_public_free_policy@@@@QEBAPEADXZ 0000000180159e84 f i libvcruntime:std_exception.obj
 0001:00158e88       ?is_valid@?$__crt_unique_heap_ptr@DU__crt_public_free_policy@@@@QEBA_NXZ 0000000180159e88 f i libvcruntime:std_exception.obj
 0001:00158e90       ?release@?$__crt_unique_heap_ptr@DU__crt_public_free_policy@@@@QEAAXXZ 0000000180159e90 f i libvcruntime:std_exception.obj
 0001:00158eac       __std_exception_copy       0000000180159eac f   libvcruntime:std_exception.obj
 0001:00158f3c       __std_exception_destroy    0000000180159f3c f   libvcruntime:std_exception.obj
 0001:00158f64       _CxxThrowException         0000000180159f64 f   libvcruntime:throw.obj
 0001:00159030       cosf                       000000018015a030 f   libucrt:cosf.obj
 0001:00159530       sinf                       000000018015a530 f   libucrt:sinf.obj
 0001:00159c30       tanf                       000000018015ac30 f   libucrt:tanf.obj
 0001:0015a2c0       strcmp                     000000018015b2c0 f   libucrt:strcmp.obj
 0001:0015a328       _fpclass                   000000018015b328 f   libucrt:ieeemisc.obj
 0001:0015a3b0       _fpclassf                  000000018015b3b0 f   libucrt:ieeemisc.obj
 0001:0015a41c       _isnan                     000000018015b41c f   libucrt:ieeemisc.obj
 0001:0015a448       _isnanf                    000000018015b448 f   libucrt:ieeemisc.obj
 0001:0015a464       _nextafter                 000000018015b464 f   libucrt:ieeemisc.obj
 0001:0015a46c       _nextafterf                000000018015b46c f   libucrt:ieeemisc.obj
 0001:0015a474       _scalb                     000000018015b474 f   libucrt:ieeemisc.obj
 0001:0015a620       _scalbf                    000000018015b620 f   libucrt:ieeemisc.obj
 0001:0015a7c0       free                       000000018015b7c0 f   libucrt:free.obj
 0001:0015a7d4       _initterm                  000000018015b7d4 f   libucrt:initterm.obj
 0001:0015a838       _initterm_e                000000018015b838 f   libucrt:initterm.obj
 0001:0015a898       _seh_filter_dll            000000018015b898 f   libucrt:exception_filter.obj
 0001:0015a8ac       _seh_filter_exe            000000018015b8ac f   libucrt:exception_filter.obj
 0001:0015aa30       ??$?B$$A6AXPEAXK0@Z@__crt_fast_encoded_nullptr_t@@QEBAP6AXPEAXK0@ZXZ 000000018015ba30 f i libucrt:exit.obj
 0001:0015aa98       ??$__crt_fast_decode_pointer@P6AXPEAXK0@Z@@YAP6AXPEAXK0@ZQ6AX0K0@Z@Z 000000018015ba98 f i libucrt:exit.obj
 0001:0015aab0       ??$__crt_fast_encode_pointer@P6AXPEAXK0@Z@@YAP6AXPEAXK0@ZQ6AX0K0@Z@Z 000000018015bab0 f i libucrt:exit.obj
 0001:0015aad0       ??$__crt_get_proc_address@P6AXI@Z@@YAP6AXI@ZQEAUHINSTANCE__@@QEBD@Z 000000018015bad0 f i libucrt:exit.obj
 0001:0015aad8       ??$__crt_interlocked_read@J@@YAJPEDJ@Z 000000018015bad8 f i libucrt:exit.obj
 0001:0015aafc       ??0?$__crt_unique_handle_t@U__crt_hmodule_traits@@@@QEAA@QEAUHINSTANCE__@@@Z 000000018015bafc f i libucrt:exit.obj
 0001:0015ab04       ??1?$__crt_unique_handle_t@U__crt_hmodule_traits@@@@QEAA@XZ 000000018015bb04 f i libucrt:exit.obj
 0001:0015abfc       ?__acrt_select_exit_lock@@YA?AW4__acrt_lock_id@@XZ 000000018015bbfc f i libucrt:exit.obj
 0001:0015ac04       ?__crt_interlocked_read_32@@YAHPEDH@Z 000000018015bc04 f i libucrt:exit.obj
 0001:0015ac14       ?close@?$__crt_unique_handle_t@U__crt_hmodule_traits@@@@QEAAXXZ 000000018015bc14 f i libucrt:exit.obj
 0001:0015ac38       ?close@__crt_hmodule_traits@@SA_NPEAUHINSTANCE__@@@Z 000000018015bc38 f i libucrt:exit.obj
 0001:0015ad54       ?get@?$__crt_unique_handle_t@U__crt_hmodule_traits@@@@QEBAPEAUHINSTANCE__@@XZ 000000018015bd54 f i libucrt:exit.obj
 0001:0015ad58       ?get_address_of@?$__crt_unique_handle_t@U__crt_hmodule_traits@@@@QEAAPEAPEAUHINSTANCE__@@XZ 000000018015bd58 f i libucrt:exit.obj
 0001:0015ad5c       ?get_invalid_value@__crt_hmodule_traits@@SAPEAUHINSTANCE__@@XZ 000000018015bd5c f i libucrt:exit.obj
 0001:0015ae40       _Exit                      000000018015be40 f   libucrt:exit.obj
 0001:0015ae4c       __acrt_initialize_thread_local_exit_callback 000000018015be4c f   libucrt:exit.obj
 0001:0015ae54       _c_exit                    000000018015be54 f   libucrt:exit.obj
 0001:0015ae64       _cexit                     000000018015be64 f   libucrt:exit.obj
 0001:0015ae74       _exit                      000000018015be74 f   libucrt:exit.obj
 0001:0015ae80       _is_c_termination_complete 000000018015be80 f   libucrt:exit.obj
 0001:0015ae88       _register_thread_local_exe_atexit_callback 000000018015be88 f   libucrt:exit.obj
 0001:0015aec4       exit                       000000018015bec4 f   libucrt:exit.obj
 0001:0015aed0       quick_exit                 000000018015bed0 f   libucrt:exit.obj
 0001:0015aedc       ??$?RE@__crt_internal_free_policy@@QEBAXQEBE@Z 000000018015bedc f i libucrt:argv_parsing.obj
 0001:0015aee4       ??$?RPEAD@__crt_internal_free_policy@@QEBAXQEBQEAD@Z 000000018015bee4 f i libucrt:argv_parsing.obj
 0001:0015aeec       ??$?RPEA_W@__crt_internal_free_policy@@QEBAXQEBQEA_W@Z 000000018015beec f i libucrt:argv_parsing.obj
 0001:0015b1e0       ??$get_module_file_name@$$TAEAY0BAF@DH@?$__crt_char_traits@D@@SAK$$QEA$$TAEAY0BAF@D$$QEAH@Z 000000018015c1e0 f i libucrt:argv_parsing.obj
 0001:0015b1ec       ??$get_module_file_name@$$TAEAY0BAF@_WH@?$__crt_char_traits@_W@@SAK$$QEA$$TAEAY0BAF@_W$$QEAH@Z 000000018015c1ec f i libucrt:argv_parsing.obj
 0001:0015b55c       ??$set_program_name@PEAD@?$__crt_char_traits@D@@SAX$$QEAPEAD@Z 000000018015c55c f i libucrt:argv_parsing.obj
 0001:0015b568       ??$set_program_name@PEA_W@?$__crt_char_traits@_W@@SAX$$QEAPEA_W@Z 000000018015c568 f i libucrt:argv_parsing.obj
 0001:0015b584       ??0?$__crt_unique_heap_ptr@EU__crt_internal_free_policy@@@@QEAA@QEAE@Z 000000018015c584 f i libucrt:argv_parsing.obj
 0001:0015b58c       ??0?$__crt_unique_heap_ptr@PEADU__crt_internal_free_policy@@@@QEAA@QEAPEAD@Z 000000018015c58c f i libucrt:argv_parsing.obj
 0001:0015b594       ??0?$__crt_unique_heap_ptr@PEA_WU__crt_internal_free_policy@@@@QEAA@QEAPEA_W@Z 000000018015c594 f i libucrt:argv_parsing.obj
 0001:0015b59c       ??1?$__crt_unique_heap_ptr@EU__crt_internal_free_policy@@@@QEAA@XZ 000000018015c59c f i libucrt:argv_parsing.obj
 0001:0015b5b8       ??1?$__crt_unique_heap_ptr@PEADU__crt_internal_free_policy@@@@QEAA@XZ 000000018015c5b8 f i libucrt:argv_parsing.obj
 0001:0015b5d4       ??1?$__crt_unique_heap_ptr@PEA_WU__crt_internal_free_policy@@@@QEAA@XZ 000000018015c5d4 f i libucrt:argv_parsing.obj
 0001:0015b5f0       ??B?$__crt_unique_heap_ptr@EU__crt_internal_free_policy@@@@QEBA_NXZ 000000018015c5f0 f i libucrt:argv_parsing.obj
 0001:0015b630       ?detach@?$__crt_unique_heap_ptr@EU__crt_internal_free_policy@@@@QEAAPEAEXZ 000000018015c630 f i libucrt:argv_parsing.obj
 0001:0015b638       ?detach@?$__crt_unique_heap_ptr@PEADU__crt_internal_free_policy@@@@QEAAPEAPEADXZ 000000018015c638 f i libucrt:argv_parsing.obj
 0001:0015b640       ?detach@?$__crt_unique_heap_ptr@PEA_WU__crt_internal_free_policy@@@@QEAAPEAPEA_WXZ 000000018015c640 f i libucrt:argv_parsing.obj
 0001:0015b664       ?get@?$__crt_unique_heap_ptr@EU__crt_internal_free_policy@@@@QEBAPEAEXZ 000000018015c664 f i libucrt:argv_parsing.obj
 0001:0015b668       ?get@?$__crt_unique_heap_ptr@PEADU__crt_internal_free_policy@@@@QEBAPEAPEADXZ 000000018015c668 f i libucrt:argv_parsing.obj
 0001:0015b66c       ?get@?$__crt_unique_heap_ptr@PEA_WU__crt_internal_free_policy@@@@QEBAPEAPEA_WXZ 000000018015c66c f i libucrt:argv_parsing.obj
 0001:0015b670       ?get_address_of@?$__crt_unique_heap_ptr@PEADU__crt_internal_free_policy@@@@QEAAPEAPEAPEADXZ 000000018015c670 f i libucrt:argv_parsing.obj
 0001:0015b674       ?get_address_of@?$__crt_unique_heap_ptr@PEA_WU__crt_internal_free_policy@@@@QEAAPEAPEAPEA_WXZ 000000018015c674 f i libucrt:argv_parsing.obj
 0001:0015b698       ?is_valid@?$__crt_unique_heap_ptr@EU__crt_internal_free_policy@@@@QEBA_NXZ 000000018015c698 f i libucrt:argv_parsing.obj
 0001:0015b6a0       ?release@?$__crt_unique_heap_ptr@EU__crt_internal_free_policy@@@@QEAAXXZ 000000018015c6a0 f i libucrt:argv_parsing.obj
 0001:0015b6bc       ?release@?$__crt_unique_heap_ptr@PEADU__crt_internal_free_policy@@@@QEAAXXZ 000000018015c6bc f i libucrt:argv_parsing.obj
 0001:0015b6d8       ?release@?$__crt_unique_heap_ptr@PEA_WU__crt_internal_free_policy@@@@QEAAXXZ 000000018015c6d8 f i libucrt:argv_parsing.obj
 0001:0015b710       __acrt_allocate_buffer_for_argv 000000018015c710 f   libucrt:argv_parsing.obj
 0001:0015b770       _configure_narrow_argv     000000018015c770 f   libucrt:argv_parsing.obj
 0001:0015b8f8       _configure_wide_argv       000000018015c8f8 f   libucrt:argv_parsing.obj
 0001:0015ba7c       _set_pgmptr                000000018015ca7c f i libucrt:argv_parsing.obj
 0001:0015ba84       _set_wpgmptr               000000018015ca84 f i libucrt:argv_parsing.obj
 0001:0015ba8c       ??$?R_W@__crt_internal_free_policy@@QEBAXQEB_W@Z 000000018015ca8c f i libucrt:environment_initialization.obj
 0001:0015bf94       ??$get_environment_from_os@$$V@?$__crt_char_traits@D@@SAPEADXZ 000000018015cf94 f i libucrt:environment_initialization.obj
 0001:0015bf9c       ??$get_environment_from_os@$$V@?$__crt_char_traits@_W@@SAPEA_WXZ 000000018015cf9c f i libucrt:environment_initialization.obj
 0001:0015c12c       ??$set_variable_in_environment_nolock@PEADH@?$__crt_char_traits@D@@SAH$$QEAPEAD$$QEAH@Z 000000018015d12c f i libucrt:environment_initialization.obj
 0001:0015c138       ??$set_variable_in_environment_nolock@PEA_WH@?$__crt_char_traits@_W@@SAH$$QEAPEA_W$$QEAH@Z 000000018015d138 f i libucrt:environment_initialization.obj
 0001:0015c144       ??$tcscpy_s@PEADAEB_KAEAPEAD@?$__crt_char_traits@D@@SAH$$QEAPEADAEB_KAEAPEAD@Z 000000018015d144 f i libucrt:environment_initialization.obj
 0001:0015c154       ??$tcscpy_s@PEA_WAEB_KAEAPEA_W@?$__crt_char_traits@_W@@SAH$$QEAPEA_WAEB_KAEAPEA_W@Z 000000018015d154 f i libucrt:environment_initialization.obj
 0001:0015c164       ??$tcslen@AEAPEAD@?$__crt_char_traits@D@@SA_KAEAPEAD@Z 000000018015d164 f i libucrt:environment_initialization.obj
 0001:0015c178       ??$tcslen@AEAPEA_W@?$__crt_char_traits@_W@@SA_KAEAPEA_W@Z 000000018015d178 f i libucrt:environment_initialization.obj
 0001:0015c18c       ??$uninitialize@A6AXAEAPEAPEAD@Z@?$dual_state_global@PEAPEAD@__crt_state_management@@QEAAXA6AXAEAPEAPEAD@Z@Z 000000018015d18c f i libucrt:environment_initialization.obj
 0001:0015c1d0       ??$uninitialize@A6AXAEAPEAPEA_W@Z@?$dual_state_global@PEAPEA_W@__crt_state_management@@QEAAXA6AXAEAPEAPEA_W@Z@Z 000000018015d1d0 f i libucrt:environment_initialization.obj
 0001:0015c24c       ??0?$__crt_unique_heap_ptr@_WU__crt_internal_free_policy@@@@QEAA@QEA_W@Z 000000018015d24c f i libucrt:environment_initialization.obj
 0001:0015c254       ??1?$__crt_unique_heap_ptr@_WU__crt_internal_free_policy@@@@QEAA@XZ 000000018015d254 f i libucrt:environment_initialization.obj
 0001:0015c270       ??B?$__crt_unique_heap_ptr@PEADU__crt_internal_free_policy@@@@QEBA_NXZ 000000018015d270 f i libucrt:environment_initialization.obj
 0001:0015c278       ??B?$__crt_unique_heap_ptr@PEA_WU__crt_internal_free_policy@@@@QEBA_NXZ 000000018015d278 f i libucrt:environment_initialization.obj
 0001:0015c280       ??B?$__crt_unique_heap_ptr@_WU__crt_internal_free_policy@@@@QEBA_NXZ 000000018015d280 f i libucrt:environment_initialization.obj
 0001:0015c288       ?__crt_compute_required_transform_buffer_count@@YA_KIQEBD@Z 000000018015d288 f i libucrt:environment_initialization.obj
 0001:0015c2ac       ?__crt_compute_required_transform_buffer_count@@YA_KIQEB_W@Z 000000018015d2ac f i libucrt:environment_initialization.obj
 0001:0015c2dc       ?__crt_transform_string@@YA_KIQEBDQEA_W_K@Z 000000018015d2dc f i libucrt:environment_initialization.obj
 0001:0015c300       ?__crt_transform_string@@YA_KIQEB_WQEAD_K@Z 000000018015d300 f i libucrt:environment_initialization.obj
 0001:0015c330       ?detach@?$__crt_unique_heap_ptr@DU__crt_internal_free_policy@@@@QEAAPEADXZ 000000018015d330 f i libucrt:environment_initialization.obj
 0001:0015c338       ?detach@?$__crt_unique_heap_ptr@_WU__crt_internal_free_policy@@@@QEAAPEA_WXZ 000000018015d338 f i libucrt:environment_initialization.obj
 0001:0015c340       ?get@?$__crt_unique_heap_ptr@_WU__crt_internal_free_policy@@@@QEBAPEA_WXZ 000000018015d340 f i libucrt:environment_initialization.obj
 0001:0015c344       ?get_current_state_index@__crt_state_management@@YA_KXZ 000000018015d344 f i libucrt:environment_initialization.obj
 0001:0015c378       ?initialize@?$dual_state_global@PEAPEAD@__crt_state_management@@QEAAXQEAPEAD@Z 000000018015d378 f i libucrt:environment_initialization.obj
 0001:0015c3a0       ?initialize@?$dual_state_global@PEAPEA_W@__crt_state_management@@QEAAXQEAPEA_W@Z 000000018015d3a0 f i libucrt:environment_initialization.obj
 0001:0015c3c8       ?is_valid@?$__crt_unique_heap_ptr@PEADU__crt_internal_free_policy@@@@QEBA_NXZ 000000018015d3c8 f i libucrt:environment_initialization.obj
 0001:0015c3d0       ?is_valid@?$__crt_unique_heap_ptr@PEA_WU__crt_internal_free_policy@@@@QEBA_NXZ 000000018015d3d0 f i libucrt:environment_initialization.obj
 0001:0015c3d8       ?is_valid@?$__crt_unique_heap_ptr@_WU__crt_internal_free_policy@@@@QEBA_NXZ 000000018015d3d8 f i libucrt:environment_initialization.obj
 0001:0015c3ec       ?release@?$__crt_unique_heap_ptr@_WU__crt_internal_free_policy@@@@QEAAXXZ 000000018015d3ec f i libucrt:environment_initialization.obj
 0001:0015c408       ?value@?$dual_state_global@PEAPEAD@__crt_state_management@@QEAAAEAPEAPEADXZ 000000018015d408 f i libucrt:environment_initialization.obj
 0001:0015c40c       ?value@?$dual_state_global@PEAPEA_W@__crt_state_management@@QEAAAEAPEAPEA_WXZ 000000018015d40c f i libucrt:environment_initialization.obj
 0001:0015c410       __dcrt_get_or_create_narrow_environment_nolock 000000018015d410 f   libucrt:environment_initialization.obj
 0001:0015c44c       __dcrt_get_or_create_wide_environment_nolock 000000018015d44c f   libucrt:environment_initialization.obj
 0001:0015c488       __dcrt_uninitialize_environments_nolock 000000018015d488 f   libucrt:environment_initialization.obj
 0001:0015c4c0       __p__environ               000000018015d4c0 f   libucrt:environment_initialization.obj
 0001:0015c4c8       __p__wenviron              000000018015d4c8 f   libucrt:environment_initialization.obj
 0001:0015c4d0       _get_initial_narrow_environment 000000018015d4d0 f   libucrt:environment_initialization.obj
 0001:0015c520       _get_initial_wide_environment 000000018015d520 f   libucrt:environment_initialization.obj
 0001:0015c570       _initialize_narrow_environment 000000018015d570 f   libucrt:environment_initialization.obj
 0001:0015c578       _initialize_wide_environment 000000018015d578 f   libucrt:environment_initialization.obj
 0001:0015c580       _invoke_watson_if_error    000000018015d580 f i libucrt:environment_initialization.obj
 0001:0015c5b4       ??$?BP6AXXZ@__crt_fast_encoded_nullptr_t@@QEBAPEAP6AXXZXZ 000000018015d5b4 f i libucrt:onexit.obj
 0001:0015c5bc       ??$?RP6AXXZ@__crt_internal_free_policy@@QEBAXQEBQ6AXXZ@Z 000000018015d5bc f i libucrt:onexit.obj
 0001:0015c68c       ??$__crt_fast_encode_pointer@P6AHXZ@@YAP6AHXZQ6AHXZ@Z 000000018015d68c f i libucrt:onexit.obj
 0001:0015c6e0       ??0?$__crt_unique_heap_ptr@P6AXXZU__crt_internal_free_policy@@@@QEAA@QEAP6AXXZ@Z 000000018015d6e0 f i libucrt:onexit.obj
 0001:0015c6e8       ??1?$__crt_unique_heap_ptr@P6AXXZU__crt_internal_free_policy@@@@QEAA@XZ 000000018015d6e8 f i libucrt:onexit.obj
 0001:0015c704       ??1scoped_global_state_reset@__crt_state_management@@QEAA@XZ 000000018015d704 f i libucrt:onexit.obj
 0001:0015c9f0       ?detach@?$__crt_unique_heap_ptr@P6AXXZU__crt_internal_free_policy@@@@QEAAPEAP6AXXZXZ 000000018015d9f0 f i libucrt:onexit.obj
 0001:0015c9f8       ?release@?$__crt_unique_heap_ptr@P6AXXZU__crt_internal_free_policy@@@@QEAAXXZ 000000018015d9f8 f i libucrt:onexit.obj
 0001:0015ca14       _crt_at_quick_exit         000000018015da14 f   libucrt:onexit.obj
 0001:0015ca24       _crt_atexit                000000018015da24 f   libucrt:onexit.obj
 0001:0015ca34       _execute_onexit_table      000000018015da34 f   libucrt:onexit.obj
 0001:0015ca70       _initialize_onexit_table   000000018015da70 f   libucrt:onexit.obj
 0001:0015ca98       _register_onexit_function  000000018015da98 f   libucrt:onexit.obj
 0001:0015ccd0       ?__acrt_stdio_is_initialized@@YA_NXZ 000000018015dcd0 f i libucrt:initialization.obj
 0001:0015ccdc       ?initialize@?$dual_state_global@PEAU__crt_locale_data@@@__crt_state_management@@QEAAXQEAU__crt_locale_data@@@Z 000000018015dcdc f i libucrt:initialization.obj
 0001:0015cd04       __acrt_initialize          000000018015dd04 f   libucrt:initialization.obj
 0001:0015cd18       __acrt_thread_attach       000000018015dd18 f   libucrt:initialization.obj
 0001:0015cd2c       __acrt_thread_detach       000000018015dd2c f   libucrt:initialization.obj
 0001:0015cd3c       __acrt_uninitialize        000000018015dd3c f   libucrt:initialization.obj
 0001:0015cd74       __acrt_uninitialize_critical 000000018015dd74 f   libucrt:initialization.obj
 0001:0015cd98       _get_terminate             000000018015dd98 f   libucrt:terminate.obj
 0001:0015cdbc       set_terminate              000000018015ddbc f   libucrt:terminate.obj
 0001:0015cde8       terminate                  000000018015dde8 f   libucrt:terminate.obj
 0001:0015ce08       _set_abort_behavior        000000018015de08 f   libucrt:abort.obj
 0001:0015ce24       abort                      000000018015de24 f   libucrt:abort.obj
 0001:0015ce7c       malloc                     000000018015de7c f   libucrt:malloc.obj
 0001:0015cee8       strcpy_s                   000000018015dee8 f   libucrt:strcpy_s.obj
 0001:0015cf48       ??$?0AEBV?$stream_output_adapter@D@__crt_stdio_output@@AEB_KAEBQEBDAEBQEAU__crt_locale_pointers@@AEBQEAD@?$format_validation_base@DV?$stream_output_adapter@D@__crt_stdio_output@@@__crt_stdio_output@@IEAA@AEBV?$stream_output_adapter@D@1@AEB_KAEBQEBDAEBQEAU__crt_locale_pointers@@AEBQEAD@Z 000000018015df48 f i libucrt:output.obj
 0001:0015cfcc       ??$?0AEBV?$stream_output_adapter@D@__crt_stdio_output@@AEB_KAEBQEBDAEBQEAU__crt_locale_pointers@@AEBQEAD@?$positional_parameter_base@DV?$stream_output_adapter@D@__crt_stdio_output@@@__crt_stdio_output@@IEAA@AEBV?$stream_output_adapter@D@1@AEB_KAEBQEBDAEBQEAU__crt_locale_pointers@@AEBQEAD@Z 000000018015dfcc f i libucrt:output.obj
 0001:0015d06c       ??$?0AEBV?$stream_output_adapter@D@__crt_stdio_output@@AEB_KAEBQEBDAEBQEAU__crt_locale_pointers@@AEBQEAD@?$standard_base@DV?$stream_output_adapter@D@__crt_stdio_output@@@__crt_stdio_output@@IEAA@AEBV?$stream_output_adapter@D@1@AEB_KAEBQEBDAEBQEAU__crt_locale_pointers@@AEBQEAD@Z 000000018015e06c f i libucrt:output.obj
 0001:0015d0f0       ??$?0AEBV?$stream_output_adapter@_W@__crt_stdio_output@@AEB_KAEBQEB_WAEBQEAU__crt_locale_pointers@@AEBQEAD@?$format_validation_base@_WV?$stream_output_adapter@_W@__crt_stdio_output@@@__crt_stdio_output@@IEAA@AEBV?$stream_output_adapter@_W@1@AEB_KAEBQEB_WAEBQEAU__crt_locale_pointers@@AEBQEAD@Z 000000018015e0f0 f i libucrt:output.obj
 0001:0015d178       ??$?0AEBV?$stream_output_adapter@_W@__crt_stdio_output@@AEB_KAEBQEB_WAEBQEAU__crt_locale_pointers@@AEBQEAD@?$positional_parameter_base@_WV?$stream_output_adapter@_W@__crt_stdio_output@@@__crt_stdio_output@@IEAA@AEBV?$stream_output_adapter@_W@1@AEB_KAEBQEB_WAEBQEAU__crt_locale_pointers@@AEBQEAD@Z 000000018015e178 f i libucrt:output.obj
 0001:0015d21c       ??$?0AEBV?$stream_output_adapter@_W@__crt_stdio_output@@AEB_KAEBQEB_WAEBQEAU__crt_locale_pointers@@AEBQEAD@?$standard_base@_WV?$stream_output_adapter@_W@__crt_stdio_output@@@__crt_stdio_output@@IEAA@AEBV?$stream_output_adapter@_W@1@AEB_KAEBQEB_WAEBQEAU__crt_locale_pointers@@AEBQEAD@Z 000000018015e21c f i libucrt:output.obj
 0001:0015d2a4       ??$?0AEBV?$string_output_adapter@D@__crt_stdio_output@@AEB_KAEBQEBDAEBQEAU__crt_locale_pointers@@AEBQEAD@?$format_validation_base@DV?$string_output_adapter@D@__crt_stdio_output@@@__crt_stdio_output@@IEAA@AEBV?$string_output_adapter@D@1@AEB_KAEBQEBDAEBQEAU__crt_locale_pointers@@AEBQEAD@Z 000000018015e2a4 f i libucrt:output.obj
 0001:0015d328       ??$?0AEBV?$string_output_adapter@D@__crt_stdio_output@@AEB_KAEBQEBDAEBQEAU__crt_locale_pointers@@AEBQEAD@?$positional_parameter_base@DV?$string_output_adapter@D@__crt_stdio_output@@@__crt_stdio_output@@IEAA@AEBV?$string_output_adapter@D@1@AEB_KAEBQEBDAEBQEAU__crt_locale_pointers@@AEBQEAD@Z 000000018015e328 f i libucrt:output.obj
 0001:0015d3c8       ??$?0AEBV?$string_output_adapter@D@__crt_stdio_output@@AEB_KAEBQEBDAEBQEAU__crt_locale_pointers@@AEBQEAD@?$standard_base@DV?$string_output_adapter@D@__crt_stdio_output@@@__crt_stdio_output@@IEAA@AEBV?$string_output_adapter@D@1@AEB_KAEBQEBDAEBQEAU__crt_locale_pointers@@AEBQEAD@Z 000000018015e3c8 f i libucrt:output.obj
 0001:0015d44c       ??$?0AEBV?$string_output_adapter@_W@__crt_stdio_output@@AEB_KAEBQEB_WAEBQEAU__crt_locale_pointers@@AEBQEAD@?$format_validation_base@_WV?$string_output_adapter@_W@__crt_stdio_output@@@__crt_stdio_output@@IEAA@AEBV?$string_output_adapter@_W@1@AEB_KAEBQEB_WAEBQEAU__crt_locale_pointers@@AEBQEAD@Z 000000018015e44c f i libucrt:output.obj
 0001:0015d4d4       ??$?0AEBV?$string_output_adapter@_W@__crt_stdio_output@@AEB_KAEBQEB_WAEBQEAU__crt_locale_pointers@@AEBQEAD@?$positional_parameter_base@_WV?$string_output_adapter@_W@__crt_stdio_output@@@__crt_stdio_output@@IEAA@AEBV?$string_output_adapter@_W@1@AEB_KAEBQEB_WAEBQEAU__crt_locale_pointers@@AEBQEAD@Z 000000018015e4d4 f i libucrt:output.obj
 0001:0015d578       ??$?0AEBV?$string_output_adapter@_W@__crt_stdio_output@@AEB_KAEBQEB_WAEBQEAU__crt_locale_pointers@@AEBQEAD@?$standard_base@_WV?$string_output_adapter@_W@__crt_stdio_output@@@__crt_stdio_output@@IEAA@AEBV?$string_output_adapter@_W@1@AEB_KAEBQEB_WAEBQEAU__crt_locale_pointers@@AEBQEAD@Z 000000018015e578 f i libucrt:output.obj
 0001:0015e9fc       ??$count@D@formatting_buffer@__crt_stdio_output@@QEBA_KXZ 000000018015f9fc f i libucrt:output.obj
 0001:0015ea18       ??$count@_W@formatting_buffer@__crt_stdio_output@@QEBA_KXZ 000000018015fa18 f i libucrt:output.obj
 0001:0015ea34       ??$data@D@formatting_buffer@__crt_stdio_output@@QEAAPEADXZ 000000018015fa34 f i libucrt:output.obj
 0001:0015ea44       ??$data@_W@formatting_buffer@__crt_stdio_output@@QEAAPEA_WXZ 000000018015fa44 f i libucrt:output.obj
 0001:0015ea54       ??$ensure_buffer_is_big_enough@D@formatting_buffer@__crt_stdio_output@@QEAA_N_K@Z 000000018015fa54 f i libucrt:output.obj
 0001:0015eafc       ??$ensure_buffer_is_big_enough@_W@formatting_buffer@__crt_stdio_output@@QEAA_N_K@Z 000000018015fafc f i libucrt:output.obj
 0001:0015eba8       ??$extract_argument_from_va_list@C_J@?$positional_parameter_base@DV?$stream_output_adapter@D@__crt_stdio_output@@@__crt_stdio_output@@IEAA_NAEA_J@Z 000000018015fba8 f i libucrt:output.obj
 0001:0015ec64       ??$extract_argument_from_va_list@C_J@?$positional_parameter_base@DV?$string_output_adapter@D@__crt_stdio_output@@@__crt_stdio_output@@IEAA_NAEA_J@Z 000000018015fc64 f i libucrt:output.obj
 0001:0015ed20       ??$extract_argument_from_va_list@C_J@?$positional_parameter_base@_WV?$stream_output_adapter@_W@__crt_stdio_output@@@__crt_stdio_output@@IEAA_NAEA_J@Z 000000018015fd20 f i libucrt:output.obj
 0001:0015ede0       ??$extract_argument_from_va_list@C_J@?$positional_parameter_base@_WV?$string_output_adapter@_W@__crt_stdio_output@@@__crt_stdio_output@@IEAA_NAEA_J@Z 000000018015fde0 f i libucrt:output.obj
 0001:0015eea0       ??$extract_argument_from_va_list@C_J@?$standard_base@DV?$stream_output_adapter@D@__crt_stdio_output@@@__crt_stdio_output@@IEAA_NAEA_J@Z 000000018015fea0 f i libucrt:output.obj
 0001:0015eeb4       ??$extract_argument_from_va_list@C_J@?$standard_base@DV?$string_output_adapter@D@__crt_stdio_output@@@__crt_stdio_output@@IEAA_NAEA_J@Z 000000018015feb4 f i libucrt:output.obj
 0001:0015eec8       ??$extract_argument_from_va_list@C_J@?$standard_base@_WV?$stream_output_adapter@_W@__crt_stdio_output@@@__crt_stdio_output@@IEAA_NAEA_J@Z 000000018015fec8 f i libucrt:output.obj
 0001:0015eedc       ??$extract_argument_from_va_list@C_J@?$standard_base@_WV?$string_output_adapter@_W@__crt_stdio_output@@@__crt_stdio_output@@IEAA_NAEA_J@Z 000000018015fedc f i libucrt:output.obj
 0001:0015eef0       ??$extract_argument_from_va_list@E_J@?$positional_parameter_base@DV?$stream_output_adapter@D@__crt_stdio_output@@@__crt_stdio_output@@IEAA_NAEA_J@Z 000000018015fef0 f i libucrt:output.obj
 0001:0015efac       ??$extract_argument_from_va_list@E_J@?$positional_parameter_base@DV?$string_output_adapter@D@__crt_stdio_output@@@__crt_stdio_output@@IEAA_NAEA_J@Z 000000018015ffac f i libucrt:output.obj
 0001:0015f068       ??$extract_argument_from_va_list@E_J@?$positional_parameter_base@_WV?$stream_output_adapter@_W@__crt_stdio_output@@@__crt_stdio_output@@IEAA_NAEA_J@Z 0000000180160068 f i libucrt:output.obj
 0001:0015f128       ??$extract_argument_from_va_list@E_J@?$positional_parameter_base@_WV?$string_output_adapter@_W@__crt_stdio_output@@@__crt_stdio_output@@IEAA_NAEA_J@Z 0000000180160128 f i libucrt:output.obj
 0001:0015f1e8       ??$extract_argument_from_va_list@E_J@?$standard_base@DV?$stream_output_adapter@D@__crt_stdio_output@@@__crt_stdio_output@@IEAA_NAEA_J@Z 00000001801601e8 f i libucrt:output.obj
 0001:0015f1fc       ??$extract_argument_from_va_list@E_J@?$standard_base@DV?$string_output_adapter@D@__crt_stdio_output@@@__crt_stdio_output@@IEAA_NAEA_J@Z 00000001801601fc f i libucrt:output.obj
 0001:0015f210       ??$extract_argument_from_va_list@E_J@?$standard_base@_WV?$stream_output_adapter@_W@__crt_stdio_output@@@__crt_stdio_output@@IEAA_NAEA_J@Z 0000000180160210 f i libucrt:output.obj
 0001:0015f224       ??$extract_argument_from_va_list@E_J@?$standard_base@_WV?$string_output_adapter@_W@__crt_stdio_output@@@__crt_stdio_output@@IEAA_NAEA_J@Z 0000000180160224 f i libucrt:output.obj
 0001:0015f238       ??$extract_argument_from_va_list@F_J@?$positional_parameter_base@DV?$stream_output_adapter@D@__crt_stdio_output@@@__crt_stdio_output@@IEAA_NAEA_J@Z 0000000180160238 f i libucrt:output.obj
 0001:0015f2f4       ??$extract_argument_from_va_list@F_J@?$positional_parameter_base@DV?$string_output_adapter@D@__crt_stdio_output@@@__crt_stdio_output@@IEAA_NAEA_J@Z 00000001801602f4 f i libucrt:output.obj
 0001:0015f3b0       ??$extract_argument_from_va_list@F_J@?$positional_parameter_base@_WV?$stream_output_adapter@_W@__crt_stdio_output@@@__crt_stdio_output@@IEAA_NAEA_J@Z 00000001801603b0 f i libucrt:output.obj
 0001:0015f470       ??$extract_argument_from_va_list@F_J@?$positional_parameter_base@_WV?$string_output_adapter@_W@__crt_stdio_output@@@__crt_stdio_output@@IEAA_NAEA_J@Z 0000000180160470 f i libucrt:output.obj
 0001:0015f530       ??$extract_argument_from_va_list@F_J@?$standard_base@DV?$stream_output_adapter@D@__crt_stdio_output@@@__crt_stdio_output@@IEAA_NAEA_J@Z 0000000180160530 f i libucrt:output.obj
 0001:0015f544       ??$extract_argument_from_va_list@F_J@?$standard_base@DV?$string_output_adapter@D@__crt_stdio_output@@@__crt_stdio_output@@IEAA_NAEA_J@Z 0000000180160544 f i libucrt:output.obj
 0001:0015f558       ??$extract_argument_from_va_list@F_J@?$standard_base@_WV?$stream_output_adapter@_W@__crt_stdio_output@@@__crt_stdio_output@@IEAA_NAEA_J@Z 0000000180160558 f i libucrt:output.obj
 0001:0015f56c       ??$extract_argument_from_va_list@F_J@?$standard_base@_WV?$string_output_adapter@_W@__crt_stdio_output@@@__crt_stdio_output@@IEAA_NAEA_J@Z 000000018016056c f i libucrt:output.obj
 0001:0015f580       ??$extract_argument_from_va_list@GD@?$positional_parameter_base@DV?$stream_output_adapter@D@__crt_stdio_output@@@__crt_stdio_output@@IEAA_NAEAD@Z 0000000180160580 f i libucrt:output.obj
 0001:0015f638       ??$extract_argument_from_va_list@GD@?$positional_parameter_base@DV?$string_output_adapter@D@__crt_stdio_output@@@__crt_stdio_output@@IEAA_NAEAD@Z 0000000180160638 f i libucrt:output.obj
 0001:0015f6f0       ??$extract_argument_from_va_list@GD@?$standard_base@DV?$stream_output_adapter@D@__crt_stdio_output@@@__crt_stdio_output@@IEAA_NAEAD@Z 00000001801606f0 f i libucrt:output.obj
 0001:0015f704       ??$extract_argument_from_va_list@GD@?$standard_base@DV?$string_output_adapter@D@__crt_stdio_output@@@__crt_stdio_output@@IEAA_NAEAD@Z 0000000180160704 f i libucrt:output.obj
 0001:0015f718       ??$extract_argument_from_va_list@G_J@?$positional_parameter_base@DV?$stream_output_adapter@D@__crt_stdio_output@@@__crt_stdio_output@@IEAA_NAEA_J@Z 0000000180160718 f i libucrt:output.obj
 0001:0015f7d4       ??$extract_argument_from_va_list@G_J@?$positional_parameter_base@DV?$string_output_adapter@D@__crt_stdio_output@@@__crt_stdio_output@@IEAA_NAEA_J@Z 00000001801607d4 f i libucrt:output.obj
 0001:0015f890       ??$extract_argument_from_va_list@G_J@?$positional_parameter_base@_WV?$stream_output_adapter@_W@__crt_stdio_output@@@__crt_stdio_output@@IEAA_NAEA_J@Z 0000000180160890 f i libucrt:output.obj
 0001:0015f950       ??$extract_argument_from_va_list@G_J@?$positional_parameter_base@_WV?$string_output_adapter@_W@__crt_stdio_output@@@__crt_stdio_output@@IEAA_NAEA_J@Z 0000000180160950 f i libucrt:output.obj
 0001:0015fa10       ??$extract_argument_from_va_list@G_J@?$standard_base@DV?$stream_output_adapter@D@__crt_stdio_output@@@__crt_stdio_output@@IEAA_NAEA_J@Z 0000000180160a10 f i libucrt:output.obj
 0001:0015fa24       ??$extract_argument_from_va_list@G_J@?$standard_base@DV?$string_output_adapter@D@__crt_stdio_output@@@__crt_stdio_output@@IEAA_NAEA_J@Z 0000000180160a24 f i libucrt:output.obj
 0001:0015fa38       ??$extract_argument_from_va_list@G_J@?$standard_base@_WV?$stream_output_adapter@_W@__crt_stdio_output@@@__crt_stdio_output@@IEAA_NAEA_J@Z 0000000180160a38 f i libucrt:output.obj
 0001:0015fa4c       ??$extract_argument_from_va_list@G_J@?$standard_base@_WV?$string_output_adapter@_W@__crt_stdio_output@@@__crt_stdio_output@@IEAA_NAEA_J@Z 0000000180160a4c f i libucrt:output.obj
 0001:0015fa60       ??$extract_argument_from_va_list@H_J@?$positional_parameter_base@DV?$stream_output_adapter@D@__crt_stdio_output@@@__crt_stdio_output@@IEAA_NAEA_J@Z 0000000180160a60 f i libucrt:output.obj
 0001:0015fb1c       ??$extract_argument_from_va_list@H_J@?$positional_parameter_base@DV?$string_output_adapter@D@__crt_stdio_output@@@__crt_stdio_output@@IEAA_NAEA_J@Z 0000000180160b1c f i libucrt:output.obj
 0001:0015fbd8       ??$extract_argument_from_va_list@H_J@?$positional_parameter_base@_WV?$stream_output_adapter@_W@__crt_stdio_output@@@__crt_stdio_output@@IEAA_NAEA_J@Z 0000000180160bd8 f i libucrt:output.obj
 0001:0015fc94       ??$extract_argument_from_va_list@H_J@?$positional_parameter_base@_WV?$string_output_adapter@_W@__crt_stdio_output@@@__crt_stdio_output@@IEAA_NAEA_J@Z 0000000180160c94 f i libucrt:output.obj
 0001:0015fd50       ??$extract_argument_from_va_list@H_J@?$standard_base@DV?$stream_output_adapter@D@__crt_stdio_output@@@__crt_stdio_output@@IEAA_NAEA_J@Z 0000000180160d50 f i libucrt:output.obj
 0001:0015fd64       ??$extract_argument_from_va_list@H_J@?$standard_base@DV?$string_output_adapter@D@__crt_stdio_output@@@__crt_stdio_output@@IEAA_NAEA_J@Z 0000000180160d64 f i libucrt:output.obj
 0001:0015fd78       ??$extract_argument_from_va_list@H_J@?$standard_base@_WV?$stream_output_adapter@_W@__crt_stdio_output@@@__crt_stdio_output@@IEAA_NAEA_J@Z 0000000180160d78 f i libucrt:output.obj
 0001:0015fd8c       ??$extract_argument_from_va_list@H_J@?$standard_base@_WV?$string_output_adapter@_W@__crt_stdio_output@@@__crt_stdio_output@@IEAA_NAEA_J@Z 0000000180160d8c f i libucrt:output.obj
 0001:0015fda0       ??$extract_argument_from_va_list@I_J@?$positional_parameter_base@DV?$stream_output_adapter@D@__crt_stdio_output@@@__crt_stdio_output@@IEAA_NAEA_J@Z 0000000180160da0 f i libucrt:output.obj
 0001:0015fe5c       ??$extract_argument_from_va_list@I_J@?$positional_parameter_base@DV?$string_output_adapter@D@__crt_stdio_output@@@__crt_stdio_output@@IEAA_NAEA_J@Z 0000000180160e5c f i libucrt:output.obj
 0001:0015ff18       ??$extract_argument_from_va_list@I_J@?$positional_parameter_base@_WV?$stream_output_adapter@_W@__crt_stdio_output@@@__crt_stdio_output@@IEAA_NAEA_J@Z 0000000180160f18 f i libucrt:output.obj
 0001:0015ffd4       ??$extract_argument_from_va_list@I_J@?$positional_parameter_base@_WV?$string_output_adapter@_W@__crt_stdio_output@@@__crt_stdio_output@@IEAA_NAEA_J@Z 0000000180160fd4 f i libucrt:output.obj
 0001:00160090       ??$extract_argument_from_va_list@I_J@?$standard_base@DV?$stream_output_adapter@D@__crt_stdio_output@@@__crt_stdio_output@@IEAA_NAEA_J@Z 0000000180161090 f i libucrt:output.obj
 0001:001600a4       ??$extract_argument_from_va_list@I_J@?$standard_base@DV?$string_output_adapter@D@__crt_stdio_output@@@__crt_stdio_output@@IEAA_NAEA_J@Z 00000001801610a4 f i libucrt:output.obj
 0001:001600b8       ??$extract_argument_from_va_list@I_J@?$standard_base@_WV?$stream_output_adapter@_W@__crt_stdio_output@@@__crt_stdio_output@@IEAA_NAEA_J@Z 00000001801610b8 f i libucrt:output.obj
 0001:001600cc       ??$extract_argument_from_va_list@I_J@?$standard_base@_WV?$string_output_adapter@_W@__crt_stdio_output@@@__crt_stdio_output@@IEAA_NAEA_J@Z 00000001801610cc f i libucrt:output.obj
 0001:001600e0       ??$extract_argument_from_va_list@PEADPEAD@?$positional_parameter_base@DV?$stream_output_adapter@D@__crt_stdio_output@@@__crt_stdio_output@@IEAA_NAEAPEAD@Z 00000001801610e0 f i libucrt:output.obj
 0001:0016019c       ??$extract_argument_from_va_list@PEADPEAD@?$positional_parameter_base@DV?$string_output_adapter@D@__crt_stdio_output@@@__crt_stdio_output@@IEAA_NAEAPEAD@Z 000000018016119c f i libucrt:output.obj
 0001:00160258       ??$extract_argument_from_va_list@PEADPEAD@?$positional_parameter_base@_WV?$stream_output_adapter@_W@__crt_stdio_output@@@__crt_stdio_output@@IEAA_NAEAPEAD@Z 0000000180161258 f i libucrt:output.obj
 0001:00160314       ??$extract_argument_from_va_list@PEADPEAD@?$positional_parameter_base@_WV?$string_output_adapter@_W@__crt_stdio_output@@@__crt_stdio_output@@IEAA_NAEAPEAD@Z 0000000180161314 f i libucrt:output.obj
 0001:001603d0       ??$extract_argument_from_va_list@PEADPEAD@?$standard_base@DV?$stream_output_adapter@D@__crt_stdio_output@@@__crt_stdio_output@@IEAA_NAEAPEAD@Z 00000001801613d0 f i libucrt:output.obj
 0001:001603e4       ??$extract_argument_from_va_list@PEADPEAD@?$standard_base@DV?$string_output_adapter@D@__crt_stdio_output@@@__crt_stdio_output@@IEAA_NAEAPEAD@Z 00000001801613e4 f i libucrt:output.obj
 0001:001603f8       ??$extract_argument_from_va_list@PEADPEAD@?$standard_base@_WV?$stream_output_adapter@_W@__crt_stdio_output@@@__crt_stdio_output@@IEAA_NAEAPEAD@Z 00000001801613f8 f i libucrt:output.obj
 0001:0016040c       ??$extract_argument_from_va_list@PEADPEAD@?$standard_base@_WV?$string_output_adapter@_W@__crt_stdio_output@@@__crt_stdio_output@@IEAA_NAEAPEAD@Z 000000018016140c f i libucrt:output.obj
 0001:00160420       ??$extract_argument_from_va_list@PEAUansi_string@?1??type_case_Z@?$output_processor@DV?$stream_output_adapter@D@__crt_stdio_output@@V?$format_validation_base@DV?$stream_output_adapter@D@__crt_stdio_output@@@2@@__crt_stdio_output@@AEAA_NXZ@PEAU1?1??234@AEAA_NXZ@@?$standard_base@DV?$stream_output_adapter@D@__crt_stdio_output@@@__crt_stdio_output@@IEAA_NAEAPEAUansi_string@?1??type_case_Z@?$output_processor@DV?$stream_output_adapter@D@__crt_stdio_output@@V?$format_validation_base@DV?$stream_output_adapter@D@__crt_stdio_output@@@2@@1@AEAA_NXZ@@Z 0000000180161420 f i libucrt:output.obj
 0001:00160434       ??$extract_argument_from_va_list@PEAUansi_string@?1??type_case_Z@?$output_processor@DV?$stream_output_adapter@D@__crt_stdio_output@@V?$positional_parameter_base@DV?$stream_output_adapter@D@__crt_stdio_output@@@2@@__crt_stdio_output@@AEAA_NXZ@PEAU1?1??234@AEAA_NXZ@@?$positional_parameter_base@DV?$stream_output_adapter@D@__crt_stdio_output@@@__crt_stdio_output@@IEAA_NAEAPEAUansi_string@?1??type_case_Z@?$output_processor@DV?$stream_output_adapter@D@__crt_stdio_output@@V?$positional_parameter_base@DV?$stream_output_adapter@D@__crt_stdio_output@@@2@@1@AEAA_NXZ@@Z 0000000180161434 f i libucrt:output.obj
 0001:001604f0       ??$extract_argument_from_va_list@PEAUansi_string@?1??type_case_Z@?$output_processor@DV?$stream_output_adapter@D@__crt_stdio_output@@V?$positional_parameter_base@DV?$stream_output_adapter@D@__crt_stdio_output@@@2@@__crt_stdio_output@@AEAA_NXZ@PEAU1?1??234@AEAA_NXZ@@?$standard_base@DV?$stream_output_adapter@D@__crt_stdio_output@@@__crt_stdio_output@@IEAA_NAEAPEAUansi_string@?1??type_case_Z@?$output_processor@DV?$stream_output_adapter@D@__crt_stdio_output@@V?$positional_parameter_base@DV?$stream_output_adapter@D@__crt_stdio_output@@@2@@1@AEAA_NXZ@@Z 00000001801614f0 f i libucrt:output.obj
 0001:00160504       ??$extract_argument_from_va_list@PEAUansi_string@?1??type_case_Z@?$output_processor@DV?$stream_output_adapter@D@__crt_stdio_output@@V?$standard_base@DV?$stream_output_adapter@D@__crt_stdio_output@@@2@@__crt_stdio_output@@AEAA_NXZ@PEAU1?1??234@AEAA_NXZ@@?$standard_base@DV?$stream_output_adapter@D@__crt_stdio_output@@@__crt_stdio_output@@IEAA_NAEAPEAUansi_string@?1??type_case_Z@?$output_processor@DV?$stream_output_adapter@D@__crt_stdio_output@@V?$standard_base@DV?$stream_output_adapter@D@__crt_stdio_output@@@2@@1@AEAA_NXZ@@Z 0000000180161504 f i libucrt:output.obj
 0001:00160518       ??$extract_argument_from_va_list@PEAUansi_string@?1??type_case_Z@?$output_processor@DV?$string_output_adapter@D@__crt_stdio_output@@V?$format_validation_base@DV?$string_output_adapter@D@__crt_stdio_output@@@2@@__crt_stdio_output@@AEAA_NXZ@PEAU1?1??234@AEAA_NXZ@@?$standard_base@DV?$string_output_adapter@D@__crt_stdio_output@@@__crt_stdio_output@@IEAA_NAEAPEAUansi_string@?1??type_case_Z@?$output_processor@DV?$string_output_adapter@D@__crt_stdio_output@@V?$format_validation_base@DV?$string_output_adapter@D@__crt_stdio_output@@@2@@1@AEAA_NXZ@@Z 0000000180161518 f i libucrt:output.obj
 0001:0016052c       ??$extract_argument_from_va_list@PEAUansi_string@?1??type_case_Z@?$output_processor@DV?$string_output_adapter@D@__crt_stdio_output@@V?$positional_parameter_base@DV?$string_output_adapter@D@__crt_stdio_output@@@2@@__crt_stdio_output@@AEAA_NXZ@PEAU1?1??234@AEAA_NXZ@@?$positional_parameter_base@DV?$string_output_adapter@D@__crt_stdio_output@@@__crt_stdio_output@@IEAA_NAEAPEAUansi_string@?1??type_case_Z@?$output_processor@DV?$string_output_adapter@D@__crt_stdio_output@@V?$positional_parameter_base@DV?$string_output_adapter@D@__crt_stdio_output@@@2@@1@AEAA_NXZ@@Z 000000018016152c f i libucrt:output.obj
 0001:001605e8       ??$extract_argument_from_va_list@PEAUansi_string@?1??type_case_Z@?$output_processor@DV?$string_output_adapter@D@__crt_stdio_output@@V?$positional_parameter_base@DV?$string_output_adapter@D@__crt_stdio_output@@@2@@__crt_stdio_output@@AEAA_NXZ@PEAU1?1??234@AEAA_NXZ@@?$standard_base@DV?$string_output_adapter@D@__crt_stdio_output@@@__crt_stdio_output@@IEAA_NAEAPEAUansi_string@?1??type_case_Z@?$output_processor@DV?$string_output_adapter@D@__crt_stdio_output@@V?$positional_parameter_base@DV?$string_output_adapter@D@__crt_stdio_output@@@2@@1@AEAA_NXZ@@Z 00000001801615e8 f i libucrt:output.obj
 0001:001605fc       ??$extract_argument_from_va_list@PEAUansi_string@?1??type_case_Z@?$output_processor@DV?$string_output_adapter@D@__crt_stdio_output@@V?$standard_base@DV?$string_output_adapter@D@__crt_stdio_output@@@2@@__crt_stdio_output@@AEAA_NXZ@PEAU1?1??234@AEAA_NXZ@@?$standard_base@DV?$string_output_adapter@D@__crt_stdio_output@@@__crt_stdio_output@@IEAA_NAEAPEAUansi_string@?1??type_case_Z@?$output_processor@DV?$string_output_adapter@D@__crt_stdio_output@@V?$standard_base@DV?$string_output_adapter@D@__crt_stdio_output@@@2@@1@AEAA_NXZ@@Z 00000001801615fc f i libucrt:output.obj
 0001:00160610       ??$extract_argument_from_va_list@PEAUansi_string@?1??type_case_Z@?$output_processor@_WV?$stream_output_adapter@_W@__crt_stdio_output@@V?$format_validation_base@_WV?$stream_output_adapter@_W@__crt_stdio_output@@@2@@__crt_stdio_output@@AEAA_NXZ@PEAU1?1??234@AEAA_NXZ@@?$standard_base@_WV?$stream_output_adapter@_W@__crt_stdio_output@@@__crt_stdio_output@@IEAA_NAEAPEAUansi_string@?1??type_case_Z@?$output_processor@_WV?$stream_output_adapter@_W@__crt_stdio_output@@V?$format_validation_base@_WV?$stream_output_adapter@_W@__crt_stdio_output@@@2@@1@AEAA_NXZ@@Z 0000000180161610 f i libucrt:output.obj
 0001:00160624       ??$extract_argument_from_va_list@PEAUansi_string@?1??type_case_Z@?$output_processor@_WV?$stream_output_adapter@_W@__crt_stdio_output@@V?$positional_parameter_base@_WV?$stream_output_adapter@_W@__crt_stdio_output@@@2@@__crt_stdio_output@@AEAA_NXZ@PEAU1?1??234@AEAA_NXZ@@?$positional_parameter_base@_WV?$stream_output_adapter@_W@__crt_stdio_output@@@__crt_stdio_output@@IEAA_NAEAPEAUansi_string@?1??type_case_Z@?$output_processor@_WV?$stream_output_adapter@_W@__crt_stdio_output@@V?$positional_parameter_base@_WV?$stream_output_adapter@_W@__crt_stdio_output@@@2@@1@AEAA_NXZ@@Z 0000000180161624 f i libucrt:output.obj
 0001:001606e0       ??$extract_argument_from_va_list@PEAUansi_string@?1??type_case_Z@?$output_processor@_WV?$stream_output_adapter@_W@__crt_stdio_output@@V?$positional_parameter_base@_WV?$stream_output_adapter@_W@__crt_stdio_output@@@2@@__crt_stdio_output@@AEAA_NXZ@PEAU1?1??234@AEAA_NXZ@@?$standard_base@_WV?$stream_output_adapter@_W@__crt_stdio_output@@@__crt_stdio_output@@IEAA_NAEAPEAUansi_string@?1??type_case_Z@?$output_processor@_WV?$stream_output_adapter@_W@__crt_stdio_output@@V?$positional_parameter_base@_WV?$stream_output_adapter@_W@__crt_stdio_output@@@2@@1@AEAA_NXZ@@Z 00000001801616e0 f i libucrt:output.obj
 0001:001606f4       ??$extract_argument_from_va_list@PEAUansi_string@?1??type_case_Z@?$output_processor@_WV?$stream_output_adapter@_W@__crt_stdio_output@@V?$standard_base@_WV?$stream_output_adapter@_W@__crt_stdio_output@@@2@@__crt_stdio_output@@AEAA_NXZ@PEAU1?1??234@AEAA_NXZ@@?$standard_base@_WV?$stream_output_adapter@_W@__crt_stdio_output@@@__crt_stdio_output@@IEAA_NAEAPEAUansi_string@?1??type_case_Z@?$output_processor@_WV?$stream_output_adapter@_W@__crt_stdio_output@@V?$standard_base@_WV?$stream_output_adapter@_W@__crt_stdio_output@@@2@@1@AEAA_NXZ@@Z 00000001801616f4 f i libucrt:output.obj
 0001:00160708       ??$extract_argument_from_va_list@PEAUansi_string@?1??type_case_Z@?$output_processor@_WV?$string_output_adapter@_W@__crt_stdio_output@@V?$format_validation_base@_WV?$string_output_adapter@_W@__crt_stdio_output@@@2@@__crt_stdio_output@@AEAA_NXZ@PEAU1?1??234@AEAA_NXZ@@?$standard_base@_WV?$string_output_adapter@_W@__crt_stdio_output@@@__crt_stdio_output@@IEAA_NAEAPEAUansi_string@?1??type_case_Z@?$output_processor@_WV?$string_output_adapter@_W@__crt_stdio_output@@V?$format_validation_base@_WV?$string_output_adapter@_W@__crt_stdio_output@@@2@@1@AEAA_NXZ@@Z 0000000180161708 f i libucrt:output.obj
 0001:0016071c       ??$extract_argument_from_va_list@PEAUansi_string@?1??type_case_Z@?$output_processor@_WV?$string_output_adapter@_W@__crt_stdio_output@@V?$positional_parameter_base@_WV?$string_output_adapter@_W@__crt_stdio_output@@@2@@__crt_stdio_output@@AEAA_NXZ@PEAU1?1??234@AEAA_NXZ@@?$positional_parameter_base@_WV?$string_output_adapter@_W@__crt_stdio_output@@@__crt_stdio_output@@IEAA_NAEAPEAUansi_string@?1??type_case_Z@?$output_processor@_WV?$string_output_adapter@_W@__crt_stdio_output@@V?$positional_parameter_base@_WV?$string_output_adapter@_W@__crt_stdio_output@@@2@@1@AEAA_NXZ@@Z 000000018016171c f i libucrt:output.obj
 0001:001607d8       ??$extract_argument_from_va_list@PEAUansi_string@?1??type_case_Z@?$output_processor@_WV?$string_output_adapter@_W@__crt_stdio_output@@V?$positional_parameter_base@_WV?$string_output_adapter@_W@__crt_stdio_output@@@2@@__crt_stdio_output@@AEAA_NXZ@PEAU1?1??234@AEAA_NXZ@@?$standard_base@_WV?$string_output_adapter@_W@__crt_stdio_output@@@__crt_stdio_output@@IEAA_NAEAPEAUansi_string@?1??type_case_Z@?$output_processor@_WV?$string_output_adapter@_W@__crt_stdio_output@@V?$positional_parameter_base@_WV?$string_output_adapter@_W@__crt_stdio_output@@@2@@1@AEAA_NXZ@@Z 00000001801617d8 f i libucrt:output.obj
 0001:001607ec       ??$extract_argument_from_va_list@PEAUansi_string@?1??type_case_Z@?$output_processor@_WV?$string_output_adapter@_W@__crt_stdio_output@@V?$standard_base@_WV?$string_output_adapter@_W@__crt_stdio_output@@@2@@__crt_stdio_output@@AEAA_NXZ@PEAU1?1??234@AEAA_NXZ@@?$standard_base@_WV?$string_output_adapter@_W@__crt_stdio_output@@@__crt_stdio_output@@IEAA_NAEAPEAUansi_string@?1??type_case_Z@?$output_processor@_WV?$string_output_adapter@_W@__crt_stdio_output@@V?$standard_base@_WV?$string_output_adapter@_W@__crt_stdio_output@@@2@@1@AEAA_NXZ@@Z 00000001801617ec f i libucrt:output.obj
 0001:00160800       ??$extract_argument_from_va_list@PEAXPEAX@?$positional_parameter_base@DV?$stream_output_adapter@D@__crt_stdio_output@@@__crt_stdio_output@@IEAA_NAEAPEAX@Z 0000000180161800 f i libucrt:output.obj
 0001:001608bc       ??$extract_argument_from_va_list@PEAXPEAX@?$positional_parameter_base@DV?$string_output_adapter@D@__crt_stdio_output@@@__crt_stdio_output@@IEAA_NAEAPEAX@Z 00000001801618bc f i libucrt:output.obj
 0001:00160978       ??$extract_argument_from_va_list@PEAXPEAX@?$positional_parameter_base@_WV?$stream_output_adapter@_W@__crt_stdio_output@@@__crt_stdio_output@@IEAA_NAEAPEAX@Z 0000000180161978 f i libucrt:output.obj
 0001:00160a34       ??$extract_argument_from_va_list@PEAXPEAX@?$positional_parameter_base@_WV?$string_output_adapter@_W@__crt_stdio_output@@@__crt_stdio_output@@IEAA_NAEAPEAX@Z 0000000180161a34 f i libucrt:output.obj
 0001:00160af0       ??$extract_argument_from_va_list@PEAXPEAX@?$standard_base@DV?$stream_output_adapter@D@__crt_stdio_output@@@__crt_stdio_output@@IEAA_NAEAPEAX@Z 0000000180161af0 f i libucrt:output.obj
 0001:00160b04       ??$extract_argument_from_va_list@PEAXPEAX@?$standard_base@DV?$string_output_adapter@D@__crt_stdio_output@@@__crt_stdio_output@@IEAA_NAEAPEAX@Z 0000000180161b04 f i libucrt:output.obj
 0001:00160b18       ??$extract_argument_from_va_list@PEAXPEAX@?$standard_base@_WV?$stream_output_adapter@_W@__crt_stdio_output@@@__crt_stdio_output@@IEAA_NAEAPEAX@Z 0000000180161b18 f i libucrt:output.obj
 0001:00160b2c       ??$extract_argument_from_va_list@PEAXPEAX@?$standard_base@_WV?$string_output_adapter@_W@__crt_stdio_output@@@__crt_stdio_output@@IEAA_NAEAPEAX@Z 0000000180161b2c f i libucrt:output.obj
 0001:00160b40       ??$extract_argument_from_va_list@U_CRT_DOUBLE@@U1@@?$positional_parameter_base@DV?$stream_output_adapter@D@__crt_stdio_output@@@__crt_stdio_output@@IEAA_NAEAU_CRT_DOUBLE@@@Z 0000000180161b40 f i libucrt:output.obj
 0001:00160bfc       ??$extract_argument_from_va_list@U_CRT_DOUBLE@@U1@@?$positional_parameter_base@DV?$string_output_adapter@D@__crt_stdio_output@@@__crt_stdio_output@@IEAA_NAEAU_CRT_DOUBLE@@@Z 0000000180161bfc f i libucrt:output.obj
 0001:00160cb8       ??$extract_argument_from_va_list@U_CRT_DOUBLE@@U1@@?$positional_parameter_base@_WV?$stream_output_adapter@_W@__crt_stdio_output@@@__crt_stdio_output@@IEAA_NAEAU_CRT_DOUBLE@@@Z 0000000180161cb8 f i libucrt:output.obj
 0001:00160d74       ??$extract_argument_from_va_list@U_CRT_DOUBLE@@U1@@?$positional_parameter_base@_WV?$string_output_adapter@_W@__crt_stdio_output@@@__crt_stdio_output@@IEAA_NAEAU_CRT_DOUBLE@@@Z 0000000180161d74 f i libucrt:output.obj
 0001:00160e30       ??$extract_argument_from_va_list@U_CRT_DOUBLE@@U1@@?$standard_base@DV?$stream_output_adapter@D@__crt_stdio_output@@@__crt_stdio_output@@IEAA_NAEAU_CRT_DOUBLE@@@Z 0000000180161e30 f i libucrt:output.obj
 0001:00160e48       ??$extract_argument_from_va_list@U_CRT_DOUBLE@@U1@@?$standard_base@DV?$string_output_adapter@D@__crt_stdio_output@@@__crt_stdio_output@@IEAA_NAEAU_CRT_DOUBLE@@@Z 0000000180161e48 f i libucrt:output.obj
 0001:00160e60       ??$extract_argument_from_va_list@U_CRT_DOUBLE@@U1@@?$standard_base@_WV?$stream_output_adapter@_W@__crt_stdio_output@@@__crt_stdio_output@@IEAA_NAEAU_CRT_DOUBLE@@@Z 0000000180161e60 f i libucrt:output.obj
 0001:00160e78       ??$extract_argument_from_va_list@U_CRT_DOUBLE@@U1@@?$standard_base@_WV?$string_output_adapter@_W@__crt_stdio_output@@@__crt_stdio_output@@IEAA_NAEAU_CRT_DOUBLE@@@Z 0000000180161e78 f i libucrt:output.obj
 0001:00160e90       ??$extract_argument_from_va_list@_J_J@?$positional_parameter_base@DV?$stream_output_adapter@D@__crt_stdio_output@@@__crt_stdio_output@@IEAA_NAEA_J@Z 0000000180161e90 f i libucrt:output.obj
 0001:00160f4c       ??$extract_argument_from_va_list@_J_J@?$positional_parameter_base@DV?$string_output_adapter@D@__crt_stdio_output@@@__crt_stdio_output@@IEAA_NAEA_J@Z 0000000180161f4c f i libucrt:output.obj
 0001:00161008       ??$extract_argument_from_va_list@_J_J@?$positional_parameter_base@_WV?$stream_output_adapter@_W@__crt_stdio_output@@@__crt_stdio_output@@IEAA_NAEA_J@Z 0000000180162008 f i libucrt:output.obj
 0001:001610c4       ??$extract_argument_from_va_list@_J_J@?$positional_parameter_base@_WV?$string_output_adapter@_W@__crt_stdio_output@@@__crt_stdio_output@@IEAA_NAEA_J@Z 00000001801620c4 f i libucrt:output.obj
 0001:00161180       ??$extract_argument_from_va_list@_J_J@?$standard_base@DV?$stream_output_adapter@D@__crt_stdio_output@@@__crt_stdio_output@@IEAA_NAEA_J@Z 0000000180162180 f i libucrt:output.obj
 0001:00161194       ??$extract_argument_from_va_list@_J_J@?$standard_base@DV?$string_output_adapter@D@__crt_stdio_output@@@__crt_stdio_output@@IEAA_NAEA_J@Z 0000000180162194 f i libucrt:output.obj
 0001:001611a8       ??$extract_argument_from_va_list@_J_J@?$standard_base@_WV?$stream_output_adapter@_W@__crt_stdio_output@@@__crt_stdio_output@@IEAA_NAEA_J@Z 00000001801621a8 f i libucrt:output.obj
 0001:001611bc       ??$extract_argument_from_va_list@_J_J@?$standard_base@_WV?$string_output_adapter@_W@__crt_stdio_output@@@__crt_stdio_output@@IEAA_NAEA_J@Z 00000001801621bc f i libucrt:output.obj
 0001:001611d0       ??$extract_argument_from_va_list@_K_J@?$positional_parameter_base@DV?$stream_output_adapter@D@__crt_stdio_output@@@__crt_stdio_output@@IEAA_NAEA_J@Z 00000001801621d0 f i libucrt:output.obj
 0001:0016128c       ??$extract_argument_from_va_list@_K_J@?$positional_parameter_base@DV?$string_output_adapter@D@__crt_stdio_output@@@__crt_stdio_output@@IEAA_NAEA_J@Z 000000018016228c f i libucrt:output.obj
 0001:00161348       ??$extract_argument_from_va_list@_K_J@?$positional_parameter_base@_WV?$stream_output_adapter@_W@__crt_stdio_output@@@__crt_stdio_output@@IEAA_NAEA_J@Z 0000000180162348 f i libucrt:output.obj
 0001:00161404       ??$extract_argument_from_va_list@_K_J@?$positional_parameter_base@_WV?$string_output_adapter@_W@__crt_stdio_output@@@__crt_stdio_output@@IEAA_NAEA_J@Z 0000000180162404 f i libucrt:output.obj
 0001:001614c0       ??$extract_argument_from_va_list@_K_J@?$standard_base@DV?$stream_output_adapter@D@__crt_stdio_output@@@__crt_stdio_output@@IEAA_NAEA_J@Z 00000001801624c0 f i libucrt:output.obj
 0001:001614d4       ??$extract_argument_from_va_list@_K_J@?$standard_base@DV?$string_output_adapter@D@__crt_stdio_output@@@__crt_stdio_output@@IEAA_NAEA_J@Z 00000001801624d4 f i libucrt:output.obj
 0001:001614e8       ??$extract_argument_from_va_list@_K_J@?$standard_base@_WV?$stream_output_adapter@_W@__crt_stdio_output@@@__crt_stdio_output@@IEAA_NAEA_J@Z 00000001801624e8 f i libucrt:output.obj
 0001:001614fc       ??$extract_argument_from_va_list@_K_J@?$standard_base@_WV?$string_output_adapter@_W@__crt_stdio_output@@@__crt_stdio_output@@IEAA_NAEA_J@Z 00000001801624fc f i libucrt:output.obj
 0001:00161510       ??$extract_argument_from_va_list@_W_W@?$positional_parameter_base@DV?$stream_output_adapter@D@__crt_stdio_output@@@__crt_stdio_output@@IEAA_NAEA_W@Z 0000000180162510 f i libucrt:output.obj
 0001:001615cc       ??$extract_argument_from_va_list@_W_W@?$positional_parameter_base@DV?$string_output_adapter@D@__crt_stdio_output@@@__crt_stdio_output@@IEAA_NAEA_W@Z 00000001801625cc f i libucrt:output.obj
 0001:00161688       ??$extract_argument_from_va_list@_W_W@?$positional_parameter_base@_WV?$stream_output_adapter@_W@__crt_stdio_output@@@__crt_stdio_output@@IEAA_NAEA_W@Z 0000000180162688 f i libucrt:output.obj
 0001:00161748       ??$extract_argument_from_va_list@_W_W@?$positional_parameter_base@_WV?$string_output_adapter@_W@__crt_stdio_output@@@__crt_stdio_output@@IEAA_NAEA_W@Z 0000000180162748 f i libucrt:output.obj
 0001:00161808       ??$extract_argument_from_va_list@_W_W@?$standard_base@DV?$stream_output_adapter@D@__crt_stdio_output@@@__crt_stdio_output@@IEAA_NAEA_W@Z 0000000180162808 f i libucrt:output.obj
 0001:0016181c       ??$extract_argument_from_va_list@_W_W@?$standard_base@DV?$string_output_adapter@D@__crt_stdio_output@@@__crt_stdio_output@@IEAA_NAEA_W@Z 000000018016281c f i libucrt:output.obj
 0001:00161830       ??$extract_argument_from_va_list@_W_W@?$standard_base@_WV?$stream_output_adapter@_W@__crt_stdio_output@@@__crt_stdio_output@@IEAA_NAEA_W@Z 0000000180162830 f i libucrt:output.obj
 0001:00161844       ??$extract_argument_from_va_list@_W_W@?$standard_base@_WV?$string_output_adapter@_W@__crt_stdio_output@@@__crt_stdio_output@@IEAA_NAEA_W@Z 0000000180162844 f i libucrt:output.obj
 0001:00161858       ??$get_parameter_type@D@?$positional_parameter_base@DV?$stream_output_adapter@D@__crt_stdio_output@@@__crt_stdio_output@@CA?AW4parameter_type@01@PEAD@Z 0000000180162858 f i libucrt:output.obj
 0001:00161860       ??$get_parameter_type@D@?$positional_parameter_base@DV?$string_output_adapter@D@__crt_stdio_output@@@__crt_stdio_output@@CA?AW4parameter_type@01@PEAD@Z 0000000180162860 f i libucrt:output.obj
 0001:00161868       ??$get_parameter_type@D@?$positional_parameter_base@_WV?$stream_output_adapter@_W@__crt_stdio_output@@@__crt_stdio_output@@CA?AW4parameter_type@01@PEAD@Z 0000000180162868 f i libucrt:output.obj
 0001:00161870       ??$get_parameter_type@D@?$positional_parameter_base@_WV?$string_output_adapter@_W@__crt_stdio_output@@@__crt_stdio_output@@CA?AW4parameter_type@01@PEAD@Z 0000000180162870 f i libucrt:output.obj
 0001:00161878       ??$get_parameter_type@Uansi_string@?1??type_case_Z@?$output_processor@DV?$stream_output_adapter@D@__crt_stdio_output@@V?$positional_parameter_base@DV?$stream_output_adapter@D@__crt_stdio_output@@@2@@__crt_stdio_output@@AEAA_NXZ@@?$positional_parameter_base@DV?$stream_output_adapter@D@__crt_stdio_output@@@__crt_stdio_output@@CA?AW4parameter_type@01@PEAUansi_string@?1??type_case_Z@?$output_processor@DV?$stream_output_adapter@D@__crt_stdio_output@@V?$positional_parameter_base@DV?$stream_output_adapter@D@__crt_stdio_output@@@2@@1@AEAA_NXZ@@Z 0000000180162878 f i libucrt:output.obj
 0001:00161880       ??$get_parameter_type@Uansi_string@?1??type_case_Z@?$output_processor@DV?$string_output_adapter@D@__crt_stdio_output@@V?$positional_parameter_base@DV?$string_output_adapter@D@__crt_stdio_output@@@2@@__crt_stdio_output@@AEAA_NXZ@@?$positional_parameter_base@DV?$string_output_adapter@D@__crt_stdio_output@@@__crt_stdio_output@@CA?AW4parameter_type@01@PEAUansi_string@?1??type_case_Z@?$output_processor@DV?$string_output_adapter@D@__crt_stdio_output@@V?$positional_parameter_base@DV?$string_output_adapter@D@__crt_stdio_output@@@2@@1@AEAA_NXZ@@Z 0000000180162880 f i libucrt:output.obj
 0001:00161888       ??$get_parameter_type@Uansi_string@?1??type_case_Z@?$output_processor@_WV?$stream_output_adapter@_W@__crt_stdio_output@@V?$positional_parameter_base@_WV?$stream_output_adapter@_W@__crt_stdio_output@@@2@@__crt_stdio_output@@AEAA_NXZ@@?$positional_parameter_base@_WV?$stream_output_adapter@_W@__crt_stdio_output@@@__crt_stdio_output@@CA?AW4parameter_type@01@PEAUansi_string@?1??type_case_Z@?$output_processor@_WV?$stream_output_adapter@_W@__crt_stdio_output@@V?$positional_parameter_base@_WV?$stream_output_adapter@_W@__crt_stdio_output@@@2@@1@AEAA_NXZ@@Z 0000000180162888 f i libucrt:output.obj
 0001:00161890       ??$get_parameter_type@Uansi_string@?1??type_case_Z@?$output_processor@_WV?$string_output_adapter@_W@__crt_stdio_output@@V?$positional_parameter_base@_WV?$string_output_adapter@_W@__crt_stdio_output@@@2@@__crt_stdio_output@@AEAA_NXZ@@?$positional_parameter_base@_WV?$string_output_adapter@_W@__crt_stdio_output@@@__crt_stdio_output@@CA?AW4parameter_type@01@PEAUansi_string@?1??type_case_Z@?$output_processor@_WV?$string_output_adapter@_W@__crt_stdio_output@@V?$positional_parameter_base@_WV?$string_output_adapter@_W@__crt_stdio_output@@@2@@1@AEAA_NXZ@@Z 0000000180162890 f i libucrt:output.obj
 0001:00161898       ??$get_parameter_type@X@?$positional_parameter_base@DV?$stream_output_adapter@D@__crt_stdio_output@@@__crt_stdio_output@@CA?AW4parameter_type@01@PEAX@Z 0000000180162898 f i libucrt:output.obj
 0001:001618a0       ??$get_parameter_type@X@?$positional_parameter_base@DV?$string_output_adapter@D@__crt_stdio_output@@@__crt_stdio_output@@CA?AW4parameter_type@01@PEAX@Z 00000001801628a0 f i libucrt:output.obj
 0001:001618a8       ??$get_parameter_type@X@?$positional_parameter_base@_WV?$stream_output_adapter@_W@__crt_stdio_output@@@__crt_stdio_output@@CA?AW4parameter_type@01@PEAX@Z 00000001801628a8 f i libucrt:output.obj
 0001:001618b0       ??$get_parameter_type@X@?$positional_parameter_base@_WV?$string_output_adapter@_W@__crt_stdio_output@@@__crt_stdio_output@@CA?AW4parameter_type@01@PEAX@Z 00000001801628b0 f i libucrt:output.obj
 0001:001618b8       ??$is_character_specifier@D@?$positional_parameter_base@DV?$stream_output_adapter@D@__crt_stdio_output@@@__crt_stdio_output@@CA_ND@Z 00000001801628b8 f i libucrt:output.obj
 0001:001618c4       ??$is_character_specifier@D@?$positional_parameter_base@DV?$string_output_adapter@D@__crt_stdio_output@@@__crt_stdio_output@@CA_ND@Z 00000001801628c4 f i libucrt:output.obj
 0001:001618d0       ??$is_character_specifier@_W@?$positional_parameter_base@_WV?$stream_output_adapter@_W@__crt_stdio_output@@@__crt_stdio_output@@CA_N_W@Z 00000001801628d0 f i libucrt:output.obj
 0001:001618e0       ??$is_character_specifier@_W@?$positional_parameter_base@_WV?$string_output_adapter@_W@__crt_stdio_output@@@__crt_stdio_output@@CA_N_W@Z 00000001801628e0 f i libucrt:output.obj
 0001:001618f0       ??$is_integral_specifier@D@?$positional_parameter_base@DV?$stream_output_adapter@D@__crt_stdio_output@@@__crt_stdio_output@@CA_ND@Z 00000001801628f0 f i libucrt:output.obj
 0001:00161914       ??$is_integral_specifier@D@?$positional_parameter_base@DV?$string_output_adapter@D@__crt_stdio_output@@@__crt_stdio_output@@CA_ND@Z 0000000180162914 f i libucrt:output.obj
 0001:00161938       ??$is_integral_specifier@_W@?$positional_parameter_base@_WV?$stream_output_adapter@_W@__crt_stdio_output@@@__crt_stdio_output@@CA_N_W@Z 0000000180162938 f i libucrt:output.obj
 0001:00161960       ??$is_integral_specifier@_W@?$positional_parameter_base@_WV?$string_output_adapter@_W@__crt_stdio_output@@@__crt_stdio_output@@CA_N_W@Z 0000000180162960 f i libucrt:output.obj
 0001:00161988       ??$is_pointer_specifier@D@?$positional_parameter_base@DV?$stream_output_adapter@D@__crt_stdio_output@@@__crt_stdio_output@@CA_ND@Z 0000000180162988 f i libucrt:output.obj
 0001:00161990       ??$is_pointer_specifier@D@?$positional_parameter_base@DV?$string_output_adapter@D@__crt_stdio_output@@@__crt_stdio_output@@CA_ND@Z 0000000180162990 f i libucrt:output.obj
 0001:00161998       ??$is_pointer_specifier@_W@?$positional_parameter_base@_WV?$stream_output_adapter@_W@__crt_stdio_output@@@__crt_stdio_output@@CA_N_W@Z 0000000180162998 f i libucrt:output.obj
 0001:001619a0       ??$is_pointer_specifier@_W@?$positional_parameter_base@_WV?$string_output_adapter@_W@__crt_stdio_output@@@__crt_stdio_output@@CA_N_W@Z 00000001801629a0 f i libucrt:output.obj
 0001:001619a8       ??$is_string_specifier@D@?$positional_parameter_base@DV?$stream_output_adapter@D@__crt_stdio_output@@@__crt_stdio_output@@CA_ND@Z 00000001801629a8 f i libucrt:output.obj
 0001:001619b4       ??$is_string_specifier@D@?$positional_parameter_base@DV?$string_output_adapter@D@__crt_stdio_output@@@__crt_stdio_output@@CA_ND@Z 00000001801629b4 f i libucrt:output.obj
 0001:001619c0       ??$is_string_specifier@_W@?$positional_parameter_base@_WV?$stream_output_adapter@_W@__crt_stdio_output@@@__crt_stdio_output@@CA_N_W@Z 00000001801629c0 f i libucrt:output.obj
 0001:001619d0       ??$is_string_specifier@_W@?$positional_parameter_base@_WV?$string_output_adapter@_W@__crt_stdio_output@@@__crt_stdio_output@@CA_N_W@Z 00000001801629d0 f i libucrt:output.obj
 0001:001619e0       ??$is_wide_character_specifier@D@__crt_stdio_output@@YA_N_KDW4length_modifier@0@@Z 00000001801629e0 f i libucrt:output.obj
 0001:00161a08       ??$is_wide_character_specifier@_W@__crt_stdio_output@@YA_N_K_WW4length_modifier@0@@Z 0000000180162a08 f i libucrt:output.obj
 0001:00161a48       ??$peek_va_arg@C@__crt_stdio_output@@YACPEAD@Z 0000000180162a48 f i libucrt:output.obj
 0001:00161a4c       ??$peek_va_arg@E@__crt_stdio_output@@YAEPEAD@Z 0000000180162a4c f i libucrt:output.obj
 0001:00161a50       ??$peek_va_arg@F@__crt_stdio_output@@YAFPEAD@Z 0000000180162a50 f i libucrt:output.obj
 0001:00161a54       ??$peek_va_arg@G@__crt_stdio_output@@YAGPEAD@Z 0000000180162a54 f i libucrt:output.obj
 0001:00161a58       ??$peek_va_arg@H@__crt_stdio_output@@YAHPEAD@Z 0000000180162a58 f i libucrt:output.obj
 0001:00161a5c       ??$peek_va_arg@I@__crt_stdio_output@@YAIPEAD@Z 0000000180162a5c f i libucrt:output.obj
 0001:00161a60       ??$peek_va_arg@PEAD@__crt_stdio_output@@YAPEADPEAD@Z 0000000180162a60 f i libucrt:output.obj
 0001:00161a64       ??$peek_va_arg@PEAUansi_string@?1??type_case_Z@?$output_processor@DV?$stream_output_adapter@D@__crt_stdio_output@@V?$positional_parameter_base@DV?$stream_output_adapter@D@__crt_stdio_output@@@2@@__crt_stdio_output@@AEAA_NXZ@@__crt_stdio_output@@YAPEAUansi_string@?1??type_case_Z@?$output_processor@DV?$stream_output_adapter@D@__crt_stdio_output@@V?$positional_parameter_base@DV?$stream_output_adapter@D@__crt_stdio_output@@@2@@0@AEAA_NXZ@PEAD@Z 0000000180162a64 f i libucrt:output.obj
 0001:00161a68       ??$peek_va_arg@PEAUansi_string@?1??type_case_Z@?$output_processor@DV?$string_output_adapter@D@__crt_stdio_output@@V?$positional_parameter_base@DV?$string_output_adapter@D@__crt_stdio_output@@@2@@__crt_stdio_output@@AEAA_NXZ@@__crt_stdio_output@@YAPEAUansi_string@?1??type_case_Z@?$output_processor@DV?$string_output_adapter@D@__crt_stdio_output@@V?$positional_parameter_base@DV?$string_output_adapter@D@__crt_stdio_output@@@2@@0@AEAA_NXZ@PEAD@Z 0000000180162a68 f i libucrt:output.obj
 0001:00161a6c       ??$peek_va_arg@PEAUansi_string@?1??type_case_Z@?$output_processor@_WV?$stream_output_adapter@_W@__crt_stdio_output@@V?$positional_parameter_base@_WV?$stream_output_adapter@_W@__crt_stdio_output@@@2@@__crt_stdio_output@@AEAA_NXZ@@__crt_stdio_output@@YAPEAUansi_string@?1??type_case_Z@?$output_processor@_WV?$stream_output_adapter@_W@__crt_stdio_output@@V?$positional_parameter_base@_WV?$stream_output_adapter@_W@__crt_stdio_output@@@2@@0@AEAA_NXZ@PEAD@Z 0000000180162a6c f i libucrt:output.obj
 0001:00161a70       ??$peek_va_arg@PEAUansi_string@?1??type_case_Z@?$output_processor@_WV?$string_output_adapter@_W@__crt_stdio_output@@V?$positional_parameter_base@_WV?$string_output_adapter@_W@__crt_stdio_output@@@2@@__crt_stdio_output@@AEAA_NXZ@@__crt_stdio_output@@YAPEAUansi_string@?1??type_case_Z@?$output_processor@_WV?$string_output_adapter@_W@__crt_stdio_output@@V?$positional_parameter_base@_WV?$string_output_adapter@_W@__crt_stdio_output@@@2@@0@AEAA_NXZ@PEAD@Z 0000000180162a70 f i libucrt:output.obj
 0001:00161a74       ??$peek_va_arg@PEAX@__crt_stdio_output@@YAPEAXPEAD@Z 0000000180162a74 f i libucrt:output.obj
 0001:00161a78       ??$peek_va_arg@U_CRT_DOUBLE@@@__crt_stdio_output@@YA?AU_CRT_DOUBLE@@PEAD@Z 0000000180162a78 f i libucrt:output.obj
 0001:00161a7c       ??$peek_va_arg@_J@__crt_stdio_output@@YA_JPEAD@Z 0000000180162a7c f i libucrt:output.obj
 0001:00161a80       ??$peek_va_arg@_K@__crt_stdio_output@@YA_KPEAD@Z 0000000180162a80 f i libucrt:output.obj
 0001:00161a84       ??$peek_va_arg@_W@__crt_stdio_output@@YA_WPEAD@Z 0000000180162a84 f i libucrt:output.obj
 0001:00161a88       ??$puttc_nolock@AEBDPEAU_iobuf@@@?$__crt_char_traits@D@@SAHAEBD$$QEAPEAU_iobuf@@@Z 0000000180162a88 f i libucrt:output.obj
 0001:00161a94       ??$puttc_nolock@AEB_WPEAU_iobuf@@@?$__crt_char_traits@_W@@SAGAEB_W$$QEAPEAU_iobuf@@@Z 0000000180162a94 f i libucrt:output.obj
 0001:00161aa0       ??$read_va_arg@C@__crt_stdio_output@@YACAEAPEAD@Z 0000000180162aa0 f i libucrt:output.obj
 0001:00161aac       ??$read_va_arg@E@__crt_stdio_output@@YAEAEAPEAD@Z 0000000180162aac f i libucrt:output.obj
 0001:00161ab8       ??$read_va_arg@F@__crt_stdio_output@@YAFAEAPEAD@Z 0000000180162ab8 f i libucrt:output.obj
 0001:00161ac4       ??$read_va_arg@G@__crt_stdio_output@@YAGAEAPEAD@Z 0000000180162ac4 f i libucrt:output.obj
 0001:00161ad0       ??$read_va_arg@H@__crt_stdio_output@@YAHAEAPEAD@Z 0000000180162ad0 f i libucrt:output.obj
 0001:00161adc       ??$read_va_arg@I@__crt_stdio_output@@YAIAEAPEAD@Z 0000000180162adc f i libucrt:output.obj
 0001:00161ae8       ??$read_va_arg@PEAD@__crt_stdio_output@@YAPEADAEAPEAD@Z 0000000180162ae8 f i libucrt:output.obj
 0001:00161af4       ??$read_va_arg@PEAUansi_string@?1??type_case_Z@?$output_processor@DV?$stream_output_adapter@D@__crt_stdio_output@@V?$format_validation_base@DV?$stream_output_adapter@D@__crt_stdio_output@@@2@@__crt_stdio_output@@AEAA_NXZ@@__crt_stdio_output@@YAPEAUansi_string@?1??type_case_Z@?$output_processor@DV?$stream_output_adapter@D@__crt_stdio_output@@V?$format_validation_base@DV?$stream_output_adapter@D@__crt_stdio_output@@@2@@0@AEAA_NXZ@AEAPEAD@Z 0000000180162af4 f i libucrt:output.obj
 0001:00161b00       ??$read_va_arg@PEAUansi_string@?1??type_case_Z@?$output_processor@DV?$stream_output_adapter@D@__crt_stdio_output@@V?$positional_parameter_base@DV?$stream_output_adapter@D@__crt_stdio_output@@@2@@__crt_stdio_output@@AEAA_NXZ@@__crt_stdio_output@@YAPEAUansi_string@?1??type_case_Z@?$output_processor@DV?$stream_output_adapter@D@__crt_stdio_output@@V?$positional_parameter_base@DV?$stream_output_adapter@D@__crt_stdio_output@@@2@@0@AEAA_NXZ@AEAPEAD@Z 0000000180162b00 f i libucrt:output.obj
 0001:00161b0c       ??$read_va_arg@PEAUansi_string@?1??type_case_Z@?$output_processor@DV?$stream_output_adapter@D@__crt_stdio_output@@V?$standard_base@DV?$stream_output_adapter@D@__crt_stdio_output@@@2@@__crt_stdio_output@@AEAA_NXZ@@__crt_stdio_output@@YAPEAUansi_string@?1??type_case_Z@?$output_processor@DV?$stream_output_adapter@D@__crt_stdio_output@@V?$standard_base@DV?$stream_output_adapter@D@__crt_stdio_output@@@2@@0@AEAA_NXZ@AEAPEAD@Z 0000000180162b0c f i libucrt:output.obj
 0001:00161b18       ??$read_va_arg@PEAUansi_string@?1??type_case_Z@?$output_processor@DV?$string_output_adapter@D@__crt_stdio_output@@V?$format_validation_base@DV?$string_output_adapter@D@__crt_stdio_output@@@2@@__crt_stdio_output@@AEAA_NXZ@@__crt_stdio_output@@YAPEAUansi_string@?1??type_case_Z@?$output_processor@DV?$string_output_adapter@D@__crt_stdio_output@@V?$format_validation_base@DV?$string_output_adapter@D@__crt_stdio_output@@@2@@0@AEAA_NXZ@AEAPEAD@Z 0000000180162b18 f i libucrt:output.obj
 0001:00161b24       ??$read_va_arg@PEAUansi_string@?1??type_case_Z@?$output_processor@DV?$string_output_adapter@D@__crt_stdio_output@@V?$positional_parameter_base@DV?$string_output_adapter@D@__crt_stdio_output@@@2@@__crt_stdio_output@@AEAA_NXZ@@__crt_stdio_output@@YAPEAUansi_string@?1??type_case_Z@?$output_processor@DV?$string_output_adapter@D@__crt_stdio_output@@V?$positional_parameter_base@DV?$string_output_adapter@D@__crt_stdio_output@@@2@@0@AEAA_NXZ@AEAPEAD@Z 0000000180162b24 f i libucrt:output.obj
 0001:00161b30       ??$read_va_arg@PEAUansi_string@?1??type_case_Z@?$output_processor@DV?$string_output_adapter@D@__crt_stdio_output@@V?$standard_base@DV?$string_output_adapter@D@__crt_stdio_output@@@2@@__crt_stdio_output@@AEAA_NXZ@@__crt_stdio_output@@YAPEAUansi_string@?1??type_case_Z@?$output_processor@DV?$string_output_adapter@D@__crt_stdio_output@@V?$standard_base@DV?$string_output_adapter@D@__crt_stdio_output@@@2@@0@AEAA_NXZ@AEAPEAD@Z 0000000180162b30 f i libucrt:output.obj
 0001:00161b3c       ??$read_va_arg@PEAUansi_string@?1??type_case_Z@?$output_processor@_WV?$stream_output_adapter@_W@__crt_stdio_output@@V?$format_validation_base@_WV?$stream_output_adapter@_W@__crt_stdio_output@@@2@@__crt_stdio_output@@AEAA_NXZ@@__crt_stdio_output@@YAPEAUansi_string@?1??type_case_Z@?$output_processor@_WV?$stream_output_adapter@_W@__crt_stdio_output@@V?$format_validation_base@_WV?$stream_output_adapter@_W@__crt_stdio_output@@@2@@0@AEAA_NXZ@AEAPEAD@Z 0000000180162b3c f i libucrt:output.obj
 0001:00161b48       ??$read_va_arg@PEAUansi_string@?1??type_case_Z@?$output_processor@_WV?$stream_output_adapter@_W@__crt_stdio_output@@V?$positional_parameter_base@_WV?$stream_output_adapter@_W@__crt_stdio_output@@@2@@__crt_stdio_output@@AEAA_NXZ@@__crt_stdio_output@@YAPEAUansi_string@?1??type_case_Z@?$output_processor@_WV?$stream_output_adapter@_W@__crt_stdio_output@@V?$positional_parameter_base@_WV?$stream_output_adapter@_W@__crt_stdio_output@@@2@@0@AEAA_NXZ@AEAPEAD@Z 0000000180162b48 f i libucrt:output.obj
 0001:00161b54       ??$read_va_arg@PEAUansi_string@?1??type_case_Z@?$output_processor@_WV?$stream_output_adapter@_W@__crt_stdio_output@@V?$standard_base@_WV?$stream_output_adapter@_W@__crt_stdio_output@@@2@@__crt_stdio_output@@AEAA_NXZ@@__crt_stdio_output@@YAPEAUansi_string@?1??type_case_Z@?$output_processor@_WV?$stream_output_adapter@_W@__crt_stdio_output@@V?$standard_base@_WV?$stream_output_adapter@_W@__crt_stdio_output@@@2@@0@AEAA_NXZ@AEAPEAD@Z 0000000180162b54 f i libucrt:output.obj
 0001:00161b60       ??$read_va_arg@PEAUansi_string@?1??type_case_Z@?$output_processor@_WV?$string_output_adapter@_W@__crt_stdio_output@@V?$format_validation_base@_WV?$string_output_adapter@_W@__crt_stdio_output@@@2@@__crt_stdio_output@@AEAA_NXZ@@__crt_stdio_output@@YAPEAUansi_string@?1??type_case_Z@?$output_processor@_WV?$string_output_adapter@_W@__crt_stdio_output@@V?$format_validation_base@_WV?$string_output_adapter@_W@__crt_stdio_output@@@2@@0@AEAA_NXZ@AEAPEAD@Z 0000000180162b60 f i libucrt:output.obj
 0001:00161b6c       ??$read_va_arg@PEAUansi_string@?1??type_case_Z@?$output_processor@_WV?$string_output_adapter@_W@__crt_stdio_output@@V?$positional_parameter_base@_WV?$string_output_adapter@_W@__crt_stdio_output@@@2@@__crt_stdio_output@@AEAA_NXZ@@__crt_stdio_output@@YAPEAUansi_string@?1??type_case_Z@?$output_processor@_WV?$string_output_adapter@_W@__crt_stdio_output@@V?$positional_parameter_base@_WV?$string_output_adapter@_W@__crt_stdio_output@@@2@@0@AEAA_NXZ@AEAPEAD@Z 0000000180162b6c f i libucrt:output.obj
 0001:00161b78       ??$read_va_arg@PEAUansi_string@?1??type_case_Z@?$output_processor@_WV?$string_output_adapter@_W@__crt_stdio_output@@V?$standard_base@_WV?$string_output_adapter@_W@__crt_stdio_output@@@2@@__crt_stdio_output@@AEAA_NXZ@@__crt_stdio_output@@YAPEAUansi_string@?1??type_case_Z@?$output_processor@_WV?$string_output_adapter@_W@__crt_stdio_output@@V?$standard_base@_WV?$string_output_adapter@_W@__crt_stdio_output@@@2@@0@AEAA_NXZ@AEAPEAD@Z 0000000180162b78 f i libucrt:output.obj
 0001:00161b84       ??$read_va_arg@PEAX@__crt_stdio_output@@YAPEAXAEAPEAD@Z 0000000180162b84 f i libucrt:output.obj
 0001:00161b90       ??$read_va_arg@U_CRT_DOUBLE@@@__crt_stdio_output@@YA?AU_CRT_DOUBLE@@AEAPEAD@Z 0000000180162b90 f i libucrt:output.obj
 0001:00161b9c       ??$read_va_arg@_J@__crt_stdio_output@@YA_JAEAPEAD@Z 0000000180162b9c f i libucrt:output.obj
 0001:00161ba8       ??$read_va_arg@_K@__crt_stdio_output@@YA_KAEAPEAD@Z 0000000180162ba8 f i libucrt:output.obj
 0001:00161bb4       ??$read_va_arg@_W@__crt_stdio_output@@YA_WAEAPEAD@Z 0000000180162bb4 f i libucrt:output.obj
 0001:00161bc0       ??$scratch_count@D@formatting_buffer@__crt_stdio_output@@QEBA_KXZ 0000000180162bc0 f i libucrt:output.obj
 0001:00161bdc       ??$scratch_data@D@formatting_buffer@__crt_stdio_output@@QEAAPEADXZ 0000000180162bdc f i libucrt:output.obj
 0001:00161c00       ??$tcstol@AEAPEBDPEAPEADH@?$__crt_char_traits@D@@SAJAEAPEBD$$QEAPEAPEAD$$QEAH@Z 0000000180162c00 f i libucrt:output.obj
 0001:00161c10       ??$tcstol@AEAPEB_WPEAPEA_WH@?$__crt_char_traits@_W@@SAJAEAPEB_W$$QEAPEAPEA_W$$QEAH@Z 0000000180162c10 f i libucrt:output.obj
 0001:00161c20       ??$tcstol@PEBDPEAPEADH@?$__crt_char_traits@D@@SAJ$$QEAPEBD$$QEAPEAPEAD$$QEAH@Z 0000000180162c20 f i libucrt:output.obj
 0001:00161c30       ??$tcstol@PEB_WPEAPEA_WH@?$__crt_char_traits@_W@@SAJ$$QEAPEB_W$$QEAPEAPEA_W$$QEAH@Z 0000000180162c30 f i libucrt:output.obj
 0001:00161c40       ??$type_case_integer_parse_into_buffer@I@?$output_processor@DV?$stream_output_adapter@D@__crt_stdio_output@@V?$format_validation_base@DV?$stream_output_adapter@D@__crt_stdio_output@@@2@@__crt_stdio_output@@AEAAXII_N@Z 0000000180162c40 f i libucrt:output.obj
 0001:00161cc8       ??$type_case_integer_parse_into_buffer@I@?$output_processor@DV?$stream_output_adapter@D@__crt_stdio_output@@V?$positional_parameter_base@DV?$stream_output_adapter@D@__crt_stdio_output@@@2@@__crt_stdio_output@@AEAAXII_N@Z 0000000180162cc8 f i libucrt:output.obj
 0001:00161d50       ??$type_case_integer_parse_into_buffer@I@?$output_processor@DV?$stream_output_adapter@D@__crt_stdio_output@@V?$standard_base@DV?$stream_output_adapter@D@__crt_stdio_output@@@2@@__crt_stdio_output@@AEAAXII_N@Z 0000000180162d50 f i libucrt:output.obj
 0001:00161dd8       ??$type_case_integer_parse_into_buffer@I@?$output_processor@DV?$string_output_adapter@D@__crt_stdio_output@@V?$format_validation_base@DV?$string_output_adapter@D@__crt_stdio_output@@@2@@__crt_stdio_output@@AEAAXII_N@Z 0000000180162dd8 f i libucrt:output.obj
 0001:00161e60       ??$type_case_integer_parse_into_buffer@I@?$output_processor@DV?$string_output_adapter@D@__crt_stdio_output@@V?$positional_parameter_base@DV?$string_output_adapter@D@__crt_stdio_output@@@2@@__crt_stdio_output@@AEAAXII_N@Z 0000000180162e60 f i libucrt:output.obj
 0001:00161ee8       ??$type_case_integer_parse_into_buffer@I@?$output_processor@DV?$string_output_adapter@D@__crt_stdio_output@@V?$standard_base@DV?$string_output_adapter@D@__crt_stdio_output@@@2@@__crt_stdio_output@@AEAAXII_N@Z 0000000180162ee8 f i libucrt:output.obj
 0001:00161f70       ??$type_case_integer_parse_into_buffer@I@?$output_processor@_WV?$stream_output_adapter@_W@__crt_stdio_output@@V?$format_validation_base@_WV?$stream_output_adapter@_W@__crt_stdio_output@@@2@@__crt_stdio_output@@AEAAXII_N@Z 0000000180162f70 f i libucrt:output.obj
 0001:00162014       ??$type_case_integer_parse_into_buffer@I@?$output_processor@_WV?$stream_output_adapter@_W@__crt_stdio_output@@V?$positional_parameter_base@_WV?$stream_output_adapter@_W@__crt_stdio_output@@@2@@__crt_stdio_output@@AEAAXII_N@Z 0000000180163014 f i libucrt:output.obj
 0001:001620b8       ??$type_case_integer_parse_into_buffer@I@?$output_processor@_WV?$stream_output_adapter@_W@__crt_stdio_output@@V?$standard_base@_WV?$stream_output_adapter@_W@__crt_stdio_output@@@2@@__crt_stdio_output@@AEAAXII_N@Z 00000001801630b8 f i libucrt:output.obj
 0001:0016215c       ??$type_case_integer_parse_into_buffer@I@?$output_processor@_WV?$string_output_adapter@_W@__crt_stdio_output@@V?$format_validation_base@_WV?$string_output_adapter@_W@__crt_stdio_output@@@2@@__crt_stdio_output@@AEAAXII_N@Z 000000018016315c f i libucrt:output.obj
 0001:00162200       ??$type_case_integer_parse_into_buffer@I@?$output_processor@_WV?$string_output_adapter@_W@__crt_stdio_output@@V?$positional_parameter_base@_WV?$string_output_adapter@_W@__crt_stdio_output@@@2@@__crt_stdio_output@@AEAAXII_N@Z 0000000180163200 f i libucrt:output.obj
 0001:001622a4       ??$type_case_integer_parse_into_buffer@I@?$output_processor@_WV?$string_output_adapter@_W@__crt_stdio_output@@V?$standard_base@_WV?$string_output_adapter@_W@__crt_stdio_output@@@2@@__crt_stdio_output@@AEAAXII_N@Z 00000001801632a4 f i libucrt:output.obj
 0001:00162348       ??$type_case_integer_parse_into_buffer@_K@?$output_processor@DV?$stream_output_adapter@D@__crt_stdio_output@@V?$format_validation_base@DV?$stream_output_adapter@D@__crt_stdio_output@@@2@@__crt_stdio_output@@AEAAX_KI_N@Z 0000000180163348 f i libucrt:output.obj
 0001:001623d8       ??$type_case_integer_parse_into_buffer@_K@?$output_processor@DV?$stream_output_adapter@D@__crt_stdio_output@@V?$positional_parameter_base@DV?$stream_output_adapter@D@__crt_stdio_output@@@2@@__crt_stdio_output@@AEAAX_KI_N@Z 00000001801633d8 f i libucrt:output.obj
 0001:00162468       ??$type_case_integer_parse_into_buffer@_K@?$output_processor@DV?$stream_output_adapter@D@__crt_stdio_output@@V?$standard_base@DV?$stream_output_adapter@D@__crt_stdio_output@@@2@@__crt_stdio_output@@AEAAX_KI_N@Z 0000000180163468 f i libucrt:output.obj
 0001:001624f8       ??$type_case_integer_parse_into_buffer@_K@?$output_processor@DV?$string_output_adapter@D@__crt_stdio_output@@V?$format_validation_base@DV?$string_output_adapter@D@__crt_stdio_output@@@2@@__crt_stdio_output@@AEAAX_KI_N@Z 00000001801634f8 f i libucrt:output.obj
 0001:00162588       ??$type_case_integer_parse_into_buffer@_K@?$output_processor@DV?$string_output_adapter@D@__crt_stdio_output@@V?$positional_parameter_base@DV?$string_output_adapter@D@__crt_stdio_output@@@2@@__crt_stdio_output@@AEAAX_KI_N@Z 0000000180163588 f i libucrt:output.obj
 0001:00162618       ??$type_case_integer_parse_into_buffer@_K@?$output_processor@DV?$string_output_adapter@D@__crt_stdio_output@@V?$standard_base@DV?$string_output_adapter@D@__crt_stdio_output@@@2@@__crt_stdio_output@@AEAAX_KI_N@Z 0000000180163618 f i libucrt:output.obj
 0001:001626a8       ??$type_case_integer_parse_into_buffer@_K@?$output_processor@_WV?$stream_output_adapter@_W@__crt_stdio_output@@V?$format_validation_base@_WV?$stream_output_adapter@_W@__crt_stdio_output@@@2@@__crt_stdio_output@@AEAAX_KI_N@Z 00000001801636a8 f i libucrt:output.obj
 0001:0016274c       ??$type_case_integer_parse_into_buffer@_K@?$output_processor@_WV?$stream_output_adapter@_W@__crt_stdio_output@@V?$positional_parameter_base@_WV?$stream_output_adapter@_W@__crt_stdio_output@@@2@@__crt_stdio_output@@AEAAX_KI_N@Z 000000018016374c f i libucrt:output.obj
 0001:001627f0       ??$type_case_integer_parse_into_buffer@_K@?$output_processor@_WV?$stream_output_adapter@_W@__crt_stdio_output@@V?$standard_base@_WV?$stream_output_adapter@_W@__crt_stdio_output@@@2@@__crt_stdio_output@@AEAAX_KI_N@Z 00000001801637f0 f i libucrt:output.obj
 0001:00162894       ??$type_case_integer_parse_into_buffer@_K@?$output_processor@_WV?$string_output_adapter@_W@__crt_stdio_output@@V?$format_validation_base@_WV?$string_output_adapter@_W@__crt_stdio_output@@@2@@__crt_stdio_output@@AEAAX_KI_N@Z 0000000180163894 f i libucrt:output.obj
 0001:00162938       ??$type_case_integer_parse_into_buffer@_K@?$output_processor@_WV?$string_output_adapter@_W@__crt_stdio_output@@V?$positional_parameter_base@_WV?$string_output_adapter@_W@__crt_stdio_output@@@2@@__crt_stdio_output@@AEAAX_KI_N@Z 0000000180163938 f i libucrt:output.obj
 0001:001629dc       ??$type_case_integer_parse_into_buffer@_K@?$output_processor@_WV?$string_output_adapter@_W@__crt_stdio_output@@V?$standard_base@_WV?$string_output_adapter@_W@__crt_stdio_output@@@2@@__crt_stdio_output@@AEAAX_KI_N@Z 00000001801639dc f i libucrt:output.obj
 0001:00162a80       ??$write_multiple_characters@V?$stream_output_adapter@D@__crt_stdio_output@@D@__crt_stdio_output@@YAXAEBV?$stream_output_adapter@D@0@DHQEAH@Z 0000000180163a80 f i libucrt:output.obj
 0001:00162b0c       ??$write_multiple_characters@V?$stream_output_adapter@_W@__crt_stdio_output@@D@__crt_stdio_output@@YAXAEBV?$stream_output_adapter@_W@0@DHQEAH@Z 0000000180163b0c f i libucrt:output.obj
 0001:00162ba0       ??$write_multiple_characters@V?$string_output_adapter@D@__crt_stdio_output@@D@__crt_stdio_output@@YAXAEBV?$string_output_adapter@D@0@DHQEAH@Z 0000000180163ba0 f i libucrt:output.obj
 0001:00162c18       ??$write_multiple_characters@V?$string_output_adapter@_W@__crt_stdio_output@@D@__crt_stdio_output@@YAXAEBV?$string_output_adapter@_W@0@DHQEAH@Z 0000000180163c18 f i libucrt:output.obj
 0001:00162df8       ??0?$common_data@D@__crt_stdio_output@@IEAA@XZ 0000000180163df8 f i libucrt:output.obj
 0001:00162e34       ??0?$common_data@_W@__crt_stdio_output@@IEAA@XZ 0000000180163e34 f i libucrt:output.obj
 0001:00162e74       ??0?$output_adapter_data@DV?$stream_output_adapter@D@__crt_stdio_output@@@__crt_stdio_output@@IEAA@AEBV?$stream_output_adapter@D@1@_KQEBDQEAU__crt_locale_pointers@@QEAD@Z 0000000180163e74 f i libucrt:output.obj
 0001:00162ed4       ??0?$output_adapter_data@DV?$string_output_adapter@D@__crt_stdio_output@@@__crt_stdio_output@@IEAA@AEBV?$string_output_adapter@D@1@_KQEBDQEAU__crt_locale_pointers@@QEAD@Z 0000000180163ed4 f i libucrt:output.obj
 0001:00162f34       ??0?$output_adapter_data@_WV?$stream_output_adapter@_W@__crt_stdio_output@@@__crt_stdio_output@@IEAA@AEBV?$stream_output_adapter@_W@1@_KQEB_WQEAU__crt_locale_pointers@@QEAD@Z 0000000180163f34 f i libucrt:output.obj
 0001:00162f98       ??0?$output_adapter_data@_WV?$string_output_adapter@_W@__crt_stdio_output@@@__crt_stdio_output@@IEAA@AEBV?$string_output_adapter@_W@1@_KQEB_WQEAU__crt_locale_pointers@@QEAD@Z 0000000180163f98 f i libucrt:output.obj
 0001:00162ffc       ??0?$output_processor@DV?$stream_output_adapter@D@__crt_stdio_output@@V?$format_validation_base@DV?$stream_output_adapter@D@__crt_stdio_output@@@2@@__crt_stdio_output@@QEAA@AEBV?$stream_output_adapter@D@1@_KQEBDQEAU__crt_locale_pointers@@QEAD@Z 0000000180163ffc f i libucrt:output.obj
 0001:00163068       ??0?$output_processor@DV?$stream_output_adapter@D@__crt_stdio_output@@V?$positional_parameter_base@DV?$stream_output_adapter@D@__crt_stdio_output@@@2@@__crt_stdio_output@@QEAA@AEBV?$stream_output_adapter@D@1@_KQEBDQEAU__crt_locale_pointers@@QEAD@Z 0000000180164068 f i libucrt:output.obj
 0001:001630f0       ??0?$output_processor@DV?$stream_output_adapter@D@__crt_stdio_output@@V?$standard_base@DV?$stream_output_adapter@D@__crt_stdio_output@@@2@@__crt_stdio_output@@QEAA@AEBV?$stream_output_adapter@D@1@_KQEBDQEAU__crt_locale_pointers@@QEAD@Z 00000001801640f0 f i libucrt:output.obj
 0001:0016315c       ??0?$output_processor@DV?$string_output_adapter@D@__crt_stdio_output@@V?$format_validation_base@DV?$string_output_adapter@D@__crt_stdio_output@@@2@@__crt_stdio_output@@QEAA@AEBV?$string_output_adapter@D@1@_KQEBDQEAU__crt_locale_pointers@@QEAD@Z 000000018016415c f i libucrt:output.obj
 0001:001631c8       ??0?$output_processor@DV?$string_output_adapter@D@__crt_stdio_output@@V?$positional_parameter_base@DV?$string_output_adapter@D@__crt_stdio_output@@@2@@__crt_stdio_output@@QEAA@AEBV?$string_output_adapter@D@1@_KQEBDQEAU__crt_locale_pointers@@QEAD@Z 00000001801641c8 f i libucrt:output.obj
 0001:00163250       ??0?$output_processor@DV?$string_output_adapter@D@__crt_stdio_output@@V?$standard_base@DV?$string_output_adapter@D@__crt_stdio_output@@@2@@__crt_stdio_output@@QEAA@AEBV?$string_output_adapter@D@1@_KQEBDQEAU__crt_locale_pointers@@QEAD@Z 0000000180164250 f i libucrt:output.obj
 0001:001632bc       ??0?$output_processor@_WV?$stream_output_adapter@_W@__crt_stdio_output@@V?$format_validation_base@_WV?$stream_output_adapter@_W@__crt_stdio_output@@@2@@__crt_stdio_output@@QEAA@AEBV?$stream_output_adapter@_W@1@_KQEB_WQEAU__crt_locale_pointers@@QEAD@Z 00000001801642bc f i libucrt:output.obj
 0001:0016332c       ??0?$output_processor@_WV?$stream_output_adapter@_W@__crt_stdio_output@@V?$positional_parameter_base@_WV?$stream_output_adapter@_W@__crt_stdio_output@@@2@@__crt_stdio_output@@QEAA@AEBV?$stream_output_adapter@_W@1@_KQEB_WQEAU__crt_locale_pointers@@QEAD@Z 000000018016432c f i libucrt:output.obj
 0001:001633b8       ??0?$output_processor@_WV?$stream_output_adapter@_W@__crt_stdio_output@@V?$standard_base@_WV?$stream_output_adapter@_W@__crt_stdio_output@@@2@@__crt_stdio_output@@QEAA@AEBV?$stream_output_adapter@_W@1@_KQEB_WQEAU__crt_locale_pointers@@QEAD@Z 00000001801643b8 f i libucrt:output.obj
 0001:00163428       ??0?$output_processor@_WV?$string_output_adapter@_W@__crt_stdio_output@@V?$format_validation_base@_WV?$string_output_adapter@_W@__crt_stdio_output@@@2@@__crt_stdio_output@@QEAA@AEBV?$string_output_adapter@_W@1@_KQEB_WQEAU__crt_locale_pointers@@QEAD@Z 0000000180164428 f i libucrt:output.obj
 0001:00163498       ??0?$output_processor@_WV?$string_output_adapter@_W@__crt_stdio_output@@V?$positional_parameter_base@_WV?$string_output_adapter@_W@__crt_stdio_output@@@2@@__crt_stdio_output@@QEAA@AEBV?$string_output_adapter@_W@1@_KQEB_WQEAU__crt_locale_pointers@@QEAD@Z 0000000180164498 f i libucrt:output.obj
 0001:00163524       ??0?$output_processor@_WV?$string_output_adapter@_W@__crt_stdio_output@@V?$standard_base@_WV?$string_output_adapter@_W@__crt_stdio_output@@@2@@__crt_stdio_output@@QEAA@AEBV?$string_output_adapter@_W@1@_KQEB_WQEAU__crt_locale_pointers@@QEAD@Z 0000000180164524 f i libucrt:output.obj
 0001:00163594       ??0?$stream_output_adapter@D@__crt_stdio_output@@QEAA@QEAU_iobuf@@@Z 0000000180164594 f i libucrt:output.obj
 0001:0016359c       ??0?$stream_output_adapter@_W@__crt_stdio_output@@QEAA@QEAU_iobuf@@@Z 000000018016459c f i libucrt:output.obj
 0001:001635a4       ??0?$string_output_adapter@D@__crt_stdio_output@@QEAA@QEAU?$string_output_adapter_context@D@1@@Z 00000001801645a4 f i libucrt:output.obj
 0001:001635ac       ??0?$string_output_adapter@_W@__crt_stdio_output@@QEAA@QEAU?$string_output_adapter_context@_W@1@@Z 00000001801645ac f i libucrt:output.obj
 0001:001635b4       ??0_LocaleUpdate@@QEAA@QEAU__crt_locale_pointers@@@Z 00000001801645b4 f i libucrt:output.obj
 0001:00163650       ??0__acrt_stdio_temporary_buffering_guard@@QEAA@QEAU_iobuf@@@Z 0000000180164650 f i libucrt:output.obj
 0001:00163670       ??0__crt_deferred_errno_cache@@QEAA@XZ 0000000180164670 f i libucrt:output.obj
 0001:00163678       ??0__crt_errno_guard@@QEAA@QEAH@Z 0000000180164678 f i libucrt:output.obj
 0001:00163688       ??0__crt_stdio_stream@@QEAA@QEAU_iobuf@@@Z 0000000180164688 f i libucrt:output.obj
 0001:00163690       ??0formatting_buffer@__crt_stdio_output@@QEAA@XZ 0000000180164690 f i libucrt:output.obj
 0001:001636a4       ??1?$common_data@D@__crt_stdio_output@@QEAA@XZ 00000001801646a4 f i libucrt:output.obj
 0001:001636c8       ??1?$common_data@_W@__crt_stdio_output@@QEAA@XZ 00000001801646c8 f i libucrt:output.obj
 0001:001636ec       ??1?$format_validation_base@DV?$stream_output_adapter@D@__crt_stdio_output@@@__crt_stdio_output@@QEAA@XZ 00000001801646ec f i libucrt:output.obj
 0001:00163710       ??1?$format_validation_base@DV?$string_output_adapter@D@__crt_stdio_output@@@__crt_stdio_output@@QEAA@XZ 0000000180164710 f i libucrt:output.obj
 0001:00163734       ??1?$format_validation_base@_WV?$stream_output_adapter@_W@__crt_stdio_output@@@__crt_stdio_output@@QEAA@XZ 0000000180164734 f i libucrt:output.obj
 0001:00163758       ??1?$format_validation_base@_WV?$string_output_adapter@_W@__crt_stdio_output@@@__crt_stdio_output@@QEAA@XZ 0000000180164758 f i libucrt:output.obj
 0001:0016377c       ??1?$output_adapter_data@DV?$stream_output_adapter@D@__crt_stdio_output@@@__crt_stdio_output@@QEAA@XZ 000000018016477c f i libucrt:output.obj
 0001:001637a0       ??1?$output_adapter_data@DV?$string_output_adapter@D@__crt_stdio_output@@@__crt_stdio_output@@QEAA@XZ 00000001801647a0 f i libucrt:output.obj
 0001:001637c4       ??1?$output_adapter_data@_WV?$stream_output_adapter@_W@__crt_stdio_output@@@__crt_stdio_output@@QEAA@XZ 00000001801647c4 f i libucrt:output.obj
 0001:001637e8       ??1?$output_adapter_data@_WV?$string_output_adapter@_W@__crt_stdio_output@@@__crt_stdio_output@@QEAA@XZ 00000001801647e8 f i libucrt:output.obj
 0001:0016380c       ??1?$output_processor@DV?$stream_output_adapter@D@__crt_stdio_output@@V?$format_validation_base@DV?$stream_output_adapter@D@__crt_stdio_output@@@2@@__crt_stdio_output@@QEAA@XZ 000000018016480c f i libucrt:output.obj
 0001:00163830       ??1?$output_processor@DV?$stream_output_adapter@D@__crt_stdio_output@@V?$positional_parameter_base@DV?$stream_output_adapter@D@__crt_stdio_output@@@2@@__crt_stdio_output@@QEAA@XZ 0000000180164830 f i libucrt:output.obj
 0001:00163854       ??1?$output_processor@DV?$stream_output_adapter@D@__crt_stdio_output@@V?$standard_base@DV?$stream_output_adapter@D@__crt_stdio_output@@@2@@__crt_stdio_output@@QEAA@XZ 0000000180164854 f i libucrt:output.obj
 0001:00163878       ??1?$output_processor@DV?$string_output_adapter@D@__crt_stdio_output@@V?$format_validation_base@DV?$string_output_adapter@D@__crt_stdio_output@@@2@@__crt_stdio_output@@QEAA@XZ 0000000180164878 f i libucrt:output.obj
 0001:0016389c       ??1?$output_processor@DV?$string_output_adapter@D@__crt_stdio_output@@V?$positional_parameter_base@DV?$string_output_adapter@D@__crt_stdio_output@@@2@@__crt_stdio_output@@QEAA@XZ 000000018016489c f i libucrt:output.obj
 0001:001638c0       ??1?$output_processor@DV?$string_output_adapter@D@__crt_stdio_output@@V?$standard_base@DV?$string_output_adapter@D@__crt_stdio_output@@@2@@__crt_stdio_output@@QEAA@XZ 00000001801648c0 f i libucrt:output.obj
 0001:001638e4       ??1?$output_processor@_WV?$stream_output_adapter@_W@__crt_stdio_output@@V?$format_validation_base@_WV?$stream_output_adapter@_W@__crt_stdio_output@@@2@@__crt_stdio_output@@QEAA@XZ 00000001801648e4 f i libucrt:output.obj
 0001:00163908       ??1?$output_processor@_WV?$stream_output_adapter@_W@__crt_stdio_output@@V?$positional_parameter_base@_WV?$stream_output_adapter@_W@__crt_stdio_output@@@2@@__crt_stdio_output@@QEAA@XZ 0000000180164908 f i libucrt:output.obj
 0001:0016392c       ??1?$output_processor@_WV?$stream_output_adapter@_W@__crt_stdio_output@@V?$standard_base@_WV?$stream_output_adapter@_W@__crt_stdio_output@@@2@@__crt_stdio_output@@QEAA@XZ 000000018016492c f i libucrt:output.obj
 0001:00163950       ??1?$output_processor@_WV?$string_output_adapter@_W@__crt_stdio_output@@V?$format_validation_base@_WV?$string_output_adapter@_W@__crt_stdio_output@@@2@@__crt_stdio_output@@QEAA@XZ 0000000180164950 f i libucrt:output.obj
 0001:00163974       ??1?$output_processor@_WV?$string_output_adapter@_W@__crt_stdio_output@@V?$positional_parameter_base@_WV?$string_output_adapter@_W@__crt_stdio_output@@@2@@__crt_stdio_output@@QEAA@XZ 0000000180164974 f i libucrt:output.obj
 0001:00163998       ??1?$output_processor@_WV?$string_output_adapter@_W@__crt_stdio_output@@V?$standard_base@_WV?$string_output_adapter@_W@__crt_stdio_output@@@2@@__crt_stdio_output@@QEAA@XZ 0000000180164998 f i libucrt:output.obj
 0001:001639bc       ??1?$positional_parameter_base@DV?$stream_output_adapter@D@__crt_stdio_output@@@__crt_stdio_output@@QEAA@XZ 00000001801649bc f i libucrt:output.obj
 0001:001639e0       ??1?$positional_parameter_base@DV?$string_output_adapter@D@__crt_stdio_output@@@__crt_stdio_output@@QEAA@XZ 00000001801649e0 f i libucrt:output.obj
 0001:00163a04       ??1?$positional_parameter_base@_WV?$stream_output_adapter@_W@__crt_stdio_output@@@__crt_stdio_output@@QEAA@XZ 0000000180164a04 f i libucrt:output.obj
 0001:00163a28       ??1?$positional_parameter_base@_WV?$string_output_adapter@_W@__crt_stdio_output@@@__crt_stdio_output@@QEAA@XZ 0000000180164a28 f i libucrt:output.obj
 0001:00163a4c       ??1?$standard_base@DV?$stream_output_adapter@D@__crt_stdio_output@@@__crt_stdio_output@@QEAA@XZ 0000000180164a4c f i libucrt:output.obj
 0001:00163a70       ??1?$standard_base@DV?$string_output_adapter@D@__crt_stdio_output@@@__crt_stdio_output@@QEAA@XZ 0000000180164a70 f i libucrt:output.obj
 0001:00163a94       ??1?$standard_base@_WV?$stream_output_adapter@_W@__crt_stdio_output@@@__crt_stdio_output@@QEAA@XZ 0000000180164a94 f i libucrt:output.obj
 0001:00163ab8       ??1?$standard_base@_WV?$string_output_adapter@_W@__crt_stdio_output@@@__crt_stdio_output@@QEAA@XZ 0000000180164ab8 f i libucrt:output.obj
 0001:00163adc       ??1_LocaleUpdate@@QEAA@XZ  0000000180164adc f i libucrt:output.obj
 0001:00163af0       ??1__acrt_stdio_temporary_buffering_guard@@QEAA@XZ 0000000180164af0 f i libucrt:output.obj
 0001:00163afc       ??1__crt_errno_guard@@QEAA@XZ 0000000180164afc f i libucrt:output.obj
 0001:00163b10       ??1formatting_buffer@__crt_stdio_output@@QEAA@XZ 0000000180164b10 f i libucrt:output.obj
 0001:00163b34       ??4?$__crt_unique_heap_ptr@DU__crt_internal_free_policy@@@@QEAAAEAV0@$$QEAV0@@Z 0000000180164b34 f i libucrt:output.obj
 0001:00163b68       ??A?$spectre_mitigated_lookup_table@Ustate_transition_pair@__crt_stdio_output@@$0IA@@__crt_stdio_output@@QEBAAEBUstate_transition_pair@1@_K@Z 0000000180164b68 f i libucrt:output.obj
 0001:00163b70       ??C__crt_stdio_stream@@QEBAPEAU__crt_stdio_stream_data@@XZ 0000000180164b70 f i libucrt:output.obj
 0001:00164338       ?GetLocaleT@_LocaleUpdate@@QEAAPEAU__crt_locale_pointers@@XZ 0000000180165338 f i libucrt:output.obj
 0001:00164340       ?adjust_hexit@?$output_processor@DV?$stream_output_adapter@D@__crt_stdio_output@@V?$format_validation_base@DV?$stream_output_adapter@D@__crt_stdio_output@@@2@@__crt_stdio_output@@CADH_N@Z 0000000180165340 f i libucrt:output.obj
 0001:0016434c       ?adjust_hexit@?$output_processor@DV?$stream_output_adapter@D@__crt_stdio_output@@V?$positional_parameter_base@DV?$stream_output_adapter@D@__crt_stdio_output@@@2@@__crt_stdio_output@@CADH_N@Z 000000018016534c f i libucrt:output.obj
 0001:00164358       ?adjust_hexit@?$output_processor@DV?$stream_output_adapter@D@__crt_stdio_output@@V?$standard_base@DV?$stream_output_adapter@D@__crt_stdio_output@@@2@@__crt_stdio_output@@CADH_N@Z 0000000180165358 f i libucrt:output.obj
 0001:00164364       ?adjust_hexit@?$output_processor@DV?$string_output_adapter@D@__crt_stdio_output@@V?$format_validation_base@DV?$string_output_adapter@D@__crt_stdio_output@@@2@@__crt_stdio_output@@CADH_N@Z 0000000180165364 f i libucrt:output.obj
 0001:00164370       ?adjust_hexit@?$output_processor@DV?$string_output_adapter@D@__crt_stdio_output@@V?$positional_parameter_base@DV?$string_output_adapter@D@__crt_stdio_output@@@2@@__crt_stdio_output@@CADH_N@Z 0000000180165370 f i libucrt:output.obj
 0001:0016437c       ?adjust_hexit@?$output_processor@DV?$string_output_adapter@D@__crt_stdio_output@@V?$standard_base@DV?$string_output_adapter@D@__crt_stdio_output@@@2@@__crt_stdio_output@@CADH_N@Z 000000018016537c f i libucrt:output.obj
 0001:00164388       ?adjust_hexit@?$output_processor@_WV?$stream_output_adapter@_W@__crt_stdio_output@@V?$format_validation_base@_WV?$stream_output_adapter@_W@__crt_stdio_output@@@2@@__crt_stdio_output@@CADH_N@Z 0000000180165388 f i libucrt:output.obj
 0001:00164394       ?adjust_hexit@?$output_processor@_WV?$stream_output_adapter@_W@__crt_stdio_output@@V?$positional_parameter_base@_WV?$stream_output_adapter@_W@__crt_stdio_output@@@2@@__crt_stdio_output@@CADH_N@Z 0000000180165394 f i libucrt:output.obj
 0001:001643a0       ?adjust_hexit@?$output_processor@_WV?$stream_output_adapter@_W@__crt_stdio_output@@V?$standard_base@_WV?$stream_output_adapter@_W@__crt_stdio_output@@@2@@__crt_stdio_output@@CADH_N@Z 00000001801653a0 f i libucrt:output.obj
 0001:001643ac       ?adjust_hexit@?$output_processor@_WV?$string_output_adapter@_W@__crt_stdio_output@@V?$format_validation_base@_WV?$string_output_adapter@_W@__crt_stdio_output@@@2@@__crt_stdio_output@@CADH_N@Z 00000001801653ac f i libucrt:output.obj
 0001:001643b8       ?adjust_hexit@?$output_processor@_WV?$string_output_adapter@_W@__crt_stdio_output@@V?$positional_parameter_base@_WV?$string_output_adapter@_W@__crt_stdio_output@@@2@@__crt_stdio_output@@CADH_N@Z 00000001801653b8 f i libucrt:output.obj
 0001:001643c4       ?adjust_hexit@?$output_processor@_WV?$string_output_adapter@_W@__crt_stdio_output@@V?$standard_base@_WV?$string_output_adapter@_W@__crt_stdio_output@@@2@@__crt_stdio_output@@CADH_N@Z 00000001801653c4 f i libucrt:output.obj
 0001:001643d0       ?advance_to_next_pass@?$positional_parameter_base@DV?$stream_output_adapter@D@__crt_stdio_output@@@__crt_stdio_output@@IEAA_NXZ 00000001801653d0 f i libucrt:output.obj
 0001:00164420       ?advance_to_next_pass@?$positional_parameter_base@DV?$string_output_adapter@D@__crt_stdio_output@@@__crt_stdio_output@@IEAA_NXZ 0000000180165420 f i libucrt:output.obj
 0001:00164470       ?advance_to_next_pass@?$positional_parameter_base@_WV?$stream_output_adapter@_W@__crt_stdio_output@@@__crt_stdio_output@@IEAA_NXZ 0000000180165470 f i libucrt:output.obj
 0001:001644c0       ?advance_to_next_pass@?$positional_parameter_base@_WV?$string_output_adapter@_W@__crt_stdio_output@@@__crt_stdio_output@@IEAA_NXZ 00000001801654c0 f i libucrt:output.obj
 0001:00164510       ?advance_to_next_pass@?$standard_base@DV?$stream_output_adapter@D@__crt_stdio_output@@@__crt_stdio_output@@IEAA_NXZ 0000000180165510 f i libucrt:output.obj
 0001:00164524       ?advance_to_next_pass@?$standard_base@DV?$string_output_adapter@D@__crt_stdio_output@@@__crt_stdio_output@@IEAA_NXZ 0000000180165524 f i libucrt:output.obj
 0001:00164538       ?advance_to_next_pass@?$standard_base@_WV?$stream_output_adapter@_W@__crt_stdio_output@@@__crt_stdio_output@@IEAA_NXZ 0000000180165538 f i libucrt:output.obj
 0001:0016454c       ?advance_to_next_pass@?$standard_base@_WV?$string_output_adapter@_W@__crt_stdio_output@@@__crt_stdio_output@@IEAA_NXZ 000000018016554c f i libucrt:output.obj
 0001:00164560       ?crop_zeroes@__crt_stdio_output@@YAXPEADQEAU__crt_locale_pointers@@@Z 0000000180165560 f i libucrt:output.obj
 0001:001645f4       ?find_next_state@?$output_processor@DV?$stream_output_adapter@D@__crt_stdio_output@@V?$format_validation_base@DV?$stream_output_adapter@D@__crt_stdio_output@@@2@@__crt_stdio_output@@AEBA?AW4state@2@DW432@@Z 00000001801655f4 f i libucrt:output.obj
 0001:00164624       ?find_next_state@?$output_processor@DV?$stream_output_adapter@D@__crt_stdio_output@@V?$positional_parameter_base@DV?$stream_output_adapter@D@__crt_stdio_output@@@2@@__crt_stdio_output@@AEBA?AW4state@2@DW432@@Z 0000000180165624 f i libucrt:output.obj
 0001:00164654       ?find_next_state@?$output_processor@DV?$stream_output_adapter@D@__crt_stdio_output@@V?$standard_base@DV?$stream_output_adapter@D@__crt_stdio_output@@@2@@__crt_stdio_output@@AEBA?AW4state@2@DW432@@Z 0000000180165654 f i libucrt:output.obj
 0001:00164684       ?find_next_state@?$output_processor@DV?$string_output_adapter@D@__crt_stdio_output@@V?$format_validation_base@DV?$string_output_adapter@D@__crt_stdio_output@@@2@@__crt_stdio_output@@AEBA?AW4state@2@DW432@@Z 0000000180165684 f i libucrt:output.obj
 0001:001646b4       ?find_next_state@?$output_processor@DV?$string_output_adapter@D@__crt_stdio_output@@V?$positional_parameter_base@DV?$string_output_adapter@D@__crt_stdio_output@@@2@@__crt_stdio_output@@AEBA?AW4state@2@DW432@@Z 00000001801656b4 f i libucrt:output.obj
 0001:001646e4       ?find_next_state@?$output_processor@DV?$string_output_adapter@D@__crt_stdio_output@@V?$standard_base@DV?$string_output_adapter@D@__crt_stdio_output@@@2@@__crt_stdio_output@@AEBA?AW4state@2@DW432@@Z 00000001801656e4 f i libucrt:output.obj
 0001:00164714       ?find_next_state@?$output_processor@_WV?$stream_output_adapter@_W@__crt_stdio_output@@V?$format_validation_base@_WV?$stream_output_adapter@_W@__crt_stdio_output@@@2@@__crt_stdio_output@@AEBA?AW4state@2@_WW432@@Z 0000000180165714 f i libucrt:output.obj
 0001:0016474c       ?find_next_state@?$output_processor@_WV?$stream_output_adapter@_W@__crt_stdio_output@@V?$positional_parameter_base@_WV?$stream_output_adapter@_W@__crt_stdio_output@@@2@@__crt_stdio_output@@AEBA?AW4state@2@_WW432@@Z 000000018016574c f i libucrt:output.obj
 0001:00164784       ?find_next_state@?$output_processor@_WV?$stream_output_adapter@_W@__crt_stdio_output@@V?$standard_base@_WV?$stream_output_adapter@_W@__crt_stdio_output@@@2@@__crt_stdio_output@@AEBA?AW4state@2@_WW432@@Z 0000000180165784 f i libucrt:output.obj
 0001:001647bc       ?find_next_state@?$output_processor@_WV?$string_output_adapter@_W@__crt_stdio_output@@V?$format_validation_base@_WV?$string_output_adapter@_W@__crt_stdio_output@@@2@@__crt_stdio_output@@AEBA?AW4state@2@_WW432@@Z 00000001801657bc f i libucrt:output.obj
 0001:001647f4       ?find_next_state@?$output_processor@_WV?$string_output_adapter@_W@__crt_stdio_output@@V?$positional_parameter_base@_WV?$string_output_adapter@_W@__crt_stdio_output@@@2@@__crt_stdio_output@@AEBA?AW4state@2@_WW432@@Z 00000001801657f4 f i libucrt:output.obj
 0001:0016482c       ?find_next_state@?$output_processor@_WV?$string_output_adapter@_W@__crt_stdio_output@@V?$standard_base@_WV?$string_output_adapter@_W@__crt_stdio_output@@@2@@__crt_stdio_output@@AEBA?AW4state@2@_WW432@@Z 000000018016582c f i libucrt:output.obj
 0001:00164870       ?force_decimal_point@__crt_stdio_output@@YAXPEADQEAU__crt_locale_pointers@@@Z 0000000180165870 f i libucrt:output.obj
 0001:001648e8       ?get@__crt_deferred_errno_cache@@QEAAAEAHXZ 00000001801658e8 f i libucrt:output.obj
 0001:00164908       ?get_flags@__crt_stdio_stream@@QEBAJXZ 0000000180165908 f i libucrt:output.obj
 0001:00164910       ?get_parameter_type@?$positional_parameter_base@DV?$stream_output_adapter@D@__crt_stdio_output@@@__crt_stdio_output@@CA?AW4parameter_type@12@F@Z 0000000180165910 f i libucrt:output.obj
 0001:00164918       ?get_parameter_type@?$positional_parameter_base@DV?$stream_output_adapter@D@__crt_stdio_output@@@__crt_stdio_output@@CA?AW4parameter_type@12@G@Z 0000000180165918 f i libucrt:output.obj
 0001:00164920       ?get_parameter_type@?$positional_parameter_base@DV?$stream_output_adapter@D@__crt_stdio_output@@@__crt_stdio_output@@CA?AW4parameter_type@12@H@Z 0000000180165920 f i libucrt:output.obj
 0001:00164928       ?get_parameter_type@?$positional_parameter_base@DV?$stream_output_adapter@D@__crt_stdio_output@@@__crt_stdio_output@@CA?AW4parameter_type@12@I@Z 0000000180165928 f i libucrt:output.obj
 0001:00164930       ?get_parameter_type@?$positional_parameter_base@DV?$stream_output_adapter@D@__crt_stdio_output@@@__crt_stdio_output@@CA?AW4parameter_type@12@U_CRT_DOUBLE@@@Z 0000000180165930 f i libucrt:output.obj
 0001:00164938       ?get_parameter_type@?$positional_parameter_base@DV?$stream_output_adapter@D@__crt_stdio_output@@@__crt_stdio_output@@CA?AW4parameter_type@12@_J@Z 0000000180165938 f i libucrt:output.obj
 0001:00164940       ?get_parameter_type@?$positional_parameter_base@DV?$stream_output_adapter@D@__crt_stdio_output@@@__crt_stdio_output@@CA?AW4parameter_type@12@_K@Z 0000000180165940 f i libucrt:output.obj
 0001:00164948       ?get_parameter_type@?$positional_parameter_base@DV?$stream_output_adapter@D@__crt_stdio_output@@@__crt_stdio_output@@CA?AW4parameter_type@12@_W@Z 0000000180165948 f i libucrt:output.obj
 0001:00164950       ?get_parameter_type@?$positional_parameter_base@DV?$string_output_adapter@D@__crt_stdio_output@@@__crt_stdio_output@@CA?AW4parameter_type@12@F@Z 0000000180165950 f i libucrt:output.obj
 0001:00164958       ?get_parameter_type@?$positional_parameter_base@DV?$string_output_adapter@D@__crt_stdio_output@@@__crt_stdio_output@@CA?AW4parameter_type@12@G@Z 0000000180165958 f i libucrt:output.obj
 0001:00164960       ?get_parameter_type@?$positional_parameter_base@DV?$string_output_adapter@D@__crt_stdio_output@@@__crt_stdio_output@@CA?AW4parameter_type@12@H@Z 0000000180165960 f i libucrt:output.obj
 0001:00164968       ?get_parameter_type@?$positional_parameter_base@DV?$string_output_adapter@D@__crt_stdio_output@@@__crt_stdio_output@@CA?AW4parameter_type@12@I@Z 0000000180165968 f i libucrt:output.obj
 0001:00164970       ?get_parameter_type@?$positional_parameter_base@DV?$string_output_adapter@D@__crt_stdio_output@@@__crt_stdio_output@@CA?AW4parameter_type@12@U_CRT_DOUBLE@@@Z 0000000180165970 f i libucrt:output.obj
 0001:00164978       ?get_parameter_type@?$positional_parameter_base@DV?$string_output_adapter@D@__crt_stdio_output@@@__crt_stdio_output@@CA?AW4parameter_type@12@_J@Z 0000000180165978 f i libucrt:output.obj
 0001:00164980       ?get_parameter_type@?$positional_parameter_base@DV?$string_output_adapter@D@__crt_stdio_output@@@__crt_stdio_output@@CA?AW4parameter_type@12@_K@Z 0000000180165980 f i libucrt:output.obj
 0001:00164988       ?get_parameter_type@?$positional_parameter_base@DV?$string_output_adapter@D@__crt_stdio_output@@@__crt_stdio_output@@CA?AW4parameter_type@12@_W@Z 0000000180165988 f i libucrt:output.obj
 0001:00164990       ?get_parameter_type@?$positional_parameter_base@_WV?$stream_output_adapter@_W@__crt_stdio_output@@@__crt_stdio_output@@CA?AW4parameter_type@12@F@Z 0000000180165990 f i libucrt:output.obj
 0001:00164998       ?get_parameter_type@?$positional_parameter_base@_WV?$stream_output_adapter@_W@__crt_stdio_output@@@__crt_stdio_output@@CA?AW4parameter_type@12@G@Z 0000000180165998 f i libucrt:output.obj
 0001:001649a0       ?get_parameter_type@?$positional_parameter_base@_WV?$stream_output_adapter@_W@__crt_stdio_output@@@__crt_stdio_output@@CA?AW4parameter_type@12@H@Z 00000001801659a0 f i libucrt:output.obj
 0001:001649a8       ?get_parameter_type@?$positional_parameter_base@_WV?$stream_output_adapter@_W@__crt_stdio_output@@@__crt_stdio_output@@CA?AW4parameter_type@12@I@Z 00000001801659a8 f i libucrt:output.obj
 0001:001649b0       ?get_parameter_type@?$positional_parameter_base@_WV?$stream_output_adapter@_W@__crt_stdio_output@@@__crt_stdio_output@@CA?AW4parameter_type@12@U_CRT_DOUBLE@@@Z 00000001801659b0 f i libucrt:output.obj
 0001:001649b8       ?get_parameter_type@?$positional_parameter_base@_WV?$stream_output_adapter@_W@__crt_stdio_output@@@__crt_stdio_output@@CA?AW4parameter_type@12@_J@Z 00000001801659b8 f i libucrt:output.obj
 0001:001649c0       ?get_parameter_type@?$positional_parameter_base@_WV?$stream_output_adapter@_W@__crt_stdio_output@@@__crt_stdio_output@@CA?AW4parameter_type@12@_K@Z 00000001801659c0 f i libucrt:output.obj
 0001:001649c8       ?get_parameter_type@?$positional_parameter_base@_WV?$stream_output_adapter@_W@__crt_stdio_output@@@__crt_stdio_output@@CA?AW4parameter_type@12@_W@Z 00000001801659c8 f i libucrt:output.obj
 0001:001649d0       ?get_parameter_type@?$positional_parameter_base@_WV?$string_output_adapter@_W@__crt_stdio_output@@@__crt_stdio_output@@CA?AW4parameter_type@12@F@Z 00000001801659d0 f i libucrt:output.obj
 0001:001649d8       ?get_parameter_type@?$positional_parameter_base@_WV?$string_output_adapter@_W@__crt_stdio_output@@@__crt_stdio_output@@CA?AW4parameter_type@12@G@Z 00000001801659d8 f i libucrt:output.obj
 0001:001649e0       ?get_parameter_type@?$positional_parameter_base@_WV?$string_output_adapter@_W@__crt_stdio_output@@@__crt_stdio_output@@CA?AW4parameter_type@12@H@Z 00000001801659e0 f i libucrt:output.obj
 0001:001649e8       ?get_parameter_type@?$positional_parameter_base@_WV?$string_output_adapter@_W@__crt_stdio_output@@@__crt_stdio_output@@CA?AW4parameter_type@12@I@Z 00000001801659e8 f i libucrt:output.obj
 0001:001649f0       ?get_parameter_type@?$positional_parameter_base@_WV?$string_output_adapter@_W@__crt_stdio_output@@@__crt_stdio_output@@CA?AW4parameter_type@12@U_CRT_DOUBLE@@@Z 00000001801659f0 f i libucrt:output.obj
 0001:001649f8       ?get_parameter_type@?$positional_parameter_base@_WV?$string_output_adapter@_W@__crt_stdio_output@@@__crt_stdio_output@@CA?AW4parameter_type@12@_J@Z 00000001801659f8 f i libucrt:output.obj
 0001:00164a00       ?get_parameter_type@?$positional_parameter_base@_WV?$string_output_adapter@_W@__crt_stdio_output@@@__crt_stdio_output@@CA?AW4parameter_type@12@_K@Z 0000000180165a00 f i libucrt:output.obj
 0001:00164a08       ?get_parameter_type@?$positional_parameter_base@_WV?$string_output_adapter@_W@__crt_stdio_output@@@__crt_stdio_output@@CA?AW4parameter_type@12@_W@Z 0000000180165a08 f i libucrt:output.obj
 0001:00164a10       ?has_flag@?$output_processor@DV?$stream_output_adapter@D@__crt_stdio_output@@V?$format_validation_base@DV?$stream_output_adapter@D@__crt_stdio_output@@@2@@__crt_stdio_output@@AEBA_NI@Z 0000000180165a10 f i libucrt:output.obj
 0001:00164a18       ?has_flag@?$output_processor@DV?$stream_output_adapter@D@__crt_stdio_output@@V?$positional_parameter_base@DV?$stream_output_adapter@D@__crt_stdio_output@@@2@@__crt_stdio_output@@AEBA_NI@Z 0000000180165a18 f i libucrt:output.obj
 0001:00164a20       ?has_flag@?$output_processor@DV?$stream_output_adapter@D@__crt_stdio_output@@V?$standard_base@DV?$stream_output_adapter@D@__crt_stdio_output@@@2@@__crt_stdio_output@@AEBA_NI@Z 0000000180165a20 f i libucrt:output.obj
 0001:00164a28       ?has_flag@?$output_processor@DV?$string_output_adapter@D@__crt_stdio_output@@V?$format_validation_base@DV?$string_output_adapter@D@__crt_stdio_output@@@2@@__crt_stdio_output@@AEBA_NI@Z 0000000180165a28 f i libucrt:output.obj
 0001:00164a30       ?has_flag@?$output_processor@DV?$string_output_adapter@D@__crt_stdio_output@@V?$positional_parameter_base@DV?$string_output_adapter@D@__crt_stdio_output@@@2@@__crt_stdio_output@@AEBA_NI@Z 0000000180165a30 f i libucrt:output.obj
 0001:00164a38       ?has_flag@?$output_processor@DV?$string_output_adapter@D@__crt_stdio_output@@V?$standard_base@DV?$string_output_adapter@D@__crt_stdio_output@@@2@@__crt_stdio_output@@AEBA_NI@Z 0000000180165a38 f i libucrt:output.obj
 0001:00164a40       ?has_flag@?$output_processor@_WV?$stream_output_adapter@_W@__crt_stdio_output@@V?$format_validation_base@_WV?$stream_output_adapter@_W@__crt_stdio_output@@@2@@__crt_stdio_output@@AEBA_NI@Z 0000000180165a40 f i libucrt:output.obj
 0001:00164a48       ?has_flag@?$output_processor@_WV?$stream_output_adapter@_W@__crt_stdio_output@@V?$positional_parameter_base@_WV?$stream_output_adapter@_W@__crt_stdio_output@@@2@@__crt_stdio_output@@AEBA_NI@Z 0000000180165a48 f i libucrt:output.obj
 0001:00164a50       ?has_flag@?$output_processor@_WV?$stream_output_adapter@_W@__crt_stdio_output@@V?$standard_base@_WV?$stream_output_adapter@_W@__crt_stdio_output@@@2@@__crt_stdio_output@@AEBA_NI@Z 0000000180165a50 f i libucrt:output.obj
 0001:00164a58       ?has_flag@?$output_processor@_WV?$string_output_adapter@_W@__crt_stdio_output@@V?$format_validation_base@_WV?$string_output_adapter@_W@__crt_stdio_output@@@2@@__crt_stdio_output@@AEBA_NI@Z 0000000180165a58 f i libucrt:output.obj
 0001:00164a60       ?has_flag@?$output_processor@_WV?$string_output_adapter@_W@__crt_stdio_output@@V?$positional_parameter_base@_WV?$string_output_adapter@_W@__crt_stdio_output@@@2@@__crt_stdio_output@@AEBA_NI@Z 0000000180165a60 f i libucrt:output.obj
 0001:00164a68       ?has_flag@?$output_processor@_WV?$string_output_adapter@_W@__crt_stdio_output@@V?$standard_base@_WV?$string_output_adapter@_W@__crt_stdio_output@@@2@@__crt_stdio_output@@AEBA_NI@Z 0000000180165a68 f i libucrt:output.obj
 0001:00164a70       ?is_positional_parameter_reappearance_consistent@?$positional_parameter_base@DV?$stream_output_adapter@D@__crt_stdio_output@@@__crt_stdio_output@@AEAA_NAEBUparameter_data@12@W4parameter_type@12@DW4length_modifier@2@@Z 0000000180165a70 f i libucrt:output.obj
 0001:00164c10       ?is_positional_parameter_reappearance_consistent@?$positional_parameter_base@DV?$string_output_adapter@D@__crt_stdio_output@@@__crt_stdio_output@@AEAA_NAEBUparameter_data@12@W4parameter_type@12@DW4length_modifier@2@@Z 0000000180165c10 f i libucrt:output.obj
 0001:00164db0       ?is_positional_parameter_reappearance_consistent@?$positional_parameter_base@_WV?$stream_output_adapter@_W@__crt_stdio_output@@@__crt_stdio_output@@AEAA_NAEBUparameter_data@12@W4parameter_type@12@_WW4length_modifier@2@@Z 0000000180165db0 f i libucrt:output.obj
 0001:00164f1c       ?is_positional_parameter_reappearance_consistent@?$positional_parameter_base@_WV?$string_output_adapter@_W@__crt_stdio_output@@@__crt_stdio_output@@AEAA_NAEBUparameter_data@12@W4parameter_type@12@_WW4length_modifier@2@@Z 0000000180165f1c f i libucrt:output.obj
 0001:00165088       ?is_string_backed@__crt_stdio_stream@@QEBA_NXZ 0000000180166088 f i libucrt:output.obj
 0001:00165094       ?narrow_null_string@?$output_processor@DV?$stream_output_adapter@D@__crt_stdio_output@@V?$format_validation_base@DV?$stream_output_adapter@D@__crt_stdio_output@@@2@@__crt_stdio_output@@CAPEADXZ 0000000180166094 f i libucrt:output.obj
 0001:0016509c       ?narrow_null_string@?$output_processor@DV?$stream_output_adapter@D@__crt_stdio_output@@V?$positional_parameter_base@DV?$stream_output_adapter@D@__crt_stdio_output@@@2@@__crt_stdio_output@@CAPEADXZ 000000018016609c f i libucrt:output.obj
 0001:001650a4       ?narrow_null_string@?$output_processor@DV?$stream_output_adapter@D@__crt_stdio_output@@V?$standard_base@DV?$stream_output_adapter@D@__crt_stdio_output@@@2@@__crt_stdio_output@@CAPEADXZ 00000001801660a4 f i libucrt:output.obj
 0001:001650ac       ?narrow_null_string@?$output_processor@DV?$string_output_adapter@D@__crt_stdio_output@@V?$format_validation_base@DV?$string_output_adapter@D@__crt_stdio_output@@@2@@__crt_stdio_output@@CAPEADXZ 00000001801660ac f i libucrt:output.obj
 0001:001650b4       ?narrow_null_string@?$output_processor@DV?$string_output_adapter@D@__crt_stdio_output@@V?$positional_parameter_base@DV?$string_output_adapter@D@__crt_stdio_output@@@2@@__crt_stdio_output@@CAPEADXZ 00000001801660b4 f i libucrt:output.obj
 0001:001650bc       ?narrow_null_string@?$output_processor@DV?$string_output_adapter@D@__crt_stdio_output@@V?$standard_base@DV?$string_output_adapter@D@__crt_stdio_output@@@2@@__crt_stdio_output@@CAPEADXZ 00000001801660bc f i libucrt:output.obj
 0001:001650c4       ?narrow_null_string@?$output_processor@_WV?$stream_output_adapter@_W@__crt_stdio_output@@V?$format_validation_base@_WV?$stream_output_adapter@_W@__crt_stdio_output@@@2@@__crt_stdio_output@@CAPEADXZ 00000001801660c4 f i libucrt:output.obj
 0001:001650cc       ?narrow_null_string@?$output_processor@_WV?$stream_output_adapter@_W@__crt_stdio_output@@V?$positional_parameter_base@_WV?$stream_output_adapter@_W@__crt_stdio_output@@@2@@__crt_stdio_output@@CAPEADXZ 00000001801660cc f i libucrt:output.obj
 0001:001650d4       ?narrow_null_string@?$output_processor@_WV?$stream_output_adapter@_W@__crt_stdio_output@@V?$standard_base@_WV?$stream_output_adapter@_W@__crt_stdio_output@@@2@@__crt_stdio_output@@CAPEADXZ 00000001801660d4 f i libucrt:output.obj
 0001:001650dc       ?narrow_null_string@?$output_processor@_WV?$string_output_adapter@_W@__crt_stdio_output@@V?$format_validation_base@_WV?$string_output_adapter@_W@__crt_stdio_output@@@2@@__crt_stdio_output@@CAPEADXZ 00000001801660dc f i libucrt:output.obj
 0001:001650e4       ?narrow_null_string@?$output_processor@_WV?$string_output_adapter@_W@__crt_stdio_output@@V?$positional_parameter_base@_WV?$string_output_adapter@_W@__crt_stdio_output@@@2@@__crt_stdio_output@@CAPEADXZ 00000001801660e4 f i libucrt:output.obj
 0001:001650ec       ?narrow_null_string@?$output_processor@_WV?$string_output_adapter@_W@__crt_stdio_output@@V?$standard_base@_WV?$string_output_adapter@_W@__crt_stdio_output@@@2@@__crt_stdio_output@@CAPEADXZ 00000001801660ec f i libucrt:output.obj
 0001:001650f4       ?parse_int_from_format_string@?$output_processor@DV?$stream_output_adapter@D@__crt_stdio_output@@V?$format_validation_base@DV?$stream_output_adapter@D@__crt_stdio_output@@@2@@__crt_stdio_output@@AEAA_NQEAH@Z 00000001801660f4 f i libucrt:output.obj
 0001:00165198       ?parse_int_from_format_string@?$output_processor@DV?$stream_output_adapter@D@__crt_stdio_output@@V?$positional_parameter_base@DV?$stream_output_adapter@D@__crt_stdio_output@@@2@@__crt_stdio_output@@AEAA_NQEAH@Z 0000000180166198 f i libucrt:output.obj
 0001:0016523c       ?parse_int_from_format_string@?$output_processor@DV?$stream_output_adapter@D@__crt_stdio_output@@V?$standard_base@DV?$stream_output_adapter@D@__crt_stdio_output@@@2@@__crt_stdio_output@@AEAA_NQEAH@Z 000000018016623c f i libucrt:output.obj
 0001:001652e0       ?parse_int_from_format_string@?$output_processor@DV?$string_output_adapter@D@__crt_stdio_output@@V?$format_validation_base@DV?$string_output_adapter@D@__crt_stdio_output@@@2@@__crt_stdio_output@@AEAA_NQEAH@Z 00000001801662e0 f i libucrt:output.obj
 0001:00165384       ?parse_int_from_format_string@?$output_processor@DV?$string_output_adapter@D@__crt_stdio_output@@V?$positional_parameter_base@DV?$string_output_adapter@D@__crt_stdio_output@@@2@@__crt_stdio_output@@AEAA_NQEAH@Z 0000000180166384 f i libucrt:output.obj
 0001:00165428       ?parse_int_from_format_string@?$output_processor@DV?$string_output_adapter@D@__crt_stdio_output@@V?$standard_base@DV?$string_output_adapter@D@__crt_stdio_output@@@2@@__crt_stdio_output@@AEAA_NQEAH@Z 0000000180166428 f i libucrt:output.obj
 0001:001654cc       ?parse_int_from_format_string@?$output_processor@_WV?$stream_output_adapter@_W@__crt_stdio_output@@V?$format_validation_base@_WV?$stream_output_adapter@_W@__crt_stdio_output@@@2@@__crt_stdio_output@@AEAA_NQEAH@Z 00000001801664cc f i libucrt:output.obj
 0001:00165570       ?parse_int_from_format_string@?$output_processor@_WV?$stream_output_adapter@_W@__crt_stdio_output@@V?$positional_parameter_base@_WV?$stream_output_adapter@_W@__crt_stdio_output@@@2@@__crt_stdio_output@@AEAA_NQEAH@Z 0000000180166570 f i libucrt:output.obj
 0001:00165614       ?parse_int_from_format_string@?$output_processor@_WV?$stream_output_adapter@_W@__crt_stdio_output@@V?$standard_base@_WV?$stream_output_adapter@_W@__crt_stdio_output@@@2@@__crt_stdio_output@@AEAA_NQEAH@Z 0000000180166614 f i libucrt:output.obj
 0001:001656b8       ?parse_int_from_format_string@?$output_processor@_WV?$string_output_adapter@_W@__crt_stdio_output@@V?$format_validation_base@_WV?$string_output_adapter@_W@__crt_stdio_output@@@2@@__crt_stdio_output@@AEAA_NQEAH@Z 00000001801666b8 f i libucrt:output.obj
 0001:0016575c       ?parse_int_from_format_string@?$output_processor@_WV?$string_output_adapter@_W@__crt_stdio_output@@V?$positional_parameter_base@_WV?$string_output_adapter@_W@__crt_stdio_output@@@2@@__crt_stdio_output@@AEAA_NQEAH@Z 000000018016675c f i libucrt:output.obj
 0001:00165800       ?parse_int_from_format_string@?$output_processor@_WV?$string_output_adapter@_W@__crt_stdio_output@@V?$standard_base@_WV?$string_output_adapter@_W@__crt_stdio_output@@@2@@__crt_stdio_output@@AEAA_NQEAH@Z 0000000180166800 f i libucrt:output.obj
 0001:001658a4       ?process@?$output_processor@DV?$stream_output_adapter@D@__crt_stdio_output@@V?$format_validation_base@DV?$stream_output_adapter@D@__crt_stdio_output@@@2@@__crt_stdio_output@@QEAAHXZ 00000001801668a4 f i libucrt:output.obj
 0001:00165ac8       ?process@?$output_processor@DV?$stream_output_adapter@D@__crt_stdio_output@@V?$positional_parameter_base@DV?$stream_output_adapter@D@__crt_stdio_output@@@2@@__crt_stdio_output@@QEAAHXZ 0000000180166ac8 f i libucrt:output.obj
 0001:00165d6c       ?process@?$output_processor@DV?$stream_output_adapter@D@__crt_stdio_output@@V?$standard_base@DV?$stream_output_adapter@D@__crt_stdio_output@@@2@@__crt_stdio_output@@QEAAHXZ 0000000180166d6c f i libucrt:output.obj
 0001:00165f80       ?process@?$output_processor@DV?$string_output_adapter@D@__crt_stdio_output@@V?$format_validation_base@DV?$string_output_adapter@D@__crt_stdio_output@@@2@@__crt_stdio_output@@QEAAHXZ 0000000180166f80 f i libucrt:output.obj
 0001:00166194       ?process@?$output_processor@DV?$string_output_adapter@D@__crt_stdio_output@@V?$positional_parameter_base@DV?$string_output_adapter@D@__crt_stdio_output@@@2@@__crt_stdio_output@@QEAAHXZ 0000000180167194 f i libucrt:output.obj
 0001:00166428       ?process@?$output_processor@DV?$string_output_adapter@D@__crt_stdio_output@@V?$standard_base@DV?$string_output_adapter@D@__crt_stdio_output@@@2@@__crt_stdio_output@@QEAAHXZ 0000000180167428 f i libucrt:output.obj
 0001:00166630       ?process@?$output_processor@_WV?$stream_output_adapter@_W@__crt_stdio_output@@V?$format_validation_base@_WV?$stream_output_adapter@_W@__crt_stdio_output@@@2@@__crt_stdio_output@@QEAAHXZ 0000000180167630 f i libucrt:output.obj
 0001:001668b4       ?process@?$output_processor@_WV?$stream_output_adapter@_W@__crt_stdio_output@@V?$positional_parameter_base@_WV?$stream_output_adapter@_W@__crt_stdio_output@@@2@@__crt_stdio_output@@QEAAHXZ 00000001801678b4 f i libucrt:output.obj
 0001:00166b70       ?process@?$output_processor@_WV?$stream_output_adapter@_W@__crt_stdio_output@@V?$standard_base@_WV?$stream_output_adapter@_W@__crt_stdio_output@@@2@@__crt_stdio_output@@QEAAHXZ 0000000180167b70 f i libucrt:output.obj
 0001:00166de8       ?process@?$output_processor@_WV?$string_output_adapter@_W@__crt_stdio_output@@V?$format_validation_base@_WV?$string_output_adapter@_W@__crt_stdio_output@@@2@@__crt_stdio_output@@QEAAHXZ 0000000180167de8 f i libucrt:output.obj
 0001:00167060       ?process@?$output_processor@_WV?$string_output_adapter@_W@__crt_stdio_output@@V?$positional_parameter_base@_WV?$string_output_adapter@_W@__crt_stdio_output@@@2@@__crt_stdio_output@@QEAAHXZ 0000000180168060 f i libucrt:output.obj
 0001:0016731c       ?process@?$output_processor@_WV?$string_output_adapter@_W@__crt_stdio_output@@V?$standard_base@_WV?$string_output_adapter@_W@__crt_stdio_output@@@2@@__crt_stdio_output@@QEAAHXZ 000000018016831c f i libucrt:output.obj
 0001:00167588       ?public_stream@__crt_stdio_stream@@QEBAPEAU_iobuf@@XZ 0000000180168588 f i libucrt:output.obj
 0001:0016758c       ?set_flag@?$output_processor@DV?$stream_output_adapter@D@__crt_stdio_output@@V?$format_validation_base@DV?$stream_output_adapter@D@__crt_stdio_output@@@2@@__crt_stdio_output@@AEAAXI@Z 000000018016858c f i libucrt:output.obj
 0001:00167590       ?set_flag@?$output_processor@DV?$stream_output_adapter@D@__crt_stdio_output@@V?$positional_parameter_base@DV?$stream_output_adapter@D@__crt_stdio_output@@@2@@__crt_stdio_output@@AEAAXI@Z 0000000180168590 f i libucrt:output.obj
 0001:00167594       ?set_flag@?$output_processor@DV?$stream_output_adapter@D@__crt_stdio_output@@V?$standard_base@DV?$stream_output_adapter@D@__crt_stdio_output@@@2@@__crt_stdio_output@@AEAAXI@Z 0000000180168594 f i libucrt:output.obj
 0001:00167598       ?set_flag@?$output_processor@DV?$string_output_adapter@D@__crt_stdio_output@@V?$format_validation_base@DV?$string_output_adapter@D@__crt_stdio_output@@@2@@__crt_stdio_output@@AEAAXI@Z 0000000180168598 f i libucrt:output.obj
 0001:0016759c       ?set_flag@?$output_processor@DV?$string_output_adapter@D@__crt_stdio_output@@V?$positional_parameter_base@DV?$string_output_adapter@D@__crt_stdio_output@@@2@@__crt_stdio_output@@AEAAXI@Z 000000018016859c f i libucrt:output.obj
 0001:001675a0       ?set_flag@?$output_processor@DV?$string_output_adapter@D@__crt_stdio_output@@V?$standard_base@DV?$string_output_adapter@D@__crt_stdio_output@@@2@@__crt_stdio_output@@AEAAXI@Z 00000001801685a0 f i libucrt:output.obj
 0001:001675a4       ?set_flag@?$output_processor@_WV?$stream_output_adapter@_W@__crt_stdio_output@@V?$format_validation_base@_WV?$stream_output_adapter@_W@__crt_stdio_output@@@2@@__crt_stdio_output@@AEAAXI@Z 00000001801685a4 f i libucrt:output.obj
 0001:001675a8       ?set_flag@?$output_processor@_WV?$stream_output_adapter@_W@__crt_stdio_output@@V?$positional_parameter_base@_WV?$stream_output_adapter@_W@__crt_stdio_output@@@2@@__crt_stdio_output@@AEAAXI@Z 00000001801685a8 f i libucrt:output.obj
 0001:001675ac       ?set_flag@?$output_processor@_WV?$stream_output_adapter@_W@__crt_stdio_output@@V?$standard_base@_WV?$stream_output_adapter@_W@__crt_stdio_output@@@2@@__crt_stdio_output@@AEAAXI@Z 00000001801685ac f i libucrt:output.obj
 0001:001675b0       ?set_flag@?$output_processor@_WV?$string_output_adapter@_W@__crt_stdio_output@@V?$format_validation_base@_WV?$string_output_adapter@_W@__crt_stdio_output@@@2@@__crt_stdio_output@@AEAAXI@Z 00000001801685b0 f i libucrt:output.obj
 0001:001675b4       ?set_flag@?$output_processor@_WV?$string_output_adapter@_W@__crt_stdio_output@@V?$positional_parameter_base@_WV?$string_output_adapter@_W@__crt_stdio_output@@@2@@__crt_stdio_output@@AEAAXI@Z 00000001801685b4 f i libucrt:output.obj
 0001:001675b8       ?set_flag@?$output_processor@_WV?$string_output_adapter@_W@__crt_stdio_output@@V?$standard_base@_WV?$string_output_adapter@_W@__crt_stdio_output@@@2@@__crt_stdio_output@@AEAAXI@Z 00000001801685b8 f i libucrt:output.obj
 0001:001675bc       ?should_format@?$positional_parameter_base@DV?$stream_output_adapter@D@__crt_stdio_output@@@__crt_stdio_output@@IEAA_NXZ 00000001801685bc f i libucrt:output.obj
 0001:001675d4       ?should_format@?$positional_parameter_base@DV?$string_output_adapter@D@__crt_stdio_output@@@__crt_stdio_output@@IEAA_NXZ 00000001801685d4 f i libucrt:output.obj
 0001:001675ec       ?should_format@?$positional_parameter_base@_WV?$stream_output_adapter@_W@__crt_stdio_output@@@__crt_stdio_output@@IEAA_NXZ 00000001801685ec f i libucrt:output.obj
 0001:00167604       ?should_format@?$positional_parameter_base@_WV?$string_output_adapter@_W@__crt_stdio_output@@@__crt_stdio_output@@IEAA_NXZ 0000000180168604 f i libucrt:output.obj
 0001:0016761c       ?should_format@?$standard_base@DV?$stream_output_adapter@D@__crt_stdio_output@@@__crt_stdio_output@@IEAA_NXZ 000000018016861c f i libucrt:output.obj
 0001:00167620       ?should_format@?$standard_base@DV?$string_output_adapter@D@__crt_stdio_output@@@__crt_stdio_output@@IEAA_NXZ 0000000180168620 f i libucrt:output.obj
 0001:00167624       ?should_format@?$standard_base@_WV?$stream_output_adapter@_W@__crt_stdio_output@@@__crt_stdio_output@@IEAA_NXZ 0000000180168624 f i libucrt:output.obj
 0001:00167628       ?should_format@?$standard_base@_WV?$string_output_adapter@_W@__crt_stdio_output@@@__crt_stdio_output@@IEAA_NXZ 0000000180168628 f i libucrt:output.obj
 0001:0016762c       ?should_skip_normal_state_processing@?$positional_parameter_base@DV?$stream_output_adapter@D@__crt_stdio_output@@@__crt_stdio_output@@IEAA_NXZ 000000018016862c f i libucrt:output.obj
 0001:00167654       ?should_skip_normal_state_processing@?$positional_parameter_base@DV?$string_output_adapter@D@__crt_stdio_output@@@__crt_stdio_output@@IEAA_NXZ 0000000180168654 f i libucrt:output.obj
 0001:0016767c       ?should_skip_normal_state_processing@?$positional_parameter_base@_WV?$stream_output_adapter@_W@__crt_stdio_output@@@__crt_stdio_output@@IEAA_NXZ 000000018016867c f i libucrt:output.obj
 0001:001676a4       ?should_skip_normal_state_processing@?$positional_parameter_base@_WV?$string_output_adapter@_W@__crt_stdio_output@@@__crt_stdio_output@@IEAA_NXZ 00000001801686a4 f i libucrt:output.obj
 0001:001676cc       ?should_skip_normal_state_processing@?$standard_base@DV?$stream_output_adapter@D@__crt_stdio_output@@@__crt_stdio_output@@IEAA_NXZ 00000001801686cc f i libucrt:output.obj
 0001:001676d0       ?should_skip_normal_state_processing@?$standard_base@DV?$string_output_adapter@D@__crt_stdio_output@@@__crt_stdio_output@@IEAA_NXZ 00000001801686d0 f i libucrt:output.obj
 0001:001676d4       ?should_skip_normal_state_processing@?$standard_base@_WV?$stream_output_adapter@_W@__crt_stdio_output@@@__crt_stdio_output@@IEAA_NXZ 00000001801686d4 f i libucrt:output.obj
 0001:001676d8       ?should_skip_normal_state_processing@?$standard_base@_WV?$string_output_adapter@_W@__crt_stdio_output@@@__crt_stdio_output@@IEAA_NXZ 00000001801686d8 f i libucrt:output.obj
 0001:001676dc       ?should_skip_type_state_output@?$positional_parameter_base@DV?$stream_output_adapter@D@__crt_stdio_output@@@__crt_stdio_output@@IEBA_NXZ 00000001801686dc f i libucrt:output.obj
 0001:001676f8       ?should_skip_type_state_output@?$positional_parameter_base@DV?$string_output_adapter@D@__crt_stdio_output@@@__crt_stdio_output@@IEBA_NXZ 00000001801686f8 f i libucrt:output.obj
 0001:00167714       ?should_skip_type_state_output@?$positional_parameter_base@_WV?$stream_output_adapter@_W@__crt_stdio_output@@@__crt_stdio_output@@IEBA_NXZ 0000000180168714 f i libucrt:output.obj
 0001:00167730       ?should_skip_type_state_output@?$positional_parameter_base@_WV?$string_output_adapter@_W@__crt_stdio_output@@@__crt_stdio_output@@IEBA_NXZ 0000000180168730 f i libucrt:output.obj
 0001:0016774c       ?should_skip_type_state_output@?$standard_base@DV?$stream_output_adapter@D@__crt_stdio_output@@@__crt_stdio_output@@IEBA_NXZ 000000018016874c f i libucrt:output.obj
 0001:00167750       ?should_skip_type_state_output@?$standard_base@DV?$string_output_adapter@D@__crt_stdio_output@@@__crt_stdio_output@@IEBA_NXZ 0000000180168750 f i libucrt:output.obj
 0001:00167754       ?should_skip_type_state_output@?$standard_base@_WV?$stream_output_adapter@_W@__crt_stdio_output@@@__crt_stdio_output@@IEBA_NXZ 0000000180168754 f i libucrt:output.obj
 0001:00167758       ?should_skip_type_state_output@?$standard_base@_WV?$string_output_adapter@_W@__crt_stdio_output@@@__crt_stdio_output@@IEBA_NXZ 0000000180168758 f i libucrt:output.obj
 0001:0016775c       ?state_case_dot@?$output_processor@DV?$stream_output_adapter@D@__crt_stdio_output@@V?$format_validation_base@DV?$stream_output_adapter@D@__crt_stdio_output@@@2@@__crt_stdio_output@@AEAA_NXZ 000000018016875c f i libucrt:output.obj
 0001:00167764       ?state_case_dot@?$output_processor@DV?$stream_output_adapter@D@__crt_stdio_output@@V?$positional_parameter_base@DV?$stream_output_adapter@D@__crt_stdio_output@@@2@@__crt_stdio_output@@AEAA_NXZ 0000000180168764 f i libucrt:output.obj
 0001:0016776c       ?state_case_dot@?$output_processor@DV?$stream_output_adapter@D@__crt_stdio_output@@V?$standard_base@DV?$stream_output_adapter@D@__crt_stdio_output@@@2@@__crt_stdio_output@@AEAA_NXZ 000000018016876c f i libucrt:output.obj
 0001:00167774       ?state_case_dot@?$output_processor@DV?$string_output_adapter@D@__crt_stdio_output@@V?$format_validation_base@DV?$string_output_adapter@D@__crt_stdio_output@@@2@@__crt_stdio_output@@AEAA_NXZ 0000000180168774 f i libucrt:output.obj
 0001:0016777c       ?state_case_dot@?$output_processor@DV?$string_output_adapter@D@__crt_stdio_output@@V?$positional_parameter_base@DV?$string_output_adapter@D@__crt_stdio_output@@@2@@__crt_stdio_output@@AEAA_NXZ 000000018016877c f i libucrt:output.obj
 0001:00167784       ?state_case_dot@?$output_processor@DV?$string_output_adapter@D@__crt_stdio_output@@V?$standard_base@DV?$string_output_adapter@D@__crt_stdio_output@@@2@@__crt_stdio_output@@AEAA_NXZ 0000000180168784 f i libucrt:output.obj
 0001:0016778c       ?state_case_dot@?$output_processor@_WV?$stream_output_adapter@_W@__crt_stdio_output@@V?$format_validation_base@_WV?$stream_output_adapter@_W@__crt_stdio_output@@@2@@__crt_stdio_output@@AEAA_NXZ 000000018016878c f i libucrt:output.obj
 0001:00167794       ?state_case_dot@?$output_processor@_WV?$stream_output_adapter@_W@__crt_stdio_output@@V?$positional_parameter_base@_WV?$stream_output_adapter@_W@__crt_stdio_output@@@2@@__crt_stdio_output@@AEAA_NXZ 0000000180168794 f i libucrt:output.obj
 0001:0016779c       ?state_case_dot@?$output_processor@_WV?$stream_output_adapter@_W@__crt_stdio_output@@V?$standard_base@_WV?$stream_output_adapter@_W@__crt_stdio_output@@@2@@__crt_stdio_output@@AEAA_NXZ 000000018016879c f i libucrt:output.obj
 0001:001677a4       ?state_case_dot@?$output_processor@_WV?$string_output_adapter@_W@__crt_stdio_output@@V?$format_validation_base@_WV?$string_output_adapter@_W@__crt_stdio_output@@@2@@__crt_stdio_output@@AEAA_NXZ 00000001801687a4 f i libucrt:output.obj
 0001:001677ac       ?state_case_dot@?$output_processor@_WV?$string_output_adapter@_W@__crt_stdio_output@@V?$positional_parameter_base@_WV?$string_output_adapter@_W@__crt_stdio_output@@@2@@__crt_stdio_output@@AEAA_NXZ 00000001801687ac f i libucrt:output.obj
 0001:001677b4       ?state_case_dot@?$output_processor@_WV?$string_output_adapter@_W@__crt_stdio_output@@V?$standard_base@_WV?$string_output_adapter@_W@__crt_stdio_output@@@2@@__crt_stdio_output@@AEAA_NXZ 00000001801687b4 f i libucrt:output.obj
 0001:001677bc       ?state_case_flag@?$output_processor@DV?$stream_output_adapter@D@__crt_stdio_output@@V?$format_validation_base@DV?$stream_output_adapter@D@__crt_stdio_output@@@2@@__crt_stdio_output@@AEAA_NXZ 00000001801687bc f i libucrt:output.obj
 0001:001677f4       ?state_case_flag@?$output_processor@DV?$stream_output_adapter@D@__crt_stdio_output@@V?$positional_parameter_base@DV?$stream_output_adapter@D@__crt_stdio_output@@@2@@__crt_stdio_output@@AEAA_NXZ 00000001801687f4 f i libucrt:output.obj
 0001:0016782c       ?state_case_flag@?$output_processor@DV?$stream_output_adapter@D@__crt_stdio_output@@V?$standard_base@DV?$stream_output_adapter@D@__crt_stdio_output@@@2@@__crt_stdio_output@@AEAA_NXZ 000000018016882c f i libucrt:output.obj
 0001:00167864       ?state_case_flag@?$output_processor@DV?$string_output_adapter@D@__crt_stdio_output@@V?$format_validation_base@DV?$string_output_adapter@D@__crt_stdio_output@@@2@@__crt_stdio_output@@AEAA_NXZ 0000000180168864 f i libucrt:output.obj
 0001:0016789c       ?state_case_flag@?$output_processor@DV?$string_output_adapter@D@__crt_stdio_output@@V?$positional_parameter_base@DV?$string_output_adapter@D@__crt_stdio_output@@@2@@__crt_stdio_output@@AEAA_NXZ 000000018016889c f i libucrt:output.obj
 0001:001678d4       ?state_case_flag@?$output_processor@DV?$string_output_adapter@D@__crt_stdio_output@@V?$standard_base@DV?$string_output_adapter@D@__crt_stdio_output@@@2@@__crt_stdio_output@@AEAA_NXZ 00000001801688d4 f i libucrt:output.obj
 0001:0016790c       ?state_case_flag@?$output_processor@_WV?$stream_output_adapter@_W@__crt_stdio_output@@V?$format_validation_base@_WV?$stream_output_adapter@_W@__crt_stdio_output@@@2@@__crt_stdio_output@@AEAA_NXZ 000000018016890c f i libucrt:output.obj
 0001:00167950       ?state_case_flag@?$output_processor@_WV?$stream_output_adapter@_W@__crt_stdio_output@@V?$positional_parameter_base@_WV?$stream_output_adapter@_W@__crt_stdio_output@@@2@@__crt_stdio_output@@AEAA_NXZ 0000000180168950 f i libucrt:output.obj
 0001:00167994       ?state_case_flag@?$output_processor@_WV?$stream_output_adapter@_W@__crt_stdio_output@@V?$standard_base@_WV?$stream_output_adapter@_W@__crt_stdio_output@@@2@@__crt_stdio_output@@AEAA_NXZ 0000000180168994 f i libucrt:output.obj
 0001:001679d8       ?state_case_flag@?$output_processor@_WV?$string_output_adapter@_W@__crt_stdio_output@@V?$format_validation_base@_WV?$string_output_adapter@_W@__crt_stdio_output@@@2@@__crt_stdio_output@@AEAA_NXZ 00000001801689d8 f i libucrt:output.obj
 0001:00167a1c       ?state_case_flag@?$output_processor@_WV?$string_output_adapter@_W@__crt_stdio_output@@V?$positional_parameter_base@_WV?$string_output_adapter@_W@__crt_stdio_output@@@2@@__crt_stdio_output@@AEAA_NXZ 0000000180168a1c f i libucrt:output.obj
 0001:00167a60       ?state_case_flag@?$output_processor@_WV?$string_output_adapter@_W@__crt_stdio_output@@V?$standard_base@_WV?$string_output_adapter@_W@__crt_stdio_output@@@2@@__crt_stdio_output@@AEAA_NXZ 0000000180168a60 f i libucrt:output.obj
 0001:00167aa4       ?state_case_normal@?$output_processor@DV?$stream_output_adapter@D@__crt_stdio_output@@V?$format_validation_base@DV?$stream_output_adapter@D@__crt_stdio_output@@@2@@__crt_stdio_output@@AEAA_NXZ 0000000180168aa4 f i libucrt:output.obj
 0001:00167b14       ?state_case_normal@?$output_processor@DV?$stream_output_adapter@D@__crt_stdio_output@@V?$positional_parameter_base@DV?$stream_output_adapter@D@__crt_stdio_output@@@2@@__crt_stdio_output@@AEAA_NXZ 0000000180168b14 f i libucrt:output.obj
 0001:00167ba8       ?state_case_normal@?$output_processor@DV?$stream_output_adapter@D@__crt_stdio_output@@V?$standard_base@DV?$stream_output_adapter@D@__crt_stdio_output@@@2@@__crt_stdio_output@@AEAA_NXZ 0000000180168ba8 f i libucrt:output.obj
 0001:00167c18       ?state_case_normal@?$output_processor@DV?$string_output_adapter@D@__crt_stdio_output@@V?$format_validation_base@DV?$string_output_adapter@D@__crt_stdio_output@@@2@@__crt_stdio_output@@AEAA_NXZ 0000000180168c18 f i libucrt:output.obj
 0001:00167c8c       ?state_case_normal@?$output_processor@DV?$string_output_adapter@D@__crt_stdio_output@@V?$positional_parameter_base@DV?$string_output_adapter@D@__crt_stdio_output@@@2@@__crt_stdio_output@@AEAA_NXZ 0000000180168c8c f i libucrt:output.obj
 0001:00167d24       ?state_case_normal@?$output_processor@DV?$string_output_adapter@D@__crt_stdio_output@@V?$standard_base@DV?$string_output_adapter@D@__crt_stdio_output@@@2@@__crt_stdio_output@@AEAA_NXZ 0000000180168d24 f i libucrt:output.obj
 0001:00167d98       ?state_case_normal@?$output_processor@_WV?$stream_output_adapter@_W@__crt_stdio_output@@V?$format_validation_base@_WV?$stream_output_adapter@_W@__crt_stdio_output@@@2@@__crt_stdio_output@@AEAA_NXZ 0000000180168d98 f i libucrt:output.obj
 0001:00167df0       ?state_case_normal@?$output_processor@_WV?$stream_output_adapter@_W@__crt_stdio_output@@V?$positional_parameter_base@_WV?$stream_output_adapter@_W@__crt_stdio_output@@@2@@__crt_stdio_output@@AEAA_NXZ 0000000180168df0 f i libucrt:output.obj
 0001:00167e6c       ?state_case_normal@?$output_processor@_WV?$stream_output_adapter@_W@__crt_stdio_output@@V?$standard_base@_WV?$stream_output_adapter@_W@__crt_stdio_output@@@2@@__crt_stdio_output@@AEAA_NXZ 0000000180168e6c f i libucrt:output.obj
 0001:00167ec4       ?state_case_normal@?$output_processor@_WV?$string_output_adapter@_W@__crt_stdio_output@@V?$format_validation_base@_WV?$string_output_adapter@_W@__crt_stdio_output@@@2@@__crt_stdio_output@@AEAA_NXZ 0000000180168ec4 f i libucrt:output.obj
 0001:00167f18       ?state_case_normal@?$output_processor@_WV?$string_output_adapter@_W@__crt_stdio_output@@V?$positional_parameter_base@_WV?$string_output_adapter@_W@__crt_stdio_output@@@2@@__crt_stdio_output@@AEAA_NXZ 0000000180168f18 f i libucrt:output.obj
 0001:00167f90       ?state_case_normal@?$output_processor@_WV?$string_output_adapter@_W@__crt_stdio_output@@V?$standard_base@_WV?$string_output_adapter@_W@__crt_stdio_output@@@2@@__crt_stdio_output@@AEAA_NXZ 0000000180168f90 f i libucrt:output.obj
 0001:00167fe4       ?state_case_normal_common@?$output_processor@DV?$stream_output_adapter@D@__crt_stdio_output@@V?$format_validation_base@DV?$stream_output_adapter@D@__crt_stdio_output@@@2@@__crt_stdio_output@@AEAA_NXZ 0000000180168fe4 f i libucrt:output.obj
 0001:00168040       ?state_case_normal_common@?$output_processor@DV?$stream_output_adapter@D@__crt_stdio_output@@V?$positional_parameter_base@DV?$stream_output_adapter@D@__crt_stdio_output@@@2@@__crt_stdio_output@@AEAA_NXZ 0000000180169040 f i libucrt:output.obj
 0001:0016809c       ?state_case_normal_common@?$output_processor@DV?$stream_output_adapter@D@__crt_stdio_output@@V?$standard_base@DV?$stream_output_adapter@D@__crt_stdio_output@@@2@@__crt_stdio_output@@AEAA_NXZ 000000018016909c f i libucrt:output.obj
 0001:001680f8       ?state_case_normal_common@?$output_processor@DV?$string_output_adapter@D@__crt_stdio_output@@V?$format_validation_base@DV?$string_output_adapter@D@__crt_stdio_output@@@2@@__crt_stdio_output@@AEAA_NXZ 00000001801690f8 f i libucrt:output.obj
 0001:00168158       ?state_case_normal_common@?$output_processor@DV?$string_output_adapter@D@__crt_stdio_output@@V?$positional_parameter_base@DV?$string_output_adapter@D@__crt_stdio_output@@@2@@__crt_stdio_output@@AEAA_NXZ 0000000180169158 f i libucrt:output.obj
 0001:001681b8       ?state_case_normal_common@?$output_processor@DV?$string_output_adapter@D@__crt_stdio_output@@V?$standard_base@DV?$string_output_adapter@D@__crt_stdio_output@@@2@@__crt_stdio_output@@AEAA_NXZ 00000001801691b8 f i libucrt:output.obj
 0001:00168218       ?state_case_normal_common@?$output_processor@_WV?$stream_output_adapter@_W@__crt_stdio_output@@V?$format_validation_base@_WV?$stream_output_adapter@_W@__crt_stdio_output@@@2@@__crt_stdio_output@@AEAA_NXZ 0000000180169218 f i libucrt:output.obj
 0001:00168270       ?state_case_normal_common@?$output_processor@_WV?$stream_output_adapter@_W@__crt_stdio_output@@V?$positional_parameter_base@_WV?$stream_output_adapter@_W@__crt_stdio_output@@@2@@__crt_stdio_output@@AEAA_NXZ 0000000180169270 f i libucrt:output.obj
 0001:001682c8       ?state_case_normal_common@?$output_processor@_WV?$stream_output_adapter@_W@__crt_stdio_output@@V?$standard_base@_WV?$stream_output_adapter@_W@__crt_stdio_output@@@2@@__crt_stdio_output@@AEAA_NXZ 00000001801692c8 f i libucrt:output.obj
 0001:00168320       ?state_case_normal_common@?$output_processor@_WV?$string_output_adapter@_W@__crt_stdio_output@@V?$format_validation_base@_WV?$string_output_adapter@_W@__crt_stdio_output@@@2@@__crt_stdio_output@@AEAA_NXZ 0000000180169320 f i libucrt:output.obj
 0001:00168374       ?state_case_normal_common@?$output_processor@_WV?$string_output_adapter@_W@__crt_stdio_output@@V?$positional_parameter_base@_WV?$string_output_adapter@_W@__crt_stdio_output@@@2@@__crt_stdio_output@@AEAA_NXZ 0000000180169374 f i libucrt:output.obj
 0001:001683c8       ?state_case_normal_common@?$output_processor@_WV?$string_output_adapter@_W@__crt_stdio_output@@V?$standard_base@_WV?$string_output_adapter@_W@__crt_stdio_output@@@2@@__crt_stdio_output@@AEAA_NXZ 00000001801693c8 f i libucrt:output.obj
 0001:0016841c       ?state_case_normal_tchar@?$output_processor@DV?$stream_output_adapter@D@__crt_stdio_output@@V?$format_validation_base@DV?$stream_output_adapter@D@__crt_stdio_output@@@2@@__crt_stdio_output@@AEAA_ND@Z 000000018016941c f i libucrt:output.obj
 0001:001684c0       ?state_case_normal_tchar@?$output_processor@DV?$stream_output_adapter@D@__crt_stdio_output@@V?$positional_parameter_base@DV?$stream_output_adapter@D@__crt_stdio_output@@@2@@__crt_stdio_output@@AEAA_ND@Z 00000001801694c0 f i libucrt:output.obj
 0001:00168564       ?state_case_normal_tchar@?$output_processor@DV?$stream_output_adapter@D@__crt_stdio_output@@V?$standard_base@DV?$stream_output_adapter@D@__crt_stdio_output@@@2@@__crt_stdio_output@@AEAA_ND@Z 0000000180169564 f i libucrt:output.obj
 0001:00168608       ?state_case_normal_tchar@?$output_processor@DV?$string_output_adapter@D@__crt_stdio_output@@V?$format_validation_base@DV?$string_output_adapter@D@__crt_stdio_output@@@2@@__crt_stdio_output@@AEAA_ND@Z 0000000180169608 f i libucrt:output.obj
 0001:001686b0       ?state_case_normal_tchar@?$output_processor@DV?$string_output_adapter@D@__crt_stdio_output@@V?$positional_parameter_base@DV?$string_output_adapter@D@__crt_stdio_output@@@2@@__crt_stdio_output@@AEAA_ND@Z 00000001801696b0 f i libucrt:output.obj
 0001:00168758       ?state_case_normal_tchar@?$output_processor@DV?$string_output_adapter@D@__crt_stdio_output@@V?$standard_base@DV?$string_output_adapter@D@__crt_stdio_output@@@2@@__crt_stdio_output@@AEAA_ND@Z 0000000180169758 f i libucrt:output.obj
 0001:00168800       ?state_case_normal_tchar@?$output_processor@_WV?$stream_output_adapter@_W@__crt_stdio_output@@V?$format_validation_base@_WV?$stream_output_adapter@_W@__crt_stdio_output@@@2@@__crt_stdio_output@@AEAA_N_W@Z 0000000180169800 f i libucrt:output.obj
 0001:00168808       ?state_case_normal_tchar@?$output_processor@_WV?$stream_output_adapter@_W@__crt_stdio_output@@V?$positional_parameter_base@_WV?$stream_output_adapter@_W@__crt_stdio_output@@@2@@__crt_stdio_output@@AEAA_N_W@Z 0000000180169808 f i libucrt:output.obj
 0001:00168810       ?state_case_normal_tchar@?$output_processor@_WV?$stream_output_adapter@_W@__crt_stdio_output@@V?$standard_base@_WV?$stream_output_adapter@_W@__crt_stdio_output@@@2@@__crt_stdio_output@@AEAA_N_W@Z 0000000180169810 f i libucrt:output.obj
 0001:00168818       ?state_case_normal_tchar@?$output_processor@_WV?$string_output_adapter@_W@__crt_stdio_output@@V?$format_validation_base@_WV?$string_output_adapter@_W@__crt_stdio_output@@@2@@__crt_stdio_output@@AEAA_N_W@Z 0000000180169818 f i libucrt:output.obj
 0001:00168820       ?state_case_normal_tchar@?$output_processor@_WV?$string_output_adapter@_W@__crt_stdio_output@@V?$positional_parameter_base@_WV?$string_output_adapter@_W@__crt_stdio_output@@@2@@__crt_stdio_output@@AEAA_N_W@Z 0000000180169820 f i libucrt:output.obj
 0001:00168828       ?state_case_normal_tchar@?$output_processor@_WV?$string_output_adapter@_W@__crt_stdio_output@@V?$standard_base@_WV?$string_output_adapter@_W@__crt_stdio_output@@@2@@__crt_stdio_output@@AEAA_N_W@Z 0000000180169828 f i libucrt:output.obj
 0001:00168830       ?state_case_percent@?$output_processor@DV?$stream_output_adapter@D@__crt_stdio_output@@V?$format_validation_base@DV?$stream_output_adapter@D@__crt_stdio_output@@@2@@__crt_stdio_output@@AEAA_NXZ 0000000180169830 f i libucrt:output.obj
 0001:00168848       ?state_case_percent@?$output_processor@DV?$stream_output_adapter@D@__crt_stdio_output@@V?$positional_parameter_base@DV?$stream_output_adapter@D@__crt_stdio_output@@@2@@__crt_stdio_output@@AEAA_NXZ 0000000180169848 f i libucrt:output.obj
 0001:00168860       ?state_case_percent@?$output_processor@DV?$stream_output_adapter@D@__crt_stdio_output@@V?$standard_base@DV?$stream_output_adapter@D@__crt_stdio_output@@@2@@__crt_stdio_output@@AEAA_NXZ 0000000180169860 f i libucrt:output.obj
 0001:00168878       ?state_case_percent@?$output_processor@DV?$string_output_adapter@D@__crt_stdio_output@@V?$format_validation_base@DV?$string_output_adapter@D@__crt_stdio_output@@@2@@__crt_stdio_output@@AEAA_NXZ 0000000180169878 f i libucrt:output.obj
 0001:00168890       ?state_case_percent@?$output_processor@DV?$string_output_adapter@D@__crt_stdio_output@@V?$positional_parameter_base@DV?$string_output_adapter@D@__crt_stdio_output@@@2@@__crt_stdio_output@@AEAA_NXZ 0000000180169890 f i libucrt:output.obj
 0001:001688a8       ?state_case_percent@?$output_processor@DV?$string_output_adapter@D@__crt_stdio_output@@V?$standard_base@DV?$string_output_adapter@D@__crt_stdio_output@@@2@@__crt_stdio_output@@AEAA_NXZ 00000001801698a8 f i libucrt:output.obj
 0001:001688c0       ?state_case_percent@?$output_processor@_WV?$stream_output_adapter@_W@__crt_stdio_output@@V?$format_validation_base@_WV?$stream_output_adapter@_W@__crt_stdio_output@@@2@@__crt_stdio_output@@AEAA_NXZ 00000001801698c0 f i libucrt:output.obj
 0001:001688d8       ?state_case_percent@?$output_processor@_WV?$stream_output_adapter@_W@__crt_stdio_output@@V?$positional_parameter_base@_WV?$stream_output_adapter@_W@__crt_stdio_output@@@2@@__crt_stdio_output@@AEAA_NXZ 00000001801698d8 f i libucrt:output.obj
 0001:001688f0       ?state_case_percent@?$output_processor@_WV?$stream_output_adapter@_W@__crt_stdio_output@@V?$standard_base@_WV?$stream_output_adapter@_W@__crt_stdio_output@@@2@@__crt_stdio_output@@AEAA_NXZ 00000001801698f0 f i libucrt:output.obj
 0001:00168908       ?state_case_percent@?$output_processor@_WV?$string_output_adapter@_W@__crt_stdio_output@@V?$format_validation_base@_WV?$string_output_adapter@_W@__crt_stdio_output@@@2@@__crt_stdio_output@@AEAA_NXZ 0000000180169908 f i libucrt:output.obj
 0001:00168920       ?state_case_percent@?$output_processor@_WV?$string_output_adapter@_W@__crt_stdio_output@@V?$positional_parameter_base@_WV?$string_output_adapter@_W@__crt_stdio_output@@@2@@__crt_stdio_output@@AEAA_NXZ 0000000180169920 f i libucrt:output.obj
 0001:00168938       ?state_case_percent@?$output_processor@_WV?$string_output_adapter@_W@__crt_stdio_output@@V?$standard_base@_WV?$string_output_adapter@_W@__crt_stdio_output@@@2@@__crt_stdio_output@@AEAA_NXZ 0000000180169938 f i libucrt:output.obj
 0001:00168950       ?state_case_precision@?$output_processor@DV?$stream_output_adapter@D@__crt_stdio_output@@V?$format_validation_base@DV?$stream_output_adapter@D@__crt_stdio_output@@@2@@__crt_stdio_output@@AEAA_NXZ 0000000180169950 f i libucrt:output.obj
 0001:00168978       ?state_case_precision@?$output_processor@DV?$stream_output_adapter@D@__crt_stdio_output@@V?$positional_parameter_base@DV?$stream_output_adapter@D@__crt_stdio_output@@@2@@__crt_stdio_output@@AEAA_NXZ 0000000180169978 f i libucrt:output.obj
 0001:001689c4       ?state_case_precision@?$output_processor@DV?$stream_output_adapter@D@__crt_stdio_output@@V?$standard_base@DV?$stream_output_adapter@D@__crt_stdio_output@@@2@@__crt_stdio_output@@AEAA_NXZ 00000001801699c4 f i libucrt:output.obj
 0001:001689ec       ?state_case_precision@?$output_processor@DV?$string_output_adapter@D@__crt_stdio_output@@V?$format_validation_base@DV?$string_output_adapter@D@__crt_stdio_output@@@2@@__crt_stdio_output@@AEAA_NXZ 00000001801699ec f i libucrt:output.obj
 0001:00168a14       ?state_case_precision@?$output_processor@DV?$string_output_adapter@D@__crt_stdio_output@@V?$positional_parameter_base@DV?$string_output_adapter@D@__crt_stdio_output@@@2@@__crt_stdio_output@@AEAA_NXZ 0000000180169a14 f i libucrt:output.obj
 0001:00168a60       ?state_case_precision@?$output_processor@DV?$string_output_adapter@D@__crt_stdio_output@@V?$standard_base@DV?$string_output_adapter@D@__crt_stdio_output@@@2@@__crt_stdio_output@@AEAA_NXZ 0000000180169a60 f i libucrt:output.obj
 0001:00168a88       ?state_case_precision@?$output_processor@_WV?$stream_output_adapter@_W@__crt_stdio_output@@V?$format_validation_base@_WV?$stream_output_adapter@_W@__crt_stdio_output@@@2@@__crt_stdio_output@@AEAA_NXZ 0000000180169a88 f i libucrt:output.obj
 0001:00168ab0       ?state_case_precision@?$output_processor@_WV?$stream_output_adapter@_W@__crt_stdio_output@@V?$positional_parameter_base@_WV?$stream_output_adapter@_W@__crt_stdio_output@@@2@@__crt_stdio_output@@AEAA_NXZ 0000000180169ab0 f i libucrt:output.obj
 0001:00168afc       ?state_case_precision@?$output_processor@_WV?$stream_output_adapter@_W@__crt_stdio_output@@V?$standard_base@_WV?$stream_output_adapter@_W@__crt_stdio_output@@@2@@__crt_stdio_output@@AEAA_NXZ 0000000180169afc f i libucrt:output.obj
 0001:00168b24       ?state_case_precision@?$output_processor@_WV?$string_output_adapter@_W@__crt_stdio_output@@V?$format_validation_base@_WV?$string_output_adapter@_W@__crt_stdio_output@@@2@@__crt_stdio_output@@AEAA_NXZ 0000000180169b24 f i libucrt:output.obj
 0001:00168b4c       ?state_case_precision@?$output_processor@_WV?$string_output_adapter@_W@__crt_stdio_output@@V?$positional_parameter_base@_WV?$string_output_adapter@_W@__crt_stdio_output@@@2@@__crt_stdio_output@@AEAA_NXZ 0000000180169b4c f i libucrt:output.obj
 0001:00168b98       ?state_case_precision@?$output_processor@_WV?$string_output_adapter@_W@__crt_stdio_output@@V?$standard_base@_WV?$string_output_adapter@_W@__crt_stdio_output@@@2@@__crt_stdio_output@@AEAA_NXZ 0000000180169b98 f i libucrt:output.obj
 0001:00168bc0       ?state_case_size@?$output_processor@DV?$stream_output_adapter@D@__crt_stdio_output@@V?$format_validation_base@DV?$stream_output_adapter@D@__crt_stdio_output@@@2@@__crt_stdio_output@@AEAA_NXZ 0000000180169bc0 f i libucrt:output.obj
 0001:00168d30       ?state_case_size@?$output_processor@DV?$stream_output_adapter@D@__crt_stdio_output@@V?$positional_parameter_base@DV?$stream_output_adapter@D@__crt_stdio_output@@@2@@__crt_stdio_output@@AEAA_NXZ 0000000180169d30 f i libucrt:output.obj
 0001:00168ea0       ?state_case_size@?$output_processor@DV?$stream_output_adapter@D@__crt_stdio_output@@V?$standard_base@DV?$stream_output_adapter@D@__crt_stdio_output@@@2@@__crt_stdio_output@@AEAA_NXZ 0000000180169ea0 f i libucrt:output.obj
 0001:00169010       ?state_case_size@?$output_processor@DV?$string_output_adapter@D@__crt_stdio_output@@V?$format_validation_base@DV?$string_output_adapter@D@__crt_stdio_output@@@2@@__crt_stdio_output@@AEAA_NXZ 000000018016a010 f i libucrt:output.obj
 0001:00169180       ?state_case_size@?$output_processor@DV?$string_output_adapter@D@__crt_stdio_output@@V?$positional_parameter_base@DV?$string_output_adapter@D@__crt_stdio_output@@@2@@__crt_stdio_output@@AEAA_NXZ 000000018016a180 f i libucrt:output.obj
 0001:001692f0       ?state_case_size@?$output_processor@DV?$string_output_adapter@D@__crt_stdio_output@@V?$standard_base@DV?$string_output_adapter@D@__crt_stdio_output@@@2@@__crt_stdio_output@@AEAA_NXZ 000000018016a2f0 f i libucrt:output.obj
 0001:00169460       ?state_case_size@?$output_processor@_WV?$stream_output_adapter@_W@__crt_stdio_output@@V?$format_validation_base@_WV?$stream_output_adapter@_W@__crt_stdio_output@@@2@@__crt_stdio_output@@AEAA_NXZ 000000018016a460 f i libucrt:output.obj
 0001:001695f4       ?state_case_size@?$output_processor@_WV?$stream_output_adapter@_W@__crt_stdio_output@@V?$positional_parameter_base@_WV?$stream_output_adapter@_W@__crt_stdio_output@@@2@@__crt_stdio_output@@AEAA_NXZ 000000018016a5f4 f i libucrt:output.obj
 0001:00169788       ?state_case_size@?$output_processor@_WV?$stream_output_adapter@_W@__crt_stdio_output@@V?$standard_base@_WV?$stream_output_adapter@_W@__crt_stdio_output@@@2@@__crt_stdio_output@@AEAA_NXZ 000000018016a788 f i libucrt:output.obj
 0001:0016991c       ?state_case_size@?$output_processor@_WV?$string_output_adapter@_W@__crt_stdio_output@@V?$format_validation_base@_WV?$string_output_adapter@_W@__crt_stdio_output@@@2@@__crt_stdio_output@@AEAA_NXZ 000000018016a91c f i libucrt:output.obj
 0001:00169ab0       ?state_case_size@?$output_processor@_WV?$string_output_adapter@_W@__crt_stdio_output@@V?$positional_parameter_base@_WV?$string_output_adapter@_W@__crt_stdio_output@@@2@@__crt_stdio_output@@AEAA_NXZ 000000018016aab0 f i libucrt:output.obj
 0001:00169c44       ?state_case_size@?$output_processor@_WV?$string_output_adapter@_W@__crt_stdio_output@@V?$standard_base@_WV?$string_output_adapter@_W@__crt_stdio_output@@@2@@__crt_stdio_output@@AEAA_NXZ 000000018016ac44 f i libucrt:output.obj
 0001:00169dd8       ?state_case_type@?$output_processor@DV?$stream_output_adapter@D@__crt_stdio_output@@V?$format_validation_base@DV?$stream_output_adapter@D@__crt_stdio_output@@@2@@__crt_stdio_output@@AEAA_NXZ 000000018016add8 f i libucrt:output.obj
 0001:0016a05c       ?state_case_type@?$output_processor@DV?$stream_output_adapter@D@__crt_stdio_output@@V?$positional_parameter_base@DV?$stream_output_adapter@D@__crt_stdio_output@@@2@@__crt_stdio_output@@AEAA_NXZ 000000018016b05c f i libucrt:output.obj
 0001:0016a2f8       ?state_case_type@?$output_processor@DV?$stream_output_adapter@D@__crt_stdio_output@@V?$standard_base@DV?$stream_output_adapter@D@__crt_stdio_output@@@2@@__crt_stdio_output@@AEAA_NXZ 000000018016b2f8 f i libucrt:output.obj
 0001:0016a57c       ?state_case_type@?$output_processor@DV?$string_output_adapter@D@__crt_stdio_output@@V?$format_validation_base@DV?$string_output_adapter@D@__crt_stdio_output@@@2@@__crt_stdio_output@@AEAA_NXZ 000000018016b57c f i libucrt:output.obj
 0001:0016a7e4       ?state_case_type@?$output_processor@DV?$string_output_adapter@D@__crt_stdio_output@@V?$positional_parameter_base@DV?$string_output_adapter@D@__crt_stdio_output@@@2@@__crt_stdio_output@@AEAA_NXZ 000000018016b7e4 f i libucrt:output.obj
 0001:0016aa60       ?state_case_type@?$output_processor@DV?$string_output_adapter@D@__crt_stdio_output@@V?$standard_base@DV?$string_output_adapter@D@__crt_stdio_output@@@2@@__crt_stdio_output@@AEAA_NXZ 000000018016ba60 f i libucrt:output.obj
 0001:0016acc8       ?state_case_type@?$output_processor@_WV?$stream_output_adapter@_W@__crt_stdio_output@@V?$format_validation_base@_WV?$stream_output_adapter@_W@__crt_stdio_output@@@2@@__crt_stdio_output@@AEAA_NXZ 000000018016bcc8 f i libucrt:output.obj
 0001:0016afa8       ?state_case_type@?$output_processor@_WV?$stream_output_adapter@_W@__crt_stdio_output@@V?$positional_parameter_base@_WV?$stream_output_adapter@_W@__crt_stdio_output@@@2@@__crt_stdio_output@@AEAA_NXZ 000000018016bfa8 f i libucrt:output.obj
 0001:0016b29c       ?state_case_type@?$output_processor@_WV?$stream_output_adapter@_W@__crt_stdio_output@@V?$standard_base@_WV?$stream_output_adapter@_W@__crt_stdio_output@@@2@@__crt_stdio_output@@AEAA_NXZ 000000018016c29c f i libucrt:output.obj
 0001:0016b57c       ?state_case_type@?$output_processor@_WV?$string_output_adapter@_W@__crt_stdio_output@@V?$format_validation_base@_WV?$string_output_adapter@_W@__crt_stdio_output@@@2@@__crt_stdio_output@@AEAA_NXZ 000000018016c57c f i libucrt:output.obj
 0001:0016b848       ?state_case_type@?$output_processor@_WV?$string_output_adapter@_W@__crt_stdio_output@@V?$positional_parameter_base@_WV?$string_output_adapter@_W@__crt_stdio_output@@@2@@__crt_stdio_output@@AEAA_NXZ 000000018016c848 f i libucrt:output.obj
 0001:0016bb28       ?state_case_type@?$output_processor@_WV?$string_output_adapter@_W@__crt_stdio_output@@V?$standard_base@_WV?$string_output_adapter@_W@__crt_stdio_output@@@2@@__crt_stdio_output@@AEAA_NXZ 000000018016cb28 f i libucrt:output.obj
 0001:0016bdf4       ?state_case_width@?$output_processor@DV?$stream_output_adapter@D@__crt_stdio_output@@V?$format_validation_base@DV?$stream_output_adapter@D@__crt_stdio_output@@@2@@__crt_stdio_output@@AEAA_NXZ 000000018016cdf4 f i libucrt:output.obj
 0001:0016be28       ?state_case_width@?$output_processor@DV?$stream_output_adapter@D@__crt_stdio_output@@V?$positional_parameter_base@DV?$stream_output_adapter@D@__crt_stdio_output@@@2@@__crt_stdio_output@@AEAA_NXZ 000000018016ce28 f i libucrt:output.obj
 0001:0016be78       ?state_case_width@?$output_processor@DV?$stream_output_adapter@D@__crt_stdio_output@@V?$standard_base@DV?$stream_output_adapter@D@__crt_stdio_output@@@2@@__crt_stdio_output@@AEAA_NXZ 000000018016ce78 f i libucrt:output.obj
 0001:0016beac       ?state_case_width@?$output_processor@DV?$string_output_adapter@D@__crt_stdio_output@@V?$format_validation_base@DV?$string_output_adapter@D@__crt_stdio_output@@@2@@__crt_stdio_output@@AEAA_NXZ 000000018016ceac f i libucrt:output.obj
 0001:0016bee0       ?state_case_width@?$output_processor@DV?$string_output_adapter@D@__crt_stdio_output@@V?$positional_parameter_base@DV?$string_output_adapter@D@__crt_stdio_output@@@2@@__crt_stdio_output@@AEAA_NXZ 000000018016cee0 f i libucrt:output.obj
 0001:0016bf30       ?state_case_width@?$output_processor@DV?$string_output_adapter@D@__crt_stdio_output@@V?$standard_base@DV?$string_output_adapter@D@__crt_stdio_output@@@2@@__crt_stdio_output@@AEAA_NXZ 000000018016cf30 f i libucrt:output.obj
 0001:0016bf64       ?state_case_width@?$output_processor@_WV?$stream_output_adapter@_W@__crt_stdio_output@@V?$format_validation_base@_WV?$stream_output_adapter@_W@__crt_stdio_output@@@2@@__crt_stdio_output@@AEAA_NXZ 000000018016cf64 f i libucrt:output.obj
 0001:0016bf98       ?state_case_width@?$output_processor@_WV?$stream_output_adapter@_W@__crt_stdio_output@@V?$positional_parameter_base@_WV?$stream_output_adapter@_W@__crt_stdio_output@@@2@@__crt_stdio_output@@AEAA_NXZ 000000018016cf98 f i libucrt:output.obj
 0001:0016bfec       ?state_case_width@?$output_processor@_WV?$stream_output_adapter@_W@__crt_stdio_output@@V?$standard_base@_WV?$stream_output_adapter@_W@__crt_stdio_output@@@2@@__crt_stdio_output@@AEAA_NXZ 000000018016cfec f i libucrt:output.obj
 0001:0016c020       ?state_case_width@?$output_processor@_WV?$string_output_adapter@_W@__crt_stdio_output@@V?$format_validation_base@_WV?$string_output_adapter@_W@__crt_stdio_output@@@2@@__crt_stdio_output@@AEAA_NXZ 000000018016d020 f i libucrt:output.obj
 0001:0016c054       ?state_case_width@?$output_processor@_WV?$string_output_adapter@_W@__crt_stdio_output@@V?$positional_parameter_base@_WV?$string_output_adapter@_W@__crt_stdio_output@@@2@@__crt_stdio_output@@AEAA_NXZ 000000018016d054 f i libucrt:output.obj
 0001:0016c0a8       ?state_case_width@?$output_processor@_WV?$string_output_adapter@_W@__crt_stdio_output@@V?$standard_base@_WV?$string_output_adapter@_W@__crt_stdio_output@@@2@@__crt_stdio_output@@AEAA_NXZ 000000018016d0a8 f i libucrt:output.obj
 0001:0016c0dc       ?state_count@?$format_validation_base@DV?$stream_output_adapter@D@__crt_stdio_output@@@__crt_stdio_output@@KAIXZ 000000018016d0dc f i libucrt:output.obj
 0001:0016c0e4       ?state_count@?$format_validation_base@DV?$string_output_adapter@D@__crt_stdio_output@@@__crt_stdio_output@@KAIXZ 000000018016d0e4 f i libucrt:output.obj
 0001:0016c0ec       ?state_count@?$format_validation_base@_WV?$stream_output_adapter@_W@__crt_stdio_output@@@__crt_stdio_output@@KAIXZ 000000018016d0ec f i libucrt:output.obj
 0001:0016c0f4       ?state_count@?$format_validation_base@_WV?$string_output_adapter@_W@__crt_stdio_output@@@__crt_stdio_output@@KAIXZ 000000018016d0f4 f i libucrt:output.obj
 0001:0016c0fc       ?state_count@?$standard_base@DV?$stream_output_adapter@D@__crt_stdio_output@@@__crt_stdio_output@@KAIXZ 000000018016d0fc f i libucrt:output.obj
 0001:0016c104       ?state_count@?$standard_base@DV?$string_output_adapter@D@__crt_stdio_output@@@__crt_stdio_output@@KAIXZ 000000018016d104 f i libucrt:output.obj
 0001:0016c10c       ?state_count@?$standard_base@_WV?$stream_output_adapter@_W@__crt_stdio_output@@@__crt_stdio_output@@KAIXZ 000000018016d10c f i libucrt:output.obj
 0001:0016c114       ?state_count@?$standard_base@_WV?$string_output_adapter@_W@__crt_stdio_output@@@__crt_stdio_output@@KAIXZ 000000018016d114 f i libucrt:output.obj
 0001:0016c11c       ?state_transition_table@?$format_validation_base@DV?$stream_output_adapter@D@__crt_stdio_output@@@__crt_stdio_output@@KAAEBV?$spectre_mitigated_lookup_table@Ustate_transition_pair@__crt_stdio_output@@$0IA@@2@XZ 000000018016d11c f i libucrt:output.obj
 0001:0016c124       ?state_transition_table@?$format_validation_base@DV?$string_output_adapter@D@__crt_stdio_output@@@__crt_stdio_output@@KAAEBV?$spectre_mitigated_lookup_table@Ustate_transition_pair@__crt_stdio_output@@$0IA@@2@XZ 000000018016d124 f i libucrt:output.obj
 0001:0016c12c       ?state_transition_table@?$format_validation_base@_WV?$stream_output_adapter@_W@__crt_stdio_output@@@__crt_stdio_output@@KAAEBV?$spectre_mitigated_lookup_table@Ustate_transition_pair@__crt_stdio_output@@$0IA@@2@XZ 000000018016d12c f i libucrt:output.obj
 0001:0016c134       ?state_transition_table@?$format_validation_base@_WV?$string_output_adapter@_W@__crt_stdio_output@@@__crt_stdio_output@@KAAEBV?$spectre_mitigated_lookup_table@Ustate_transition_pair@__crt_stdio_output@@$0IA@@2@XZ 000000018016d134 f i libucrt:output.obj
 0001:0016c13c       ?state_transition_table@?$standard_base@DV?$stream_output_adapter@D@__crt_stdio_output@@@__crt_stdio_output@@KAAEBV?$spectre_mitigated_lookup_table@Ustate_transition_pair@__crt_stdio_output@@$0IA@@2@XZ 000000018016d13c f i libucrt:output.obj
 0001:0016c144       ?state_transition_table@?$standard_base@DV?$string_output_adapter@D@__crt_stdio_output@@@__crt_stdio_output@@KAAEBV?$spectre_mitigated_lookup_table@Ustate_transition_pair@__crt_stdio_output@@$0IA@@2@XZ 000000018016d144 f i libucrt:output.obj
 0001:0016c14c       ?state_transition_table@?$standard_base@_WV?$stream_output_adapter@_W@__crt_stdio_output@@@__crt_stdio_output@@KAAEBV?$spectre_mitigated_lookup_table@Ustate_transition_pair@__crt_stdio_output@@$0IA@@2@XZ 000000018016d14c f i libucrt:output.obj
 0001:0016c154       ?state_transition_table@?$standard_base@_WV?$string_output_adapter@_W@__crt_stdio_output@@@__crt_stdio_output@@KAAEBV?$spectre_mitigated_lookup_table@Ustate_transition_pair@__crt_stdio_output@@$0IA@@2@XZ 000000018016d154 f i libucrt:output.obj
 0001:0016c15c       ?tchar_string@?$common_data@D@__crt_stdio_output@@IEAAAEAPEADD@Z 000000018016d15c f i libucrt:output.obj
 0001:0016c164       ?tchar_string@?$common_data@D@__crt_stdio_output@@IEAAAEAPEADXZ 000000018016d164 f i libucrt:output.obj
 0001:0016c16c       ?tchar_string@?$common_data@_W@__crt_stdio_output@@IEAAAEAPEA_WXZ 000000018016d16c f i libucrt:output.obj
 0001:0016c174       ?tchar_string@?$common_data@_W@__crt_stdio_output@@IEAAAEAPEA_W_W@Z 000000018016d174 f i libucrt:output.obj
 0001:0016c180       ?to_integer_size@__crt_stdio_output@@YA_KW4length_modifier@1@@Z 000000018016d180 f i libucrt:output.obj
 0001:0016c1e8       ?type_case_X@?$output_processor@DV?$stream_output_adapter@D@__crt_stdio_output@@V?$format_validation_base@DV?$stream_output_adapter@D@__crt_stdio_output@@@2@@__crt_stdio_output@@AEAA_NXZ 000000018016d1e8 f i libucrt:output.obj
 0001:0016c1f8       ?type_case_X@?$output_processor@DV?$stream_output_adapter@D@__crt_stdio_output@@V?$positional_parameter_base@DV?$stream_output_adapter@D@__crt_stdio_output@@@2@@__crt_stdio_output@@AEAA_NXZ 000000018016d1f8 f i libucrt:output.obj
 0001:0016c208       ?type_case_X@?$output_processor@DV?$stream_output_adapter@D@__crt_stdio_output@@V?$standard_base@DV?$stream_output_adapter@D@__crt_stdio_output@@@2@@__crt_stdio_output@@AEAA_NXZ 000000018016d208 f i libucrt:output.obj
 0001:0016c218       ?type_case_X@?$output_processor@DV?$string_output_adapter@D@__crt_stdio_output@@V?$format_validation_base@DV?$string_output_adapter@D@__crt_stdio_output@@@2@@__crt_stdio_output@@AEAA_NXZ 000000018016d218 f i libucrt:output.obj
 0001:0016c228       ?type_case_X@?$output_processor@DV?$string_output_adapter@D@__crt_stdio_output@@V?$positional_parameter_base@DV?$string_output_adapter@D@__crt_stdio_output@@@2@@__crt_stdio_output@@AEAA_NXZ 000000018016d228 f i libucrt:output.obj
 0001:0016c238       ?type_case_X@?$output_processor@DV?$string_output_adapter@D@__crt_stdio_output@@V?$standard_base@DV?$string_output_adapter@D@__crt_stdio_output@@@2@@__crt_stdio_output@@AEAA_NXZ 000000018016d238 f i libucrt:output.obj
 0001:0016c248       ?type_case_X@?$output_processor@_WV?$stream_output_adapter@_W@__crt_stdio_output@@V?$format_validation_base@_WV?$stream_output_adapter@_W@__crt_stdio_output@@@2@@__crt_stdio_output@@AEAA_NXZ 000000018016d248 f i libucrt:output.obj
 0001:0016c258       ?type_case_X@?$output_processor@_WV?$stream_output_adapter@_W@__crt_stdio_output@@V?$positional_parameter_base@_WV?$stream_output_adapter@_W@__crt_stdio_output@@@2@@__crt_stdio_output@@AEAA_NXZ 000000018016d258 f i libucrt:output.obj
 0001:0016c268       ?type_case_X@?$output_processor@_WV?$stream_output_adapter@_W@__crt_stdio_output@@V?$standard_base@_WV?$stream_output_adapter@_W@__crt_stdio_output@@@2@@__crt_stdio_output@@AEAA_NXZ 000000018016d268 f i libucrt:output.obj
 0001:0016c278       ?type_case_X@?$output_processor@_WV?$string_output_adapter@_W@__crt_stdio_output@@V?$format_validation_base@_WV?$string_output_adapter@_W@__crt_stdio_output@@@2@@__crt_stdio_output@@AEAA_NXZ 000000018016d278 f i libucrt:output.obj
 0001:0016c288       ?type_case_X@?$output_processor@_WV?$string_output_adapter@_W@__crt_stdio_output@@V?$positional_parameter_base@_WV?$string_output_adapter@_W@__crt_stdio_output@@@2@@__crt_stdio_output@@AEAA_NXZ 000000018016d288 f i libucrt:output.obj
 0001:0016c298       ?type_case_X@?$output_processor@_WV?$string_output_adapter@_W@__crt_stdio_output@@V?$standard_base@_WV?$string_output_adapter@_W@__crt_stdio_output@@@2@@__crt_stdio_output@@AEAA_NXZ 000000018016d298 f i libucrt:output.obj
 0001:0016c2a8       ?type_case_Z@?$output_processor@DV?$stream_output_adapter@D@__crt_stdio_output@@V?$format_validation_base@DV?$stream_output_adapter@D@__crt_stdio_output@@@2@@__crt_stdio_output@@AEAA_NXZ 000000018016d2a8 f i libucrt:output.obj
 0001:0016c31c       ?type_case_Z@?$output_processor@DV?$stream_output_adapter@D@__crt_stdio_output@@V?$positional_parameter_base@DV?$stream_output_adapter@D@__crt_stdio_output@@@2@@__crt_stdio_output@@AEAA_NXZ 000000018016d31c f i libucrt:output.obj
 0001:0016c3bc       ?type_case_Z@?$output_processor@DV?$stream_output_adapter@D@__crt_stdio_output@@V?$standard_base@DV?$stream_output_adapter@D@__crt_stdio_output@@@2@@__crt_stdio_output@@AEAA_NXZ 000000018016d3bc f i libucrt:output.obj
 0001:0016c430       ?type_case_Z@?$output_processor@DV?$string_output_adapter@D@__crt_stdio_output@@V?$format_validation_base@DV?$string_output_adapter@D@__crt_stdio_output@@@2@@__crt_stdio_output@@AEAA_NXZ 000000018016d430 f i libucrt:output.obj
 0001:0016c4a4       ?type_case_Z@?$output_processor@DV?$string_output_adapter@D@__crt_stdio_output@@V?$positional_parameter_base@DV?$string_output_adapter@D@__crt_stdio_output@@@2@@__crt_stdio_output@@AEAA_NXZ 000000018016d4a4 f i libucrt:output.obj
 0001:0016c544       ?type_case_Z@?$output_processor@DV?$string_output_adapter@D@__crt_stdio_output@@V?$standard_base@DV?$string_output_adapter@D@__crt_stdio_output@@@2@@__crt_stdio_output@@AEAA_NXZ 000000018016d544 f i libucrt:output.obj
 0001:0016c5b8       ?type_case_Z@?$output_processor@_WV?$stream_output_adapter@_W@__crt_stdio_output@@V?$format_validation_base@_WV?$stream_output_adapter@_W@__crt_stdio_output@@@2@@__crt_stdio_output@@AEAA_NXZ 000000018016d5b8 f i libucrt:output.obj
 0001:0016c634       ?type_case_Z@?$output_processor@_WV?$stream_output_adapter@_W@__crt_stdio_output@@V?$positional_parameter_base@_WV?$stream_output_adapter@_W@__crt_stdio_output@@@2@@__crt_stdio_output@@AEAA_NXZ 000000018016d634 f i libucrt:output.obj
 0001:0016c6cc       ?type_case_Z@?$output_processor@_WV?$stream_output_adapter@_W@__crt_stdio_output@@V?$standard_base@_WV?$stream_output_adapter@_W@__crt_stdio_output@@@2@@__crt_stdio_output@@AEAA_NXZ 000000018016d6cc f i libucrt:output.obj
 0001:0016c748       ?type_case_Z@?$output_processor@_WV?$string_output_adapter@_W@__crt_stdio_output@@V?$format_validation_base@_WV?$string_output_adapter@_W@__crt_stdio_output@@@2@@__crt_stdio_output@@AEAA_NXZ 000000018016d748 f i libucrt:output.obj
 0001:0016c7c4       ?type_case_Z@?$output_processor@_WV?$string_output_adapter@_W@__crt_stdio_output@@V?$positional_parameter_base@_WV?$string_output_adapter@_W@__crt_stdio_output@@@2@@__crt_stdio_output@@AEAA_NXZ 000000018016d7c4 f i libucrt:output.obj
 0001:0016c85c       ?type_case_Z@?$output_processor@_WV?$string_output_adapter@_W@__crt_stdio_output@@V?$standard_base@_WV?$string_output_adapter@_W@__crt_stdio_output@@@2@@__crt_stdio_output@@AEAA_NXZ 000000018016d85c f i libucrt:output.obj
 0001:0016c8d8       ?type_case_a@?$output_processor@DV?$stream_output_adapter@D@__crt_stdio_output@@V?$format_validation_base@DV?$stream_output_adapter@D@__crt_stdio_output@@@2@@__crt_stdio_output@@AEAA_NXZ 000000018016d8d8 f i libucrt:output.obj
 0001:0016ca94       ?type_case_a@?$output_processor@DV?$stream_output_adapter@D@__crt_stdio_output@@V?$positional_parameter_base@DV?$stream_output_adapter@D@__crt_stdio_output@@@2@@__crt_stdio_output@@AEAA_NXZ 000000018016da94 f i libucrt:output.obj
 0001:0016cc8c       ?type_case_a@?$output_processor@DV?$stream_output_adapter@D@__crt_stdio_output@@V?$standard_base@DV?$stream_output_adapter@D@__crt_stdio_output@@@2@@__crt_stdio_output@@AEAA_NXZ 000000018016dc8c f i libucrt:output.obj
 0001:0016ce48       ?type_case_a@?$output_processor@DV?$string_output_adapter@D@__crt_stdio_output@@V?$format_validation_base@DV?$string_output_adapter@D@__crt_stdio_output@@@2@@__crt_stdio_output@@AEAA_NXZ 000000018016de48 f i libucrt:output.obj
 0001:0016d004       ?type_case_a@?$output_processor@DV?$string_output_adapter@D@__crt_stdio_output@@V?$positional_parameter_base@DV?$string_output_adapter@D@__crt_stdio_output@@@2@@__crt_stdio_output@@AEAA_NXZ 000000018016e004 f i libucrt:output.obj
 0001:0016d1fc       ?type_case_a@?$output_processor@DV?$string_output_adapter@D@__crt_stdio_output@@V?$standard_base@DV?$string_output_adapter@D@__crt_stdio_output@@@2@@__crt_stdio_output@@AEAA_NXZ 000000018016e1fc f i libucrt:output.obj
 0001:0016d3b8       ?type_case_a@?$output_processor@_WV?$stream_output_adapter@_W@__crt_stdio_output@@V?$format_validation_base@_WV?$stream_output_adapter@_W@__crt_stdio_output@@@2@@__crt_stdio_output@@AEAA_NXZ 000000018016e3b8 f i libucrt:output.obj
 0001:0016d598       ?type_case_a@?$output_processor@_WV?$stream_output_adapter@_W@__crt_stdio_output@@V?$positional_parameter_base@_WV?$stream_output_adapter@_W@__crt_stdio_output@@@2@@__crt_stdio_output@@AEAA_NXZ 000000018016e598 f i libucrt:output.obj
 0001:0016d7b4       ?type_case_a@?$output_processor@_WV?$stream_output_adapter@_W@__crt_stdio_output@@V?$standard_base@_WV?$stream_output_adapter@_W@__crt_stdio_output@@@2@@__crt_stdio_output@@AEAA_NXZ 000000018016e7b4 f i libucrt:output.obj
 0001:0016d994       ?type_case_a@?$output_processor@_WV?$string_output_adapter@_W@__crt_stdio_output@@V?$format_validation_base@_WV?$string_output_adapter@_W@__crt_stdio_output@@@2@@__crt_stdio_output@@AEAA_NXZ 000000018016e994 f i libucrt:output.obj
 0001:0016db74       ?type_case_a@?$output_processor@_WV?$string_output_adapter@_W@__crt_stdio_output@@V?$positional_parameter_base@_WV?$string_output_adapter@_W@__crt_stdio_output@@@2@@__crt_stdio_output@@AEAA_NXZ 000000018016eb74 f i libucrt:output.obj
 0001:0016dd90       ?type_case_a@?$output_processor@_WV?$string_output_adapter@_W@__crt_stdio_output@@V?$standard_base@_WV?$string_output_adapter@_W@__crt_stdio_output@@@2@@__crt_stdio_output@@AEAA_NXZ 000000018016ed90 f i libucrt:output.obj
 0001:0016df70       ?type_case_c@?$output_processor@DV?$stream_output_adapter@D@__crt_stdio_output@@V?$format_validation_base@DV?$stream_output_adapter@D@__crt_stdio_output@@@2@@__crt_stdio_output@@AEAA_NXZ 000000018016ef70 f i libucrt:output.obj
 0001:0016df78       ?type_case_c@?$output_processor@DV?$stream_output_adapter@D@__crt_stdio_output@@V?$positional_parameter_base@DV?$stream_output_adapter@D@__crt_stdio_output@@@2@@__crt_stdio_output@@AEAA_NXZ 000000018016ef78 f i libucrt:output.obj
 0001:0016df80       ?type_case_c@?$output_processor@DV?$stream_output_adapter@D@__crt_stdio_output@@V?$standard_base@DV?$stream_output_adapter@D@__crt_stdio_output@@@2@@__crt_stdio_output@@AEAA_NXZ 000000018016ef80 f i libucrt:output.obj
 0001:0016df88       ?type_case_c@?$output_processor@DV?$string_output_adapter@D@__crt_stdio_output@@V?$format_validation_base@DV?$string_output_adapter@D@__crt_stdio_output@@@2@@__crt_stdio_output@@AEAA_NXZ 000000018016ef88 f i libucrt:output.obj
 0001:0016df90       ?type_case_c@?$output_processor@DV?$string_output_adapter@D@__crt_stdio_output@@V?$positional_parameter_base@DV?$string_output_adapter@D@__crt_stdio_output@@@2@@__crt_stdio_output@@AEAA_NXZ 000000018016ef90 f i libucrt:output.obj
 0001:0016df98       ?type_case_c@?$output_processor@DV?$string_output_adapter@D@__crt_stdio_output@@V?$standard_base@DV?$string_output_adapter@D@__crt_stdio_output@@@2@@__crt_stdio_output@@AEAA_NXZ 000000018016ef98 f i libucrt:output.obj
 0001:0016dfa0       ?type_case_c@?$output_processor@_WV?$stream_output_adapter@_W@__crt_stdio_output@@V?$format_validation_base@_WV?$stream_output_adapter@_W@__crt_stdio_output@@@2@@__crt_stdio_output@@AEAA_NXZ 000000018016efa0 f i libucrt:output.obj
 0001:0016dfa8       ?type_case_c@?$output_processor@_WV?$stream_output_adapter@_W@__crt_stdio_output@@V?$positional_parameter_base@_WV?$stream_output_adapter@_W@__crt_stdio_output@@@2@@__crt_stdio_output@@AEAA_NXZ 000000018016efa8 f i libucrt:output.obj
 0001:0016dfb0       ?type_case_c@?$output_processor@_WV?$stream_output_adapter@_W@__crt_stdio_output@@V?$standard_base@_WV?$stream_output_adapter@_W@__crt_stdio_output@@@2@@__crt_stdio_output@@AEAA_NXZ 000000018016efb0 f i libucrt:output.obj
 0001:0016dfb8       ?type_case_c@?$output_processor@_WV?$string_output_adapter@_W@__crt_stdio_output@@V?$format_validation_base@_WV?$string_output_adapter@_W@__crt_stdio_output@@@2@@__crt_stdio_output@@AEAA_NXZ 000000018016efb8 f i libucrt:output.obj
 0001:0016dfc0       ?type_case_c@?$output_processor@_WV?$string_output_adapter@_W@__crt_stdio_output@@V?$positional_parameter_base@_WV?$string_output_adapter@_W@__crt_stdio_output@@@2@@__crt_stdio_output@@AEAA_NXZ 000000018016efc0 f i libucrt:output.obj
 0001:0016dfc8       ?type_case_c@?$output_processor@_WV?$string_output_adapter@_W@__crt_stdio_output@@V?$standard_base@_WV?$string_output_adapter@_W@__crt_stdio_output@@@2@@__crt_stdio_output@@AEAA_NXZ 000000018016efc8 f i libucrt:output.obj
 0001:0016dfd0       ?type_case_c_tchar@?$output_processor@DV?$stream_output_adapter@D@__crt_stdio_output@@V?$format_validation_base@DV?$stream_output_adapter@D@__crt_stdio_output@@@2@@__crt_stdio_output@@AEAA_ND@Z 000000018016efd0 f i libucrt:output.obj
 0001:0016e098       ?type_case_c_tchar@?$output_processor@DV?$stream_output_adapter@D@__crt_stdio_output@@V?$positional_parameter_base@DV?$stream_output_adapter@D@__crt_stdio_output@@@2@@__crt_stdio_output@@AEAA_ND@Z 000000018016f098 f i libucrt:output.obj
 0001:0016e1a4       ?type_case_c_tchar@?$output_processor@DV?$stream_output_adapter@D@__crt_stdio_output@@V?$standard_base@DV?$stream_output_adapter@D@__crt_stdio_output@@@2@@__crt_stdio_output@@AEAA_ND@Z 000000018016f1a4 f i libucrt:output.obj
 0001:0016e26c       ?type_case_c_tchar@?$output_processor@DV?$string_output_adapter@D@__crt_stdio_output@@V?$format_validation_base@DV?$string_output_adapter@D@__crt_stdio_output@@@2@@__crt_stdio_output@@AEAA_ND@Z 000000018016f26c f i libucrt:output.obj
 0001:0016e334       ?type_case_c_tchar@?$output_processor@DV?$string_output_adapter@D@__crt_stdio_output@@V?$positional_parameter_base@DV?$string_output_adapter@D@__crt_stdio_output@@@2@@__crt_stdio_output@@AEAA_ND@Z 000000018016f334 f i libucrt:output.obj
 0001:0016e440       ?type_case_c_tchar@?$output_processor@DV?$string_output_adapter@D@__crt_stdio_output@@V?$standard_base@DV?$string_output_adapter@D@__crt_stdio_output@@@2@@__crt_stdio_output@@AEAA_ND@Z 000000018016f440 f i libucrt:output.obj
 0001:0016e508       ?type_case_c_tchar@?$output_processor@_WV?$stream_output_adapter@_W@__crt_stdio_output@@V?$format_validation_base@_WV?$stream_output_adapter@_W@__crt_stdio_output@@@2@@__crt_stdio_output@@AEAA_N_W@Z 000000018016f508 f i libucrt:output.obj
 0001:0016e5b0       ?type_case_c_tchar@?$output_processor@_WV?$stream_output_adapter@_W@__crt_stdio_output@@V?$positional_parameter_base@_WV?$stream_output_adapter@_W@__crt_stdio_output@@@2@@__crt_stdio_output@@AEAA_N_W@Z 000000018016f5b0 f i libucrt:output.obj
 0001:0016e67c       ?type_case_c_tchar@?$output_processor@_WV?$stream_output_adapter@_W@__crt_stdio_output@@V?$standard_base@_WV?$stream_output_adapter@_W@__crt_stdio_output@@@2@@__crt_stdio_output@@AEAA_N_W@Z 000000018016f67c f i libucrt:output.obj
 0001:0016e724       ?type_case_c_tchar@?$output_processor@_WV?$string_output_adapter@_W@__crt_stdio_output@@V?$format_validation_base@_WV?$string_output_adapter@_W@__crt_stdio_output@@@2@@__crt_stdio_output@@AEAA_N_W@Z 000000018016f724 f i libucrt:output.obj
 0001:0016e7cc       ?type_case_c_tchar@?$output_processor@_WV?$string_output_adapter@_W@__crt_stdio_output@@V?$positional_parameter_base@_WV?$string_output_adapter@_W@__crt_stdio_output@@@2@@__crt_stdio_output@@AEAA_N_W@Z 000000018016f7cc f i libucrt:output.obj
 0001:0016e898       ?type_case_c_tchar@?$output_processor@_WV?$string_output_adapter@_W@__crt_stdio_output@@V?$standard_base@_WV?$string_output_adapter@_W@__crt_stdio_output@@@2@@__crt_stdio_output@@AEAA_N_W@Z 000000018016f898 f i libucrt:output.obj
 0001:0016e940       ?type_case_d@?$output_processor@DV?$stream_output_adapter@D@__crt_stdio_output@@V?$format_validation_base@DV?$stream_output_adapter@D@__crt_stdio_output@@@2@@__crt_stdio_output@@AEAA_NXZ 000000018016f940 f i libucrt:output.obj
 0001:0016e950       ?type_case_d@?$output_processor@DV?$stream_output_adapter@D@__crt_stdio_output@@V?$positional_parameter_base@DV?$stream_output_adapter@D@__crt_stdio_output@@@2@@__crt_stdio_output@@AEAA_NXZ 000000018016f950 f i libucrt:output.obj
 0001:0016e960       ?type_case_d@?$output_processor@DV?$stream_output_adapter@D@__crt_stdio_output@@V?$standard_base@DV?$stream_output_adapter@D@__crt_stdio_output@@@2@@__crt_stdio_output@@AEAA_NXZ 000000018016f960 f i libucrt:output.obj
 0001:0016e970       ?type_case_d@?$output_processor@DV?$string_output_adapter@D@__crt_stdio_output@@V?$format_validation_base@DV?$string_output_adapter@D@__crt_stdio_output@@@2@@__crt_stdio_output@@AEAA_NXZ 000000018016f970 f i libucrt:output.obj
 0001:0016e980       ?type_case_d@?$output_processor@DV?$string_output_adapter@D@__crt_stdio_output@@V?$positional_parameter_base@DV?$string_output_adapter@D@__crt_stdio_output@@@2@@__crt_stdio_output@@AEAA_NXZ 000000018016f980 f i libucrt:output.obj
 0001:0016e990       ?type_case_d@?$output_processor@DV?$string_output_adapter@D@__crt_stdio_output@@V?$standard_base@DV?$string_output_adapter@D@__crt_stdio_output@@@2@@__crt_stdio_output@@AEAA_NXZ 000000018016f990 f i libucrt:output.obj
 0001:0016e9a0       ?type_case_d@?$output_processor@_WV?$stream_output_adapter@_W@__crt_stdio_output@@V?$format_validation_base@_WV?$stream_output_adapter@_W@__crt_stdio_output@@@2@@__crt_stdio_output@@AEAA_NXZ 000000018016f9a0 f i libucrt:output.obj
 0001:0016e9b0       ?type_case_d@?$output_processor@_WV?$stream_output_adapter@_W@__crt_stdio_output@@V?$positional_parameter_base@_WV?$stream_output_adapter@_W@__crt_stdio_output@@@2@@__crt_stdio_output@@AEAA_NXZ 000000018016f9b0 f i libucrt:output.obj
 0001:0016e9c0       ?type_case_d@?$output_processor@_WV?$stream_output_adapter@_W@__crt_stdio_output@@V?$standard_base@_WV?$stream_output_adapter@_W@__crt_stdio_output@@@2@@__crt_stdio_output@@AEAA_NXZ 000000018016f9c0 f i libucrt:output.obj
 0001:0016e9d0       ?type_case_d@?$output_processor@_WV?$string_output_adapter@_W@__crt_stdio_output@@V?$format_validation_base@_WV?$string_output_adapter@_W@__crt_stdio_output@@@2@@__crt_stdio_output@@AEAA_NXZ 000000018016f9d0 f i libucrt:output.obj
 0001:0016e9e0       ?type_case_d@?$output_processor@_WV?$string_output_adapter@_W@__crt_stdio_output@@V?$positional_parameter_base@_WV?$string_output_adapter@_W@__crt_stdio_output@@@2@@__crt_stdio_output@@AEAA_NXZ 000000018016f9e0 f i libucrt:output.obj
 0001:0016e9f0       ?type_case_d@?$output_processor@_WV?$string_output_adapter@_W@__crt_stdio_output@@V?$standard_base@_WV?$string_output_adapter@_W@__crt_stdio_output@@@2@@__crt_stdio_output@@AEAA_NXZ 000000018016f9f0 f i libucrt:output.obj
 0001:0016ea00       ?type_case_integer@?$output_processor@DV?$stream_output_adapter@D@__crt_stdio_output@@V?$format_validation_base@DV?$stream_output_adapter@D@__crt_stdio_output@@@2@@__crt_stdio_output@@AEAA_NI_N@Z 000000018016fa00 f i libucrt:output.obj
 0001:0016eb80       ?type_case_integer@?$output_processor@DV?$stream_output_adapter@D@__crt_stdio_output@@V?$positional_parameter_base@DV?$stream_output_adapter@D@__crt_stdio_output@@@2@@__crt_stdio_output@@AEAA_NI_N@Z 000000018016fb80 f i libucrt:output.obj
 0001:0016ed28       ?type_case_integer@?$output_processor@DV?$stream_output_adapter@D@__crt_stdio_output@@V?$standard_base@DV?$stream_output_adapter@D@__crt_stdio_output@@@2@@__crt_stdio_output@@AEAA_NI_N@Z 000000018016fd28 f i libucrt:output.obj
 0001:0016eea8       ?type_case_integer@?$output_processor@DV?$string_output_adapter@D@__crt_stdio_output@@V?$format_validation_base@DV?$string_output_adapter@D@__crt_stdio_output@@@2@@__crt_stdio_output@@AEAA_NI_N@Z 000000018016fea8 f i libucrt:output.obj
 0001:0016f028       ?type_case_integer@?$output_processor@DV?$string_output_adapter@D@__crt_stdio_output@@V?$positional_parameter_base@DV?$string_output_adapter@D@__crt_stdio_output@@@2@@__crt_stdio_output@@AEAA_NI_N@Z 0000000180170028 f i libucrt:output.obj
 0001:0016f1d0       ?type_case_integer@?$output_processor@DV?$string_output_adapter@D@__crt_stdio_output@@V?$standard_base@DV?$string_output_adapter@D@__crt_stdio_output@@@2@@__crt_stdio_output@@AEAA_NI_N@Z 00000001801701d0 f i libucrt:output.obj
 0001:0016f350       ?type_case_integer@?$output_processor@_WV?$stream_output_adapter@_W@__crt_stdio_output@@V?$format_validation_base@_WV?$stream_output_adapter@_W@__crt_stdio_output@@@2@@__crt_stdio_output@@AEAA_NI_N@Z 0000000180170350 f i libucrt:output.obj
 0001:0016f4d8       ?type_case_integer@?$output_processor@_WV?$stream_output_adapter@_W@__crt_stdio_output@@V?$positional_parameter_base@_WV?$stream_output_adapter@_W@__crt_stdio_output@@@2@@__crt_stdio_output@@AEAA_NI_N@Z 00000001801704d8 f i libucrt:output.obj
 0001:0016f688       ?type_case_integer@?$output_processor@_WV?$stream_output_adapter@_W@__crt_stdio_output@@V?$standard_base@_WV?$stream_output_adapter@_W@__crt_stdio_output@@@2@@__crt_stdio_output@@AEAA_NI_N@Z 0000000180170688 f i libucrt:output.obj
 0001:0016f810       ?type_case_integer@?$output_processor@_WV?$string_output_adapter@_W@__crt_stdio_output@@V?$format_validation_base@_WV?$string_output_adapter@_W@__crt_stdio_output@@@2@@__crt_stdio_output@@AEAA_NI_N@Z 0000000180170810 f i libucrt:output.obj
 0001:0016f998       ?type_case_integer@?$output_processor@_WV?$string_output_adapter@_W@__crt_stdio_output@@V?$positional_parameter_base@_WV?$string_output_adapter@_W@__crt_stdio_output@@@2@@__crt_stdio_output@@AEAA_NI_N@Z 0000000180170998 f i libucrt:output.obj
 0001:0016fb48       ?type_case_integer@?$output_processor@_WV?$string_output_adapter@_W@__crt_stdio_output@@V?$standard_base@_WV?$string_output_adapter@_W@__crt_stdio_output@@@2@@__crt_stdio_output@@AEAA_NI_N@Z 0000000180170b48 f i libucrt:output.obj
 0001:0016fcd0       ?type_case_n@?$output_processor@DV?$stream_output_adapter@D@__crt_stdio_output@@V?$format_validation_base@DV?$stream_output_adapter@D@__crt_stdio_output@@@2@@__crt_stdio_output@@AEAA_NXZ 0000000180170cd0 f i libucrt:output.obj
 0001:0016fd58       ?type_case_n@?$output_processor@DV?$stream_output_adapter@D@__crt_stdio_output@@V?$positional_parameter_base@DV?$stream_output_adapter@D@__crt_stdio_output@@@2@@__crt_stdio_output@@AEAA_NXZ 0000000180170d58 f i libucrt:output.obj
 0001:0016fe08       ?type_case_n@?$output_processor@DV?$stream_output_adapter@D@__crt_stdio_output@@V?$standard_base@DV?$stream_output_adapter@D@__crt_stdio_output@@@2@@__crt_stdio_output@@AEAA_NXZ 0000000180170e08 f i libucrt:output.obj
 0001:0016fe90       ?type_case_n@?$output_processor@DV?$string_output_adapter@D@__crt_stdio_output@@V?$format_validation_base@DV?$string_output_adapter@D@__crt_stdio_output@@@2@@__crt_stdio_output@@AEAA_NXZ 0000000180170e90 f i libucrt:output.obj
 0001:0016ff18       ?type_case_n@?$output_processor@DV?$string_output_adapter@D@__crt_stdio_output@@V?$positional_parameter_base@DV?$string_output_adapter@D@__crt_stdio_output@@@2@@__crt_stdio_output@@AEAA_NXZ 0000000180170f18 f i libucrt:output.obj
 0001:0016ffc8       ?type_case_n@?$output_processor@DV?$string_output_adapter@D@__crt_stdio_output@@V?$standard_base@DV?$string_output_adapter@D@__crt_stdio_output@@@2@@__crt_stdio_output@@AEAA_NXZ 0000000180170fc8 f i libucrt:output.obj
 0001:00170050       ?type_case_n@?$output_processor@_WV?$stream_output_adapter@_W@__crt_stdio_output@@V?$format_validation_base@_WV?$stream_output_adapter@_W@__crt_stdio_output@@@2@@__crt_stdio_output@@AEAA_NXZ 0000000180171050 f i libucrt:output.obj
 0001:001700d8       ?type_case_n@?$output_processor@_WV?$stream_output_adapter@_W@__crt_stdio_output@@V?$positional_parameter_base@_WV?$stream_output_adapter@_W@__crt_stdio_output@@@2@@__crt_stdio_output@@AEAA_NXZ 00000001801710d8 f i libucrt:output.obj
 0001:00170188       ?type_case_n@?$output_processor@_WV?$stream_output_adapter@_W@__crt_stdio_output@@V?$standard_base@_WV?$stream_output_adapter@_W@__crt_stdio_output@@@2@@__crt_stdio_output@@AEAA_NXZ 0000000180171188 f i libucrt:output.obj
 0001:00170210       ?type_case_n@?$output_processor@_WV?$string_output_adapter@_W@__crt_stdio_output@@V?$format_validation_base@_WV?$string_output_adapter@_W@__crt_stdio_output@@@2@@__crt_stdio_output@@AEAA_NXZ 0000000180171210 f i libucrt:output.obj
 0001:00170298       ?type_case_n@?$output_processor@_WV?$string_output_adapter@_W@__crt_stdio_output@@V?$positional_parameter_base@_WV?$string_output_adapter@_W@__crt_stdio_output@@@2@@__crt_stdio_output@@AEAA_NXZ 0000000180171298 f i libucrt:output.obj
 0001:00170348       ?type_case_n@?$output_processor@_WV?$string_output_adapter@_W@__crt_stdio_output@@V?$standard_base@_WV?$string_output_adapter@_W@__crt_stdio_output@@@2@@__crt_stdio_output@@AEAA_NXZ 0000000180171348 f i libucrt:output.obj
 0001:001703d0       ?type_case_o@?$output_processor@DV?$stream_output_adapter@D@__crt_stdio_output@@V?$format_validation_base@DV?$stream_output_adapter@D@__crt_stdio_output@@@2@@__crt_stdio_output@@AEAA_NXZ 00000001801713d0 f i libucrt:output.obj
 0001:001703f0       ?type_case_o@?$output_processor@DV?$stream_output_adapter@D@__crt_stdio_output@@V?$positional_parameter_base@DV?$stream_output_adapter@D@__crt_stdio_output@@@2@@__crt_stdio_output@@AEAA_NXZ 00000001801713f0 f i libucrt:output.obj
 0001:00170410       ?type_case_o@?$output_processor@DV?$stream_output_adapter@D@__crt_stdio_output@@V?$standard_base@DV?$stream_output_adapter@D@__crt_stdio_output@@@2@@__crt_stdio_output@@AEAA_NXZ 0000000180171410 f i libucrt:output.obj
 0001:00170430       ?type_case_o@?$output_processor@DV?$string_output_adapter@D@__crt_stdio_output@@V?$format_validation_base@DV?$string_output_adapter@D@__crt_stdio_output@@@2@@__crt_stdio_output@@AEAA_NXZ 0000000180171430 f i libucrt:output.obj
 0001:00170450       ?type_case_o@?$output_processor@DV?$string_output_adapter@D@__crt_stdio_output@@V?$positional_parameter_base@DV?$string_output_adapter@D@__crt_stdio_output@@@2@@__crt_stdio_output@@AEAA_NXZ 0000000180171450 f i libucrt:output.obj
 0001:00170470       ?type_case_o@?$output_processor@DV?$string_output_adapter@D@__crt_stdio_output@@V?$standard_base@DV?$string_output_adapter@D@__crt_stdio_output@@@2@@__crt_stdio_output@@AEAA_NXZ 0000000180171470 f i libucrt:output.obj
 0001:00170490       ?type_case_o@?$output_processor@_WV?$stream_output_adapter@_W@__crt_stdio_output@@V?$format_validation_base@_WV?$stream_output_adapter@_W@__crt_stdio_output@@@2@@__crt_stdio_output@@AEAA_NXZ 0000000180171490 f i libucrt:output.obj
 0001:001704b0       ?type_case_o@?$output_processor@_WV?$stream_output_adapter@_W@__crt_stdio_output@@V?$positional_parameter_base@_WV?$stream_output_adapter@_W@__crt_stdio_output@@@2@@__crt_stdio_output@@AEAA_NXZ 00000001801714b0 f i libucrt:output.obj
 0001:001704d0       ?type_case_o@?$output_processor@_WV?$stream_output_adapter@_W@__crt_stdio_output@@V?$standard_base@_WV?$stream_output_adapter@_W@__crt_stdio_output@@@2@@__crt_stdio_output@@AEAA_NXZ 00000001801714d0 f i libucrt:output.obj
 0001:001704f0       ?type_case_o@?$output_processor@_WV?$string_output_adapter@_W@__crt_stdio_output@@V?$format_validation_base@_WV?$string_output_adapter@_W@__crt_stdio_output@@@2@@__crt_stdio_output@@AEAA_NXZ 00000001801714f0 f i libucrt:output.obj
 0001:00170510       ?type_case_o@?$output_processor@_WV?$string_output_adapter@_W@__crt_stdio_output@@V?$positional_parameter_base@_WV?$string_output_adapter@_W@__crt_stdio_output@@@2@@__crt_stdio_output@@AEAA_NXZ 0000000180171510 f i libucrt:output.obj
 0001:00170530       ?type_case_o@?$output_processor@_WV?$string_output_adapter@_W@__crt_stdio_output@@V?$standard_base@_WV?$string_output_adapter@_W@__crt_stdio_output@@@2@@__crt_stdio_output@@AEAA_NXZ 0000000180171530 f i libucrt:output.obj
 0001:00170550       ?type_case_p@?$output_processor@DV?$stream_output_adapter@D@__crt_stdio_output@@V?$format_validation_base@DV?$stream_output_adapter@D@__crt_stdio_output@@@2@@__crt_stdio_output@@AEAA_NXZ 0000000180171550 f i libucrt:output.obj
 0001:00170568       ?type_case_p@?$output_processor@DV?$stream_output_adapter@D@__crt_stdio_output@@V?$positional_parameter_base@DV?$stream_output_adapter@D@__crt_stdio_output@@@2@@__crt_stdio_output@@AEAA_NXZ 0000000180171568 f i libucrt:output.obj
 0001:00170580       ?type_case_p@?$output_processor@DV?$stream_output_adapter@D@__crt_stdio_output@@V?$standard_base@DV?$stream_output_adapter@D@__crt_stdio_output@@@2@@__crt_stdio_output@@AEAA_NXZ 0000000180171580 f i libucrt:output.obj
 0001:00170598       ?type_case_p@?$output_processor@DV?$string_output_adapter@D@__crt_stdio_output@@V?$format_validation_base@DV?$string_output_adapter@D@__crt_stdio_output@@@2@@__crt_stdio_output@@AEAA_NXZ 0000000180171598 f i libucrt:output.obj
 0001:001705b0       ?type_case_p@?$output_processor@DV?$string_output_adapter@D@__crt_stdio_output@@V?$positional_parameter_base@DV?$string_output_adapter@D@__crt_stdio_output@@@2@@__crt_stdio_output@@AEAA_NXZ 00000001801715b0 f i libucrt:output.obj
 0001:001705c8       ?type_case_p@?$output_processor@DV?$string_output_adapter@D@__crt_stdio_output@@V?$standard_base@DV?$string_output_adapter@D@__crt_stdio_output@@@2@@__crt_stdio_output@@AEAA_NXZ 00000001801715c8 f i libucrt:output.obj
 0001:001705e0       ?type_case_p@?$output_processor@_WV?$stream_output_adapter@_W@__crt_stdio_output@@V?$format_validation_base@_WV?$stream_output_adapter@_W@__crt_stdio_output@@@2@@__crt_stdio_output@@AEAA_NXZ 00000001801715e0 f i libucrt:output.obj
 0001:001705f8       ?type_case_p@?$output_processor@_WV?$stream_output_adapter@_W@__crt_stdio_output@@V?$positional_parameter_base@_WV?$stream_output_adapter@_W@__crt_stdio_output@@@2@@__crt_stdio_output@@AEAA_NXZ 00000001801715f8 f i libucrt:output.obj
 0001:00170610       ?type_case_p@?$output_processor@_WV?$stream_output_adapter@_W@__crt_stdio_output@@V?$standard_base@_WV?$stream_output_adapter@_W@__crt_stdio_output@@@2@@__crt_stdio_output@@AEAA_NXZ 0000000180171610 f i libucrt:output.obj
 0001:00170628       ?type_case_p@?$output_processor@_WV?$string_output_adapter@_W@__crt_stdio_output@@V?$format_validation_base@_WV?$string_output_adapter@_W@__crt_stdio_output@@@2@@__crt_stdio_output@@AEAA_NXZ 0000000180171628 f i libucrt:output.obj
 0001:00170640       ?type_case_p@?$output_processor@_WV?$string_output_adapter@_W@__crt_stdio_output@@V?$positional_parameter_base@_WV?$string_output_adapter@_W@__crt_stdio_output@@@2@@__crt_stdio_output@@AEAA_NXZ 0000000180171640 f i libucrt:output.obj
 0001:00170658       ?type_case_p@?$output_processor@_WV?$string_output_adapter@_W@__crt_stdio_output@@V?$standard_base@_WV?$string_output_adapter@_W@__crt_stdio_output@@@2@@__crt_stdio_output@@AEAA_NXZ 0000000180171658 f i libucrt:output.obj
 0001:00170670       ?type_case_s@?$output_processor@DV?$stream_output_adapter@D@__crt_stdio_output@@V?$format_validation_base@DV?$stream_output_adapter@D@__crt_stdio_output@@@2@@__crt_stdio_output@@AEAA_NXZ 0000000180171670 f i libucrt:output.obj
 0001:00170708       ?type_case_s@?$output_processor@DV?$stream_output_adapter@D@__crt_stdio_output@@V?$positional_parameter_base@DV?$stream_output_adapter@D@__crt_stdio_output@@@2@@__crt_stdio_output@@AEAA_NXZ 0000000180171708 f i libucrt:output.obj
 0001:001707c0       ?type_case_s@?$output_processor@DV?$stream_output_adapter@D@__crt_stdio_output@@V?$standard_base@DV?$stream_output_adapter@D@__crt_stdio_output@@@2@@__crt_stdio_output@@AEAA_NXZ 00000001801717c0 f i libucrt:output.obj
 0001:00170858       ?type_case_s@?$output_processor@DV?$string_output_adapter@D@__crt_stdio_output@@V?$format_validation_base@DV?$string_output_adapter@D@__crt_stdio_output@@@2@@__crt_stdio_output@@AEAA_NXZ 0000000180171858 f i libucrt:output.obj
 0001:001708f0       ?type_case_s@?$output_processor@DV?$string_output_adapter@D@__crt_stdio_output@@V?$positional_parameter_base@DV?$string_output_adapter@D@__crt_stdio_output@@@2@@__crt_stdio_output@@AEAA_NXZ 00000001801718f0 f i libucrt:output.obj
 0001:001709a8       ?type_case_s@?$output_processor@DV?$string_output_adapter@D@__crt_stdio_output@@V?$standard_base@DV?$string_output_adapter@D@__crt_stdio_output@@@2@@__crt_stdio_output@@AEAA_NXZ 00000001801719a8 f i libucrt:output.obj
 0001:00170a40       ?type_case_s@?$output_processor@_WV?$stream_output_adapter@_W@__crt_stdio_output@@V?$format_validation_base@_WV?$stream_output_adapter@_W@__crt_stdio_output@@@2@@__crt_stdio_output@@AEAA_NXZ 0000000180171a40 f i libucrt:output.obj
 0001:00170b08       ?type_case_s@?$output_processor@_WV?$stream_output_adapter@_W@__crt_stdio_output@@V?$positional_parameter_base@_WV?$stream_output_adapter@_W@__crt_stdio_output@@@2@@__crt_stdio_output@@AEAA_NXZ 0000000180171b08 f i libucrt:output.obj
 0001:00170bf4       ?type_case_s@?$output_processor@_WV?$stream_output_adapter@_W@__crt_stdio_output@@V?$standard_base@_WV?$stream_output_adapter@_W@__crt_stdio_output@@@2@@__crt_stdio_output@@AEAA_NXZ 0000000180171bf4 f i libucrt:output.obj
 0001:00170cbc       ?type_case_s@?$output_processor@_WV?$string_output_adapter@_W@__crt_stdio_output@@V?$format_validation_base@_WV?$string_output_adapter@_W@__crt_stdio_output@@@2@@__crt_stdio_output@@AEAA_NXZ 0000000180171cbc f i libucrt:output.obj
 0001:00170d84       ?type_case_s@?$output_processor@_WV?$string_output_adapter@_W@__crt_stdio_output@@V?$positional_parameter_base@_WV?$string_output_adapter@_W@__crt_stdio_output@@@2@@__crt_stdio_output@@AEAA_NXZ 0000000180171d84 f i libucrt:output.obj
 0001:00170e70       ?type_case_s@?$output_processor@_WV?$string_output_adapter@_W@__crt_stdio_output@@V?$standard_base@_WV?$string_output_adapter@_W@__crt_stdio_output@@@2@@__crt_stdio_output@@AEAA_NXZ 0000000180171e70 f i libucrt:output.obj
 0001:00170f38       ?type_case_s_compute_narrow_string_length@?$output_processor@DV?$stream_output_adapter@D@__crt_stdio_output@@V?$format_validation_base@DV?$stream_output_adapter@D@__crt_stdio_output@@@2@@__crt_stdio_output@@AEBAHHD@Z 0000000180171f38 f i libucrt:output.obj
 0001:00170f44       ?type_case_s_compute_narrow_string_length@?$output_processor@DV?$stream_output_adapter@D@__crt_stdio_output@@V?$positional_parameter_base@DV?$stream_output_adapter@D@__crt_stdio_output@@@2@@__crt_stdio_output@@AEBAHHD@Z 0000000180171f44 f i libucrt:output.obj
 0001:00170f50       ?type_case_s_compute_narrow_string_length@?$output_processor@DV?$stream_output_adapter@D@__crt_stdio_output@@V?$standard_base@DV?$stream_output_adapter@D@__crt_stdio_output@@@2@@__crt_stdio_output@@AEBAHHD@Z 0000000180171f50 f i libucrt:output.obj
 0001:00170f5c       ?type_case_s_compute_narrow_string_length@?$output_processor@DV?$string_output_adapter@D@__crt_stdio_output@@V?$format_validation_base@DV?$string_output_adapter@D@__crt_stdio_output@@@2@@__crt_stdio_output@@AEBAHHD@Z 0000000180171f5c f i libucrt:output.obj
 0001:00170f68       ?type_case_s_compute_narrow_string_length@?$output_processor@DV?$string_output_adapter@D@__crt_stdio_output@@V?$positional_parameter_base@DV?$string_output_adapter@D@__crt_stdio_output@@@2@@__crt_stdio_output@@AEBAHHD@Z 0000000180171f68 f i libucrt:output.obj
 0001:00170f74       ?type_case_s_compute_narrow_string_length@?$output_processor@DV?$string_output_adapter@D@__crt_stdio_output@@V?$standard_base@DV?$string_output_adapter@D@__crt_stdio_output@@@2@@__crt_stdio_output@@AEBAHHD@Z 0000000180171f74 f i libucrt:output.obj
 0001:00170f80       ?type_case_s_compute_narrow_string_length@?$output_processor@_WV?$stream_output_adapter@_W@__crt_stdio_output@@V?$format_validation_base@_WV?$stream_output_adapter@_W@__crt_stdio_output@@@2@@__crt_stdio_output@@AEBAHH_W@Z 0000000180171f80 f i libucrt:output.obj
 0001:00170fd4       ?type_case_s_compute_narrow_string_length@?$output_processor@_WV?$stream_output_adapter@_W@__crt_stdio_output@@V?$positional_parameter_base@_WV?$stream_output_adapter@_W@__crt_stdio_output@@@2@@__crt_stdio_output@@AEBAHH_W@Z 0000000180171fd4 f i libucrt:output.obj
 0001:00171028       ?type_case_s_compute_narrow_string_length@?$output_processor@_WV?$stream_output_adapter@_W@__crt_stdio_output@@V?$standard_base@_WV?$stream_output_adapter@_W@__crt_stdio_output@@@2@@__crt_stdio_output@@AEBAHH_W@Z 0000000180172028 f i libucrt:output.obj
 0001:0017107c       ?type_case_s_compute_narrow_string_length@?$output_processor@_WV?$string_output_adapter@_W@__crt_stdio_output@@V?$format_validation_base@_WV?$string_output_adapter@_W@__crt_stdio_output@@@2@@__crt_stdio_output@@AEBAHH_W@Z 000000018017207c f i libucrt:output.obj
 0001:001710d0       ?type_case_s_compute_narrow_string_length@?$output_processor@_WV?$string_output_adapter@_W@__crt_stdio_output@@V?$positional_parameter_base@_WV?$string_output_adapter@_W@__crt_stdio_output@@@2@@__crt_stdio_output@@AEBAHH_W@Z 00000001801720d0 f i libucrt:output.obj
 0001:00171124       ?type_case_s_compute_narrow_string_length@?$output_processor@_WV?$string_output_adapter@_W@__crt_stdio_output@@V?$standard_base@_WV?$string_output_adapter@_W@__crt_stdio_output@@@2@@__crt_stdio_output@@AEBAHH_W@Z 0000000180172124 f i libucrt:output.obj
 0001:00171178       ?type_case_u@?$output_processor@DV?$stream_output_adapter@D@__crt_stdio_output@@V?$format_validation_base@DV?$stream_output_adapter@D@__crt_stdio_output@@@2@@__crt_stdio_output@@AEAA_NXZ 0000000180172178 f i libucrt:output.obj
 0001:00171184       ?type_case_u@?$output_processor@DV?$stream_output_adapter@D@__crt_stdio_output@@V?$positional_parameter_base@DV?$stream_output_adapter@D@__crt_stdio_output@@@2@@__crt_stdio_output@@AEAA_NXZ 0000000180172184 f i libucrt:output.obj
 0001:00171190       ?type_case_u@?$output_processor@DV?$stream_output_adapter@D@__crt_stdio_output@@V?$standard_base@DV?$stream_output_adapter@D@__crt_stdio_output@@@2@@__crt_stdio_output@@AEAA_NXZ 0000000180172190 f i libucrt:output.obj
 0001:0017119c       ?type_case_u@?$output_processor@DV?$string_output_adapter@D@__crt_stdio_output@@V?$format_validation_base@DV?$string_output_adapter@D@__crt_stdio_output@@@2@@__crt_stdio_output@@AEAA_NXZ 000000018017219c f i libucrt:output.obj
 0001:001711a8       ?type_case_u@?$output_processor@DV?$string_output_adapter@D@__crt_stdio_output@@V?$positional_parameter_base@DV?$string_output_adapter@D@__crt_stdio_output@@@2@@__crt_stdio_output@@AEAA_NXZ 00000001801721a8 f i libucrt:output.obj
 0001:001711b4       ?type_case_u@?$output_processor@DV?$string_output_adapter@D@__crt_stdio_output@@V?$standard_base@DV?$string_output_adapter@D@__crt_stdio_output@@@2@@__crt_stdio_output@@AEAA_NXZ 00000001801721b4 f i libucrt:output.obj
 0001:001711c0       ?type_case_u@?$output_processor@_WV?$stream_output_adapter@_W@__crt_stdio_output@@V?$format_validation_base@_WV?$stream_output_adapter@_W@__crt_stdio_output@@@2@@__crt_stdio_output@@AEAA_NXZ 00000001801721c0 f i libucrt:output.obj
 0001:001711cc       ?type_case_u@?$output_processor@_WV?$stream_output_adapter@_W@__crt_stdio_output@@V?$positional_parameter_base@_WV?$stream_output_adapter@_W@__crt_stdio_output@@@2@@__crt_stdio_output@@AEAA_NXZ 00000001801721cc f i libucrt:output.obj
 0001:001711d8       ?type_case_u@?$output_processor@_WV?$stream_output_adapter@_W@__crt_stdio_output@@V?$standard_base@_WV?$stream_output_adapter@_W@__crt_stdio_output@@@2@@__crt_stdio_output@@AEAA_NXZ 00000001801721d8 f i libucrt:output.obj
 0001:001711e4       ?type_case_u@?$output_processor@_WV?$string_output_adapter@_W@__crt_stdio_output@@V?$format_validation_base@_WV?$string_output_adapter@_W@__crt_stdio_output@@@2@@__crt_stdio_output@@AEAA_NXZ 00000001801721e4 f i libucrt:output.obj
 0001:001711f0       ?type_case_u@?$output_processor@_WV?$string_output_adapter@_W@__crt_stdio_output@@V?$positional_parameter_base@_WV?$string_output_adapter@_W@__crt_stdio_output@@@2@@__crt_stdio_output@@AEAA_NXZ 00000001801721f0 f i libucrt:output.obj
 0001:001711fc       ?type_case_u@?$output_processor@_WV?$string_output_adapter@_W@__crt_stdio_output@@V?$standard_base@_WV?$string_output_adapter@_W@__crt_stdio_output@@@2@@__crt_stdio_output@@AEAA_NXZ 00000001801721fc f i libucrt:output.obj
 0001:00171208       ?type_case_x@?$output_processor@DV?$stream_output_adapter@D@__crt_stdio_output@@V?$format_validation_base@DV?$stream_output_adapter@D@__crt_stdio_output@@@2@@__crt_stdio_output@@AEAA_NXZ 0000000180172208 f i libucrt:output.obj
 0001:00171214       ?type_case_x@?$output_processor@DV?$stream_output_adapter@D@__crt_stdio_output@@V?$positional_parameter_base@DV?$stream_output_adapter@D@__crt_stdio_output@@@2@@__crt_stdio_output@@AEAA_NXZ 0000000180172214 f i libucrt:output.obj
 0001:00171220       ?type_case_x@?$output_processor@DV?$stream_output_adapter@D@__crt_stdio_output@@V?$standard_base@DV?$stream_output_adapter@D@__crt_stdio_output@@@2@@__crt_stdio_output@@AEAA_NXZ 0000000180172220 f i libucrt:output.obj
 0001:0017122c       ?type_case_x@?$output_processor@DV?$string_output_adapter@D@__crt_stdio_output@@V?$format_validation_base@DV?$string_output_adapter@D@__crt_stdio_output@@@2@@__crt_stdio_output@@AEAA_NXZ 000000018017222c f i libucrt:output.obj
 0001:00171238       ?type_case_x@?$output_processor@DV?$string_output_adapter@D@__crt_stdio_output@@V?$positional_parameter_base@DV?$string_output_adapter@D@__crt_stdio_output@@@2@@__crt_stdio_output@@AEAA_NXZ 0000000180172238 f i libucrt:output.obj
 0001:00171244       ?type_case_x@?$output_processor@DV?$string_output_adapter@D@__crt_stdio_output@@V?$standard_base@DV?$string_output_adapter@D@__crt_stdio_output@@@2@@__crt_stdio_output@@AEAA_NXZ 0000000180172244 f i libucrt:output.obj
 0001:00171250       ?type_case_x@?$output_processor@_WV?$stream_output_adapter@_W@__crt_stdio_output@@V?$format_validation_base@_WV?$stream_output_adapter@_W@__crt_stdio_output@@@2@@__crt_stdio_output@@AEAA_NXZ 0000000180172250 f i libucrt:output.obj
 0001:0017125c       ?type_case_x@?$output_processor@_WV?$stream_output_adapter@_W@__crt_stdio_output@@V?$positional_parameter_base@_WV?$stream_output_adapter@_W@__crt_stdio_output@@@2@@__crt_stdio_output@@AEAA_NXZ 000000018017225c f i libucrt:output.obj
 0001:00171268       ?type_case_x@?$output_processor@_WV?$stream_output_adapter@_W@__crt_stdio_output@@V?$standard_base@_WV?$stream_output_adapter@_W@__crt_stdio_output@@@2@@__crt_stdio_output@@AEAA_NXZ 0000000180172268 f i libucrt:output.obj
 0001:00171274       ?type_case_x@?$output_processor@_WV?$string_output_adapter@_W@__crt_stdio_output@@V?$format_validation_base@_WV?$string_output_adapter@_W@__crt_stdio_output@@@2@@__crt_stdio_output@@AEAA_NXZ 0000000180172274 f i libucrt:output.obj
 0001:00171280       ?type_case_x@?$output_processor@_WV?$string_output_adapter@_W@__crt_stdio_output@@V?$positional_parameter_base@_WV?$string_output_adapter@_W@__crt_stdio_output@@@2@@__crt_stdio_output@@AEAA_NXZ 0000000180172280 f i libucrt:output.obj
 0001:0017128c       ?type_case_x@?$output_processor@_WV?$string_output_adapter@_W@__crt_stdio_output@@V?$standard_base@_WV?$string_output_adapter@_W@__crt_stdio_output@@@2@@__crt_stdio_output@@AEAA_NXZ 000000018017228c f i libucrt:output.obj
 0001:00171298       ?unset_flag@?$output_processor@DV?$stream_output_adapter@D@__crt_stdio_output@@V?$format_validation_base@DV?$stream_output_adapter@D@__crt_stdio_output@@@2@@__crt_stdio_output@@AEAAXI@Z 0000000180172298 f i libucrt:output.obj
 0001:001712a0       ?unset_flag@?$output_processor@DV?$stream_output_adapter@D@__crt_stdio_output@@V?$positional_parameter_base@DV?$stream_output_adapter@D@__crt_stdio_output@@@2@@__crt_stdio_output@@AEAAXI@Z 00000001801722a0 f i libucrt:output.obj
 0001:001712a8       ?unset_flag@?$output_processor@DV?$stream_output_adapter@D@__crt_stdio_output@@V?$standard_base@DV?$stream_output_adapter@D@__crt_stdio_output@@@2@@__crt_stdio_output@@AEAAXI@Z 00000001801722a8 f i libucrt:output.obj
 0001:001712b0       ?unset_flag@?$output_processor@DV?$string_output_adapter@D@__crt_stdio_output@@V?$format_validation_base@DV?$string_output_adapter@D@__crt_stdio_output@@@2@@__crt_stdio_output@@AEAAXI@Z 00000001801722b0 f i libucrt:output.obj
 0001:001712b8       ?unset_flag@?$output_processor@DV?$string_output_adapter@D@__crt_stdio_output@@V?$positional_parameter_base@DV?$string_output_adapter@D@__crt_stdio_output@@@2@@__crt_stdio_output@@AEAAXI@Z 00000001801722b8 f i libucrt:output.obj
 0001:001712c0       ?unset_flag@?$output_processor@DV?$string_output_adapter@D@__crt_stdio_output@@V?$standard_base@DV?$string_output_adapter@D@__crt_stdio_output@@@2@@__crt_stdio_output@@AEAAXI@Z 00000001801722c0 f i libucrt:output.obj
 0001:001712c8       ?unset_flag@?$output_processor@_WV?$stream_output_adapter@_W@__crt_stdio_output@@V?$format_validation_base@_WV?$stream_output_adapter@_W@__crt_stdio_output@@@2@@__crt_stdio_output@@AEAAXI@Z 00000001801722c8 f i libucrt:output.obj
 0001:001712d0       ?unset_flag@?$output_processor@_WV?$stream_output_adapter@_W@__crt_stdio_output@@V?$positional_parameter_base@_WV?$stream_output_adapter@_W@__crt_stdio_output@@@2@@__crt_stdio_output@@AEAAXI@Z 00000001801722d0 f i libucrt:output.obj
 0001:001712d8       ?unset_flag@?$output_processor@_WV?$stream_output_adapter@_W@__crt_stdio_output@@V?$standard_base@_WV?$stream_output_adapter@_W@__crt_stdio_output@@@2@@__crt_stdio_output@@AEAAXI@Z 00000001801722d8 f i libucrt:output.obj
 0001:001712e0       ?unset_flag@?$output_processor@_WV?$string_output_adapter@_W@__crt_stdio_output@@V?$format_validation_base@_WV?$string_output_adapter@_W@__crt_stdio_output@@@2@@__crt_stdio_output@@AEAAXI@Z 00000001801722e0 f i libucrt:output.obj
 0001:001712e8       ?unset_flag@?$output_processor@_WV?$string_output_adapter@_W@__crt_stdio_output@@V?$positional_parameter_base@_WV?$string_output_adapter@_W@__crt_stdio_output@@@2@@__crt_stdio_output@@AEAAXI@Z 00000001801722e8 f i libucrt:output.obj
 0001:001712f0       ?unset_flag@?$output_processor@_WV?$string_output_adapter@_W@__crt_stdio_output@@V?$standard_base@_WV?$string_output_adapter@_W@__crt_stdio_output@@@2@@__crt_stdio_output@@AEAAXI@Z 00000001801722f0 f i libucrt:output.obj
 0001:001712f8       ?update_field_width@?$positional_parameter_base@DV?$stream_output_adapter@D@__crt_stdio_output@@@__crt_stdio_output@@IEAA_NXZ 00000001801722f8 f i libucrt:output.obj
 0001:00171410       ?update_field_width@?$positional_parameter_base@DV?$string_output_adapter@D@__crt_stdio_output@@@__crt_stdio_output@@IEAA_NXZ 0000000180172410 f i libucrt:output.obj
 0001:00171528       ?update_field_width@?$positional_parameter_base@_WV?$stream_output_adapter@_W@__crt_stdio_output@@@__crt_stdio_output@@IEAA_NXZ 0000000180172528 f i libucrt:output.obj
 0001:00171640       ?update_field_width@?$positional_parameter_base@_WV?$string_output_adapter@_W@__crt_stdio_output@@@__crt_stdio_output@@IEAA_NXZ 0000000180172640 f i libucrt:output.obj
 0001:00171758       ?update_field_width@?$standard_base@DV?$stream_output_adapter@D@__crt_stdio_output@@@__crt_stdio_output@@IEAA_NXZ 0000000180172758 f i libucrt:output.obj
 0001:0017176c       ?update_field_width@?$standard_base@DV?$string_output_adapter@D@__crt_stdio_output@@@__crt_stdio_output@@IEAA_NXZ 000000018017276c f i libucrt:output.obj
 0001:00171780       ?update_field_width@?$standard_base@_WV?$stream_output_adapter@_W@__crt_stdio_output@@@__crt_stdio_output@@IEAA_NXZ 0000000180172780 f i libucrt:output.obj
 0001:00171794       ?update_field_width@?$standard_base@_WV?$string_output_adapter@_W@__crt_stdio_output@@@__crt_stdio_output@@IEAA_NXZ 0000000180172794 f i libucrt:output.obj
 0001:001717a8       ?update_precision@?$positional_parameter_base@DV?$stream_output_adapter@D@__crt_stdio_output@@@__crt_stdio_output@@IEAA_NXZ 00000001801727a8 f i libucrt:output.obj
 0001:001718c0       ?update_precision@?$positional_parameter_base@DV?$string_output_adapter@D@__crt_stdio_output@@@__crt_stdio_output@@IEAA_NXZ 00000001801728c0 f i libucrt:output.obj
 0001:001719d8       ?update_precision@?$positional_parameter_base@_WV?$stream_output_adapter@_W@__crt_stdio_output@@@__crt_stdio_output@@IEAA_NXZ 00000001801729d8 f i libucrt:output.obj
 0001:00171af0       ?update_precision@?$positional_parameter_base@_WV?$string_output_adapter@_W@__crt_stdio_output@@@__crt_stdio_output@@IEAA_NXZ 0000000180172af0 f i libucrt:output.obj
 0001:00171c08       ?update_precision@?$standard_base@DV?$stream_output_adapter@D@__crt_stdio_output@@@__crt_stdio_output@@IEAA_NXZ 0000000180172c08 f i libucrt:output.obj
 0001:00171c1c       ?update_precision@?$standard_base@DV?$string_output_adapter@D@__crt_stdio_output@@@__crt_stdio_output@@IEAA_NXZ 0000000180172c1c f i libucrt:output.obj
 0001:00171c30       ?update_precision@?$standard_base@_WV?$stream_output_adapter@_W@__crt_stdio_output@@@__crt_stdio_output@@IEAA_NXZ 0000000180172c30 f i libucrt:output.obj
 0001:00171c44       ?update_precision@?$standard_base@_WV?$string_output_adapter@_W@__crt_stdio_output@@@__crt_stdio_output@@IEAA_NXZ 0000000180172c44 f i libucrt:output.obj
 0001:00171c58       ?valid@__crt_stdio_stream@@QEBA_NXZ 0000000180172c58 f i libucrt:output.obj
 0001:00171c60       ?validate@?$stream_output_adapter@D@__crt_stdio_output@@QEBA_NXZ 0000000180172c60 f i libucrt:output.obj
 0001:00171c8c       ?validate@?$stream_output_adapter@_W@__crt_stdio_output@@QEBA_NXZ 0000000180172c8c f i libucrt:output.obj
 0001:00171cb4       ?validate@?$string_output_adapter@D@__crt_stdio_output@@QEBA_NXZ 0000000180172cb4 f i libucrt:output.obj
 0001:00171cdc       ?validate@?$string_output_adapter@_W@__crt_stdio_output@@QEBA_NXZ 0000000180172cdc f i libucrt:output.obj
 0001:00171d04       ?validate_and_store_parameter_data@?$positional_parameter_base@DV?$stream_output_adapter@D@__crt_stdio_output@@@__crt_stdio_output@@AEAA_NAEAUparameter_data@12@W4parameter_type@12@DW4length_modifier@2@@Z 0000000180172d04 f i libucrt:output.obj
 0001:00171d44       ?validate_and_store_parameter_data@?$positional_parameter_base@DV?$string_output_adapter@D@__crt_stdio_output@@@__crt_stdio_output@@AEAA_NAEAUparameter_data@12@W4parameter_type@12@DW4length_modifier@2@@Z 0000000180172d44 f i libucrt:output.obj
 0001:00171d84       ?validate_and_store_parameter_data@?$positional_parameter_base@_WV?$stream_output_adapter@_W@__crt_stdio_output@@@__crt_stdio_output@@AEAA_NAEAUparameter_data@12@W4parameter_type@12@_WW4length_modifier@2@@Z 0000000180172d84 f i libucrt:output.obj
 0001:00171dc4       ?validate_and_store_parameter_data@?$positional_parameter_base@_WV?$string_output_adapter@_W@__crt_stdio_output@@@__crt_stdio_output@@AEAA_NAEAUparameter_data@12@W4parameter_type@12@_WW4length_modifier@2@@Z 0000000180172dc4 f i libucrt:output.obj
 0001:00171e04       ?validate_and_update_state_at_beginning_of_format_character@?$positional_parameter_base@DV?$stream_output_adapter@D@__crt_stdio_output@@@__crt_stdio_output@@IEAA_NXZ 0000000180172e04 f i libucrt:output.obj
 0001:00171f10       ?validate_and_update_state_at_beginning_of_format_character@?$positional_parameter_base@DV?$string_output_adapter@D@__crt_stdio_output@@@__crt_stdio_output@@IEAA_NXZ 0000000180172f10 f i libucrt:output.obj
 0001:0017201c       ?validate_and_update_state_at_beginning_of_format_character@?$positional_parameter_base@_WV?$stream_output_adapter@_W@__crt_stdio_output@@@__crt_stdio_output@@IEAA_NXZ 000000018017301c f i libucrt:output.obj
 0001:00172130       ?validate_and_update_state_at_beginning_of_format_character@?$positional_parameter_base@_WV?$string_output_adapter@_W@__crt_stdio_output@@@__crt_stdio_output@@IEAA_NXZ 0000000180173130 f i libucrt:output.obj
 0001:00172244       ?validate_and_update_state_at_beginning_of_format_character@?$standard_base@DV?$stream_output_adapter@D@__crt_stdio_output@@@__crt_stdio_output@@IEAA_NXZ 0000000180173244 f i libucrt:output.obj
 0001:00172248       ?validate_and_update_state_at_beginning_of_format_character@?$standard_base@DV?$string_output_adapter@D@__crt_stdio_output@@@__crt_stdio_output@@IEAA_NXZ 0000000180173248 f i libucrt:output.obj
 0001:0017224c       ?validate_and_update_state_at_beginning_of_format_character@?$standard_base@_WV?$stream_output_adapter@_W@__crt_stdio_output@@@__crt_stdio_output@@IEAA_NXZ 000000018017324c f i libucrt:output.obj
 0001:00172250       ?validate_and_update_state_at_beginning_of_format_character@?$standard_base@_WV?$string_output_adapter@_W@__crt_stdio_output@@@__crt_stdio_output@@IEAA_NXZ 0000000180173250 f i libucrt:output.obj
 0001:00172254       ?validate_and_update_state_at_end_of_format_string@?$format_validation_base@DV?$stream_output_adapter@D@__crt_stdio_output@@@__crt_stdio_output@@IEBA_NXZ 0000000180173254 f i libucrt:output.obj
 0001:00172280       ?validate_and_update_state_at_end_of_format_string@?$format_validation_base@DV?$string_output_adapter@D@__crt_stdio_output@@@__crt_stdio_output@@IEBA_NXZ 0000000180173280 f i libucrt:output.obj
 0001:001722ac       ?validate_and_update_state_at_end_of_format_string@?$format_validation_base@_WV?$stream_output_adapter@_W@__crt_stdio_output@@@__crt_stdio_output@@IEBA_NXZ 00000001801732ac f i libucrt:output.obj
 0001:001722d8       ?validate_and_update_state_at_end_of_format_string@?$format_validation_base@_WV?$string_output_adapter@_W@__crt_stdio_output@@@__crt_stdio_output@@IEBA_NXZ 00000001801732d8 f i libucrt:output.obj
 0001:00172304       ?validate_and_update_state_at_end_of_format_string@?$positional_parameter_base@DV?$stream_output_adapter@D@__crt_stdio_output@@@__crt_stdio_output@@IEAA_NXZ 0000000180173304 f i libucrt:output.obj
 0001:001723a0       ?validate_and_update_state_at_end_of_format_string@?$positional_parameter_base@DV?$string_output_adapter@D@__crt_stdio_output@@@__crt_stdio_output@@IEAA_NXZ 00000001801733a0 f i libucrt:output.obj
 0001:0017243c       ?validate_and_update_state_at_end_of_format_string@?$positional_parameter_base@_WV?$stream_output_adapter@_W@__crt_stdio_output@@@__crt_stdio_output@@IEAA_NXZ 000000018017343c f i libucrt:output.obj
 0001:001724d8       ?validate_and_update_state_at_end_of_format_string@?$positional_parameter_base@_WV?$string_output_adapter@_W@__crt_stdio_output@@@__crt_stdio_output@@IEAA_NXZ 00000001801734d8 f i libucrt:output.obj
 0001:00172574       ?validate_and_update_state_at_end_of_format_string@?$standard_base@DV?$stream_output_adapter@D@__crt_stdio_output@@@__crt_stdio_output@@IEBA_NXZ 0000000180173574 f i libucrt:output.obj
 0001:00172578       ?validate_and_update_state_at_end_of_format_string@?$standard_base@DV?$string_output_adapter@D@__crt_stdio_output@@@__crt_stdio_output@@IEBA_NXZ 0000000180173578 f i libucrt:output.obj
 0001:0017257c       ?validate_and_update_state_at_end_of_format_string@?$standard_base@_WV?$stream_output_adapter@_W@__crt_stdio_output@@@__crt_stdio_output@@IEBA_NXZ 000000018017357c f i libucrt:output.obj
 0001:00172580       ?validate_and_update_state_at_end_of_format_string@?$standard_base@_WV?$string_output_adapter@_W@__crt_stdio_output@@@__crt_stdio_output@@IEBA_NXZ 0000000180173580 f i libucrt:output.obj
 0001:00172584       ?validate_state_for_type_case_a@?$positional_parameter_base@DV?$stream_output_adapter@D@__crt_stdio_output@@@__crt_stdio_output@@IEAA_NXZ 0000000180173584 f i libucrt:output.obj
 0001:00172620       ?validate_state_for_type_case_a@?$positional_parameter_base@DV?$string_output_adapter@D@__crt_stdio_output@@@__crt_stdio_output@@IEAA_NXZ 0000000180173620 f i libucrt:output.obj
 0001:001726bc       ?validate_state_for_type_case_a@?$positional_parameter_base@_WV?$stream_output_adapter@_W@__crt_stdio_output@@@__crt_stdio_output@@IEAA_NXZ 00000001801736bc f i libucrt:output.obj
 0001:0017275c       ?validate_state_for_type_case_a@?$positional_parameter_base@_WV?$string_output_adapter@_W@__crt_stdio_output@@@__crt_stdio_output@@IEAA_NXZ 000000018017375c f i libucrt:output.obj
 0001:001727fc       ?validate_state_for_type_case_a@?$standard_base@DV?$stream_output_adapter@D@__crt_stdio_output@@@__crt_stdio_output@@IEBA_NXZ 00000001801737fc f i libucrt:output.obj
 0001:00172800       ?validate_state_for_type_case_a@?$standard_base@DV?$string_output_adapter@D@__crt_stdio_output@@@__crt_stdio_output@@IEBA_NXZ 0000000180173800 f i libucrt:output.obj
 0001:00172804       ?validate_state_for_type_case_a@?$standard_base@_WV?$stream_output_adapter@_W@__crt_stdio_output@@@__crt_stdio_output@@IEBA_NXZ 0000000180173804 f i libucrt:output.obj
 0001:00172808       ?validate_state_for_type_case_a@?$standard_base@_WV?$string_output_adapter@_W@__crt_stdio_output@@@__crt_stdio_output@@IEBA_NXZ 0000000180173808 f i libucrt:output.obj
 0001:0017280c       ?validate_stream_is_ansi_if_required@?$__acrt_stdio_char_traits@D@@SA_NQEAU_iobuf@@@Z 000000018017380c f i libucrt:output.obj
 0001:001728a8       ?validate_stream_is_ansi_if_required@?$__acrt_stdio_char_traits@_W@@SA_NQEAU_iobuf@@@Z 00000001801738a8 f i libucrt:output.obj
 0001:001728ac       ?wide_null_string@?$output_processor@DV?$stream_output_adapter@D@__crt_stdio_output@@V?$format_validation_base@DV?$stream_output_adapter@D@__crt_stdio_output@@@2@@__crt_stdio_output@@CAPEA_WXZ 00000001801738ac f i libucrt:output.obj
 0001:001728b4       ?wide_null_string@?$output_processor@DV?$stream_output_adapter@D@__crt_stdio_output@@V?$positional_parameter_base@DV?$stream_output_adapter@D@__crt_stdio_output@@@2@@__crt_stdio_output@@CAPEA_WXZ 00000001801738b4 f i libucrt:output.obj
 0001:001728bc       ?wide_null_string@?$output_processor@DV?$stream_output_adapter@D@__crt_stdio_output@@V?$standard_base@DV?$stream_output_adapter@D@__crt_stdio_output@@@2@@__crt_stdio_output@@CAPEA_WXZ 00000001801738bc f i libucrt:output.obj
 0001:001728c4       ?wide_null_string@?$output_processor@DV?$string_output_adapter@D@__crt_stdio_output@@V?$format_validation_base@DV?$string_output_adapter@D@__crt_stdio_output@@@2@@__crt_stdio_output@@CAPEA_WXZ 00000001801738c4 f i libucrt:output.obj
 0001:001728cc       ?wide_null_string@?$output_processor@DV?$string_output_adapter@D@__crt_stdio_output@@V?$positional_parameter_base@DV?$string_output_adapter@D@__crt_stdio_output@@@2@@__crt_stdio_output@@CAPEA_WXZ 00000001801738cc f i libucrt:output.obj
 0001:001728d4       ?wide_null_string@?$output_processor@DV?$string_output_adapter@D@__crt_stdio_output@@V?$standard_base@DV?$string_output_adapter@D@__crt_stdio_output@@@2@@__crt_stdio_output@@CAPEA_WXZ 00000001801738d4 f i libucrt:output.obj
 0001:001728dc       ?wide_null_string@?$output_processor@_WV?$stream_output_adapter@_W@__crt_stdio_output@@V?$format_validation_base@_WV?$stream_output_adapter@_W@__crt_stdio_output@@@2@@__crt_stdio_output@@CAPEA_WXZ 00000001801738dc f i libucrt:output.obj
 0001:001728e4       ?wide_null_string@?$output_processor@_WV?$stream_output_adapter@_W@__crt_stdio_output@@V?$positional_parameter_base@_WV?$stream_output_adapter@_W@__crt_stdio_output@@@2@@__crt_stdio_output@@CAPEA_WXZ 00000001801738e4 f i libucrt:output.obj
 0001:001728ec       ?wide_null_string@?$output_processor@_WV?$stream_output_adapter@_W@__crt_stdio_output@@V?$standard_base@_WV?$stream_output_adapter@_W@__crt_stdio_output@@@2@@__crt_stdio_output@@CAPEA_WXZ 00000001801738ec f i libucrt:output.obj
 0001:001728f4       ?wide_null_string@?$output_processor@_WV?$string_output_adapter@_W@__crt_stdio_output@@V?$format_validation_base@_WV?$string_output_adapter@_W@__crt_stdio_output@@@2@@__crt_stdio_output@@CAPEA_WXZ 00000001801738f4 f i libucrt:output.obj
 0001:001728fc       ?wide_null_string@?$output_processor@_WV?$string_output_adapter@_W@__crt_stdio_output@@V?$positional_parameter_base@_WV?$string_output_adapter@_W@__crt_stdio_output@@@2@@__crt_stdio_output@@CAPEA_WXZ 00000001801738fc f i libucrt:output.obj
 0001:00172904       ?wide_null_string@?$output_processor@_WV?$string_output_adapter@_W@__crt_stdio_output@@V?$standard_base@_WV?$string_output_adapter@_W@__crt_stdio_output@@@2@@__crt_stdio_output@@CAPEA_WXZ 0000000180173904 f i libucrt:output.obj
 0001:0017290c       ?write_character@?$output_adapter_common@DV?$stream_output_adapter@D@__crt_stdio_output@@@__crt_stdio_output@@QEBAXDQEAH@Z 000000018017390c f i libucrt:output.obj
 0001:00172954       ?write_character@?$output_adapter_common@_WV?$stream_output_adapter@_W@__crt_stdio_output@@@__crt_stdio_output@@QEBAX_WQEAH@Z 0000000180173954 f i libucrt:output.obj
 0001:001729a0       ?write_character@?$string_output_adapter@D@__crt_stdio_output@@QEBA_NDQEAH@Z 00000001801739a0 f i libucrt:output.obj
 0001:001729e8       ?write_character@?$string_output_adapter@_W@__crt_stdio_output@@QEBA_N_WQEAH@Z 00000001801739e8 f i libucrt:output.obj
 0001:00172a30       ?write_character_without_count_update@?$stream_output_adapter@D@__crt_stdio_output@@QEBA_ND@Z 0000000180173a30 f i libucrt:output.obj
 0001:00172a70       ?write_character_without_count_update@?$stream_output_adapter@_W@__crt_stdio_output@@QEBA_N_W@Z 0000000180173a70 f i libucrt:output.obj
 0001:00172ab0       ?write_stored_string_tchar@?$output_processor@DV?$stream_output_adapter@D@__crt_stdio_output@@V?$format_validation_base@DV?$stream_output_adapter@D@__crt_stdio_output@@@2@@__crt_stdio_output@@AEAA_ND@Z 0000000180173ab0 f i libucrt:output.obj
 0001:00172bd4       ?write_stored_string_tchar@?$output_processor@DV?$stream_output_adapter@D@__crt_stdio_output@@V?$positional_parameter_base@DV?$stream_output_adapter@D@__crt_stdio_output@@@2@@__crt_stdio_output@@AEAA_ND@Z 0000000180173bd4 f i libucrt:output.obj
 0001:00172cf8       ?write_stored_string_tchar@?$output_processor@DV?$stream_output_adapter@D@__crt_stdio_output@@V?$standard_base@DV?$stream_output_adapter@D@__crt_stdio_output@@@2@@__crt_stdio_output@@AEAA_ND@Z 0000000180173cf8 f i libucrt:output.obj
 0001:00172e1c       ?write_stored_string_tchar@?$output_processor@DV?$string_output_adapter@D@__crt_stdio_output@@V?$format_validation_base@DV?$string_output_adapter@D@__crt_stdio_output@@@2@@__crt_stdio_output@@AEAA_ND@Z 0000000180173e1c f i libucrt:output.obj
 0001:00172ef8       ?write_stored_string_tchar@?$output_processor@DV?$string_output_adapter@D@__crt_stdio_output@@V?$positional_parameter_base@DV?$string_output_adapter@D@__crt_stdio_output@@@2@@__crt_stdio_output@@AEAA_ND@Z 0000000180173ef8 f i libucrt:output.obj
 0001:00172fd4       ?write_stored_string_tchar@?$output_processor@DV?$string_output_adapter@D@__crt_stdio_output@@V?$standard_base@DV?$string_output_adapter@D@__crt_stdio_output@@@2@@__crt_stdio_output@@AEAA_ND@Z 0000000180173fd4 f i libucrt:output.obj
 0001:001730b0       ?write_stored_string_tchar@?$output_processor@_WV?$stream_output_adapter@_W@__crt_stdio_output@@V?$format_validation_base@_WV?$stream_output_adapter@_W@__crt_stdio_output@@@2@@__crt_stdio_output@@AEAA_N_W@Z 00000001801740b0 f i libucrt:output.obj
 0001:001731b4       ?write_stored_string_tchar@?$output_processor@_WV?$stream_output_adapter@_W@__crt_stdio_output@@V?$positional_parameter_base@_WV?$stream_output_adapter@_W@__crt_stdio_output@@@2@@__crt_stdio_output@@AEAA_N_W@Z 00000001801741b4 f i libucrt:output.obj
 0001:001732b8       ?write_stored_string_tchar@?$output_processor@_WV?$stream_output_adapter@_W@__crt_stdio_output@@V?$standard_base@_WV?$stream_output_adapter@_W@__crt_stdio_output@@@2@@__crt_stdio_output@@AEAA_N_W@Z 00000001801742b8 f i libucrt:output.obj
 0001:001733bc       ?write_stored_string_tchar@?$output_processor@_WV?$string_output_adapter@_W@__crt_stdio_output@@V?$format_validation_base@_WV?$string_output_adapter@_W@__crt_stdio_output@@@2@@__crt_stdio_output@@AEAA_N_W@Z 00000001801743bc f i libucrt:output.obj
 0001:001734a4       ?write_stored_string_tchar@?$output_processor@_WV?$string_output_adapter@_W@__crt_stdio_output@@V?$positional_parameter_base@_WV?$string_output_adapter@_W@__crt_stdio_output@@@2@@__crt_stdio_output@@AEAA_N_W@Z 00000001801744a4 f i libucrt:output.obj
 0001:0017358c       ?write_stored_string_tchar@?$output_processor@_WV?$string_output_adapter@_W@__crt_stdio_output@@V?$standard_base@_WV?$string_output_adapter@_W@__crt_stdio_output@@@2@@__crt_stdio_output@@AEAA_N_W@Z 000000018017458c f i libucrt:output.obj
 0001:00173674       ?write_string@?$stream_output_adapter@D@__crt_stdio_output@@QEBAXQEBDHQEAHAEAV__crt_deferred_errno_cache@@@Z 0000000180174674 f i libucrt:output.obj
 0001:00173698       ?write_string@?$stream_output_adapter@_W@__crt_stdio_output@@QEBAXQEB_WHQEAHAEAV__crt_deferred_errno_cache@@@Z 0000000180174698 f i libucrt:output.obj
 0001:001736bc       ?write_string@?$string_output_adapter@D@__crt_stdio_output@@QEBAXQEBDHQEAHAEAV__crt_deferred_errno_cache@@@Z 00000001801746bc f i libucrt:output.obj
 0001:00173760       ?write_string@?$string_output_adapter@_W@__crt_stdio_output@@QEBAXQEB_WHQEAHAEAV__crt_deferred_errno_cache@@@Z 0000000180174760 f i libucrt:output.obj
 0001:00173808       ?write_string_impl@?$output_adapter_common@DV?$stream_output_adapter@D@__crt_stdio_output@@@__crt_stdio_output@@IEBAXQEBDHQEAHAEAV__crt_deferred_errno_cache@@@Z 0000000180174808 f i libucrt:output.obj
 0001:00173900       ?write_string_impl@?$output_adapter_common@_WV?$stream_output_adapter@_W@__crt_stdio_output@@@__crt_stdio_output@@IEBAXQEB_WHQEAHAEAV__crt_deferred_errno_cache@@@Z 0000000180174900 f i libucrt:output.obj
 0001:00173a00       __acrt_disable_global_locale_sync 0000000180174a00 f i libucrt:output.obj
 0001:00173a08       __acrt_enable_global_locale_sync 0000000180174a08 f i libucrt:output.obj
 0001:00173a14       __acrt_isleadbyte_l_noupdate 0000000180174a14 f i libucrt:output.obj
 0001:00173a38       __acrt_locale_changed      0000000180174a38 f i libucrt:output.obj
 0001:00173a44       __acrt_locale_get_ctype_array_value 0000000180174a44 f i libucrt:output.obj
 0001:00173a5c       __stdio_common_vfprintf    0000000180174a5c f   libucrt:output.obj
 0001:00173ae8       __stdio_common_vfprintf_p  0000000180174ae8 f   libucrt:output.obj
 0001:00173b74       __stdio_common_vfprintf_s  0000000180174b74 f   libucrt:output.obj
 0001:00173c00       __stdio_common_vfwprintf   0000000180174c00 f   libucrt:output.obj
 0001:00173c8c       __stdio_common_vfwprintf_p 0000000180174c8c f   libucrt:output.obj
 0001:00173d18       __stdio_common_vfwprintf_s 0000000180174d18 f   libucrt:output.obj
 0001:00173da4       __stdio_common_vsnprintf_s 0000000180174da4 f   libucrt:output.obj
 0001:00173ef0       __stdio_common_vsnwprintf_s 0000000180174ef0 f   libucrt:output.obj
 0001:0017404c       __stdio_common_vsprintf    000000018017504c f   libucrt:output.obj
 0001:00174054       __stdio_common_vsprintf_p  0000000180175054 f   libucrt:output.obj
 0001:0017405c       __stdio_common_vsprintf_s  000000018017505c f   libucrt:output.obj
 0001:001740c0       __stdio_common_vswprintf   00000001801750c0 f   libucrt:output.obj
 0001:001740c8       __stdio_common_vswprintf_p 00000001801750c8 f   libucrt:output.obj
 0001:001740d0       __stdio_common_vswprintf_s 00000001801750d0 f   libucrt:output.obj
 0001:00174140       _ctype_fast_check_internal 0000000180175140 f i libucrt:output.obj
 0001:00174154       _isdigit_fast_internal     0000000180175154 f i libucrt:output.obj
