 PhysXCooking_64

 Timestamp is 6429d376 (Sun Apr  2 20:11:50 2023)

 Preferred load address is 0000000180000000

 Start         Length     Name                   Class
 0001:00000000 000003c0H .text$di                CODE
 0001:000003c0 000444c0H .text$mn                CODE
 0001:00044880 00000040H .text$mn$00             CODE
 0001:000448c0 000004b0H .text$x                 CODE
 0002:00000000 00000258H .idata$5                DATA
 0002:00000258 00000038H .00cfg                  DATA
 0002:00000290 00000008H .CRT$XCA                DATA
 0002:00000298 000001e0H .CRT$XCU                DATA
 0002:00000478 00000008H .CRT$XCZ                DATA
 0002:00000480 00000008H .CRT$XIA                DATA
 0002:00000488 00000018H .CRT$XIC                DATA
 0002:000004a0 00000008H .CRT$XIZ                DATA
 0002:000004a8 00000008H .CRT$XPA                DATA
 0002:000004b0 00000010H .CRT$XPX                DATA
 0002:000004c0 00000008H .CRT$XPXA               DATA
 0002:000004c8 00000008H .CRT$XPZ                DATA
 0002:000004d0 00000008H .CRT$XTA                DATA
 0002:000004d8 00000008H .CRT$XTZ                DATA
 0002:000004e0 00000000H .gehcont$y              DATA
 0002:000004e0 00000000H .gfids$y                DATA
 0002:000004e0 0000b9a0H .rdata                  DATA
 0002:0000be80 00000000H .rdata$CastGuardVftablesA DATA
 0002:0000be80 00000000H .rdata$CastGuardVftablesC DATA
 0002:0000be80 0000043cH .rdata$r                DATA
 0002:0000c2bc 00000150H .rdata$voltmd           DATA
 0002:0000c40c 0000041cH .rdata$zzzdbg           DATA
 0002:0000c828 00000008H .rtc$IAA                DATA
 0002:0000c830 00000008H .rtc$IZZ                DATA
 0002:0000c838 00000008H .rtc$TAA                DATA
 0002:0000c840 00000008H .rtc$TZZ                DATA
 0002:0000c848 00003f98H .xdata                  DATA
 0002:000107e0 00000084H .xdata$x                DATA
 0002:00010864 00000040H .didat$2                DATA
 0002:000108a4 00000024H .didat$3                DATA
 0002:000108c8 00000188H .didat$4                DATA
 0002:00010a50 00000950H .didat$6                DATA
 0002:000113a0 00000190H .didat$7                DATA
 0002:00011530 00001d00H .edata                  DATA
 0002:00013230 00000014H .idata$2                DATA
 0002:00013244 00000014H .idata$3                DATA
 0002:00013258 00000258H .idata$4                DATA
 0002:000134b0 0000057cH .idata$6                DATA
 0003:00000000 00000a30H .data                   DATA
 0003:00000a30 000005e8H .data$r                 DATA
 0003:00001018 000000f0H .data$rs                DATA
 0003:00001108 00000188H .didat$5                DATA
 0003:00001290 000015d0H .bss                    DATA
 0004:00000000 00003444H .pdata                  DATA
 0005:00000000 0000236cH _RDATA                  DATA
 0006:00000000 000000a0H .rsrc$01                DATA
 0006:000000a0 000004b0H .rsrc$02                DATA

  Address         Publics by Value              Rva+Base               Lib:Object

 0000:00000000       __AbsoluteZero             0000000000000000     <absolute>
 0000:00000000       ___safe_se_handler_count   0000000000000000     <absolute>
 0000:00000000       ___safe_se_handler_table   0000000000000000     <absolute>
 0000:00000000       __arm64x_extra_rfe_table   0000000000000000     <absolute>
 0000:00000000       __arm64x_extra_rfe_table_size 0000000000000000     <absolute>
 0000:00000000       __arm64x_native_entrypoint 0000000000000000     <absolute>
 0000:00000000       __arm64x_redirection_metadata 0000000000000000     <absolute>
 0000:00000000       __arm64x_redirection_metadata_count 0000000000000000     <absolute>
 0000:00000000       __dynamic_value_reloc_table 0000000000000000     <absolute>
 0000:00000000       __enclave_config           0000000000000000     <absolute>
 0000:00000000       __guard_check_icall_a64n_fptr 0000000000000000     <absolute>
 0000:00000000       __guard_eh_cont_count      0000000000000000     <absolute>
 0000:00000000       __guard_eh_cont_table      0000000000000000     <absolute>
 0000:00000000       __guard_fids_count         0000000000000000     <absolute>
 0000:00000000       __guard_fids_table         0000000000000000     <absolute>
 0000:00000000       __guard_iat_count          0000000000000000     <absolute>
 0000:00000000       __guard_iat_table          0000000000000000     <absolute>
 0000:00000000       __guard_longjmp_count      0000000000000000     <absolute>
 0000:00000000       __guard_longjmp_table      0000000000000000     <absolute>
 0000:00000000       __hybrid_auxiliary_iat     0000000000000000     <absolute>
 0000:00000000       __hybrid_auxiliary_iat_copy 0000000000000000     <absolute>
 0000:00000000       __hybrid_code_map          0000000000000000     <absolute>
 0000:00000000       __hybrid_code_map_count    0000000000000000     <absolute>
 0000:00000000       __x64_code_ranges_to_entry_points 0000000000000000     <absolute>
 0000:00000000       __x64_code_ranges_to_entry_points_count 0000000000000000     <absolute>
 0000:00000100       __guard_flags              0000000000000100     <absolute>
 0000:00000000       __ImageBase                0000000180000000     <linker-defined>
 0001:000003c0       ??$?_UV?$ReflectionAllocator@VAdjTriangle@physx@@@shdfnd@physx@@@UserAllocated@shdfnd@physx@@SAPEAX_KV?$ReflectionAllocator@VAdjTriangle@physx@@@12@PEBDH@Z 00000001800013c0 f i Adjacencies.obj
 0001:00000460       ??0AdjacenciesBuilder@physx@@QEAA@XZ 0000000180001460 f   Adjacencies.obj
 0001:00000470       ??$forward@_K@std@@YA$$QEA_KAEA_K@Z 0000000180001470 f i libvcruntime:undname.obj
 0001:00000470       ??0AABBTreeBuildNode@Gu@physx@@QEAA@XZ 0000000180001470 f i BVHStructureBuilder.obj
 0001:00000470       ??0Allocator@shdfnd@physx@@QEAA@PEBD@Z 0000000180001470 f i Adjacencies.obj
 0001:00000470       ??0BigConvexData@physx@@QEAA@W4PxEMPTY@1@@Z 0000000180001470 f i BigConvexDataBuilder.obj
 0001:00000470       ??0Box@Gu@physx@@QEAA@XZ   0000000180001470 f i ConvexHullUtils.obj
 0001:00000470       ??0HeightFieldData@Gu@physx@@QEAA@W4PxEMPTY@2@@Z 0000000180001470 f i Cooking.obj
 0001:00000470       ??4Allocator@shdfnd@physx@@QEAAAEAV012@$$QEAV012@@Z 0000000180001470 f i Adjacencies.obj
 0001:00000470       ??4Allocator@shdfnd@physx@@QEAAAEAV012@AEBV012@@Z 0000000180001470 f i Adjacencies.obj
 0001:00000470       ??4MutexImpl@shdfnd@physx@@QEAAAEAV012@AEBV012@@Z 0000000180001470 f i Adjacencies.obj
 0001:00000470       ??4PxFoundation@physx@@QEAAAEAV01@AEBV01@@Z 0000000180001470 f i Adjacencies.obj
 0001:00000470       ?getAABB@AABBTreeBuildNode@Gu@physx@@QEBAAEBVPxBounds3@3@XZ 0000000180001470 f i BVHStructureBuilder.obj
 0001:00000470       ?getPaddedBounds@HeightFieldData@Gu@physx@@QEBAAEBVCenterExtentsPadded@23@XZ 0000000180001470 f i Cooking.obj
 0001:00000480       ??0PxFoundation@physx@@QEAA@AEBV01@@Z 0000000180001480 f i Adjacencies.obj
 0001:00000480       ??0PxFoundation@physx@@QEAA@XZ 0000000180001480 f i Adjacencies.obj
 0001:00000490       ??1Adjacencies@physx@@QEAA@XZ 0000000180001490 f   Adjacencies.obj
 0001:00000500       ??1AdjacenciesBuilder@physx@@QEAA@XZ 0000000180001500 f   Adjacencies.obj
 0001:00000510       ??1PxFoundation@physx@@MEAA@XZ 0000000180001510 f i Adjacencies.obj
 0001:00000520       ??_EPxFoundation@physx@@MEAAPEAXI@Z 0000000180001520 f i Adjacencies.obj
 0001:000005b0       ??1AABBTreeBuildNode@Gu@physx@@QEAA@XZ 00000001800015b0 f i BVHStructureBuilder.obj
 0001:000005b0       ??1BigConvexDataBuilder@physx@@QEAA@XZ 00000001800015b0 f i BigConvexDataBuilder.obj
 0001:000005b0       ??1Box@Gu@physx@@QEAA@XZ   00000001800015b0 f i ConvexHullUtils.obj
 0001:000005b0       ??1HeightFieldData@Gu@physx@@QEAA@XZ 00000001800015b0 f i Cooking.obj
 0001:000005b0       ??_FAllocator@shdfnd@physx@@QEAAXXZ 00000001800015b0 f i Adjacencies.obj
 0001:000005b0       ?onMeshIndexFormatChange@TriangleMeshBuilder@physx@@UEAAXXZ 00000001800015b0 f i TriangleMeshBuilder.obj
 0001:000005b0       _guard_check_icall_nop     00000001800015b0 f i LIBCMT:guard_support.obj
 0001:000006c0       ?ComputeNbBoundaryEdges@Adjacencies@physx@@QEBAIXZ 00000001800016c0 f   Adjacencies.obj
 0001:000009a0       ?GetNbHits@RadixSort@Cm@physx@@QEBAIXZ 00000001800019a0 f i Adjacencies.obj
 0001:000009b0       ?GetNbTotalCalls@RadixSort@Cm@physx@@QEBAIXZ 00000001800019b0 f i Adjacencies.obj
 0001:000009c0       ?GetRanks@RadixSort@Cm@physx@@QEBAPEBIXZ 00000001800019c0 f i Adjacencies.obj
 0001:000009c0       ?getErrorCallback@Foundation@shdfnd@physx@@UEAAAEAVPxErrorCallback@3@XZ 00000001800019c0 f i Adjacencies.obj
 0001:000009d0       ?GetRecyclable@RadixSort@Cm@physx@@QEBAPEAIXZ 00000001800019d0 f i Adjacencies.obj
 0001:000009d0       ?GetValencies@BigConvexData@physx@@QEBAPEBUValency@Gu@2@XZ 00000001800019d0 f i BigConvexDataBuilder.obj
 0001:000009d0       ?getPos@AABBTreeBuildNode@Gu@physx@@QEBAPEBV123@XZ 00000001800019d0 f i BVHStructureBuilder.obj
 0001:000009e0       ?Init@AdjacenciesBuilder@physx@@QEAA_NAEBUADJACENCIESCREATE@2@@Z 00000001800019e0 f   Adjacencies.obj
 0001:00000f20       ?getAllocator@Foundation@shdfnd@physx@@QEAAAEAVPxAllocatorCallback@3@XZ 0000000180001f20 f i Adjacencies.obj
 0001:00000f30       ?getAllocatorCallback@Foundation@shdfnd@physx@@UEAAAEAVPxAllocatorCallback@3@XZ 0000000180001f30 f i Adjacencies.obj
 0001:00000f40       ?getErrorLevel@Foundation@shdfnd@physx@@UEBA?AW4Enum@PxErrorCode@3@XZ 0000000180001f40 f i Adjacencies.obj
 0001:00000f50       ?getInternalErrorCallback@Foundation@shdfnd@physx@@QEAAAEAVPxErrorCallback@3@XZ 0000000180001f50 f i Adjacencies.obj
 0001:00000f60       ?getNamedAllocMap@Foundation@shdfnd@physx@@QEAAAEAV?$HashMap@PEBVNamedAllocator@shdfnd@physx@@PEBDU?$Hash@PEBVNamedAllocator@shdfnd@physx@@@23@VNonTrackingAllocator@23@@23@XZ 0000000180001f60 f i Adjacencies.obj
 0001:00000f70       ?getNamedAllocMutex@Foundation@shdfnd@physx@@QEAAAEAV?$MutexT@VAllocator@shdfnd@physx@@@23@XZ 0000000180001f70 f i Adjacencies.obj
 0001:00000f80       ?getReportAllocationNames@Foundation@shdfnd@physx@@UEBA_NXZ 0000000180001f80 f i Adjacencies.obj
 0001:00000f90       ?getTempAllocFreeTable@Foundation@shdfnd@physx@@QEAAAEAV?$Array@PEATTempAllocatorChunk@shdfnd@physx@@VAllocator@23@@23@XZ 0000000180001f90 f i Adjacencies.obj
 0001:00000fa0       ?getTempAllocMutex@Foundation@shdfnd@physx@@QEAAAEAV?$MutexT@VAllocator@shdfnd@physx@@@23@XZ 0000000180001fa0 f i Adjacencies.obj
 0001:00000fb0       ?invalidateRanks@RadixSort@Cm@physx@@QEAAXXZ 0000000180001fb0 f i Adjacencies.obj
 0001:00000fc0       ?setErrorLevel@Foundation@shdfnd@physx@@UEAAXW4Enum@PxErrorCode@3@@Z 0000000180001fc0 f i Adjacencies.obj
 0001:00000fd0       ?setReportAllocationNames@Foundation@shdfnd@physx@@UEAAX_N@Z 0000000180001fd0 f i Adjacencies.obj
 0001:00000fe0       ??0DebugText@Cm@physx@@QEAA@$$QEAU012@@Z 0000000180001fe0 f i Cooking.obj
 0001:00000fe0       ??0DebugText@Cm@physx@@QEAA@AEBU012@@Z 0000000180001fe0 f i Cooking.obj
 0001:000010c0       ??0HeightFieldData@Gu@physx@@QEAA@$$QEAU012@@Z 00000001800020c0 f i Cooking.obj
 0001:000010c0       ??0HeightFieldData@Gu@physx@@QEAA@AEBU012@@Z 00000001800020c0 f i Cooking.obj
 0001:000010c0       ??4HeightFieldData@Gu@physx@@QEAAAEAU012@$$QEAU012@@Z 00000001800020c0 f i Cooking.obj
 0001:000010c0       ??4HeightFieldData@Gu@physx@@QEAAAEAU012@AEBU012@@Z 00000001800020c0 f i Cooking.obj
 0001:00001120       ??0HeightFieldData@Gu@physx@@QEAA@XZ 0000000180002120 f i Cooking.obj
 0001:00001130       ??0RenderOutput@Cm@physx@@QEAA@AEAVRenderBuffer@12@@Z 0000000180002130 f i Cooking.obj
 0001:00001180       ??0RenderOutput@Cm@physx@@QEAA@AEBV012@@Z 0000000180002180 f i Cooking.obj
 0001:00001220       ??1PxConvexMesh@physx@@MEAA@XZ 0000000180002220 f i Cooking.obj
 0001:00001220       ??1PxHeightField@physx@@MEAA@XZ 0000000180002220 f i Cooking.obj
 0001:00001230       ??4DebugText@Cm@physx@@QEAAAEAU012@$$QEAU012@@Z 0000000180002230 f i Cooking.obj
 0001:00001230       ??4DebugText@Cm@physx@@QEAAAEAU012@AEBU012@@Z 0000000180002230 f i Cooking.obj
 0001:00001360       ??4FPUGuard@shdfnd@physx@@QEAAAEAV012@AEBV012@@Z 0000000180002360 f i Cooking.obj
 0001:00001380       ??_ECooking@physx@@UEAAPEAXI@Z 0000000180002380 f i Cooking.obj
 0001:00001380       ??_GCooking@physx@@UEAAPEAXI@Z 0000000180002380 f i Cooking.obj
 0001:000013d0       ??_EPxBase@physx@@MEAAPEAXI@Z 00000001800023d0 f i Cooking.obj
 0001:000013d0       ??_GPxBase@physx@@MEAAPEAXI@Z 00000001800023d0 f i Cooking.obj
 0001:00001400       ??_EPxCooking@physx@@MEAAPEAXI@Z 0000000180002400 f i Cooking.obj
 0001:00001400       ??_GPxCooking@physx@@MEAAPEAXI@Z 0000000180002400 f i Cooking.obj
 0001:00001430       ?allocate@?$Array@UPxDebugLine@physx@@V?$ReflectionAllocator@UPxDebugLine@physx@@@shdfnd@2@@shdfnd@physx@@IEAAPEAUPxDebugLine@3@I@Z 0000000180002430 f i Cooking.obj
 0001:000014d0       ?computeHullPolygons@Cooking@physx@@UEBA_NAEBVPxSimpleTriangleMesh@2@AEAVPxAllocatorCallback@2@AEAIAEAPEAVPxVec3@2@2AEAPEAI2AEAPEAUPxHullPolygon@2@@Z 00000001800024d0 f   Cooking.obj
 0001:000016b0       ?cookBVHStructure@Cooking@physx@@UEBA_NAEBVPxBVHStructureDesc@2@AEAVPxOutputStream@2@@Z 00000001800026b0 f   Cooking.obj
 0001:00001760       ?cookConvexMesh@Cooking@physx@@UEBA_NAEBVPxConvexMeshDesc@2@AEAVPxOutputStream@2@PEAW4Enum@PxConvexMeshCookingResult@2@@Z 0000000180002760 f   Cooking.obj
 0001:00001940       ?cookConvexMeshInternal@Cooking@physx@@AEBA_NAEBVPxConvexMeshDesc@2@AEAVConvexMeshBuilder@2@PEAVConvexHullLib@2@PEAW4Enum@PxConvexMeshCookingResult@2@@Z 0000000180002940 f   Cooking.obj
 0001:00001bb0       ?cookHeightField@Cooking@physx@@UEBA_NAEBVPxHeightFieldDesc@2@AEAVPxOutputStream@2@@Z 0000000180002bb0 f   Cooking.obj
 0001:00001c80       ?cookTriangleMesh@Cooking@physx@@UEBA_NAEBVPxTriangleMeshDesc@2@AEAVPxOutputStream@2@PEAW4Enum@PxTriangleMeshCookingResult@2@@Z 0000000180002c80 f   Cooking.obj
 0001:00001dc0       ?copy@?$Array@UPxDebugLine@physx@@V?$ReflectionAllocator@UPxDebugLine@physx@@@shdfnd@2@@shdfnd@physx@@KAXPEAUPxDebugLine@3@0PEBU43@@Z 0000000180002dc0 f i Cooking.obj
 0001:00001f70       ?createBVHStructure@Cooking@physx@@UEBAPEAVPxBVHStructure@2@AEBVPxBVHStructureDesc@2@AEAVPxPhysicsInsertionCallback@2@@Z 0000000180002f70 f   Cooking.obj
 0001:00002020       ?createConvexMesh@Cooking@physx@@UEBAPEAVPxConvexMesh@2@AEBVPxConvexMeshDesc@2@AEAVPxPhysicsInsertionCallback@2@PEAW4Enum@PxConvexMeshCookingResult@2@@Z 0000000180003020 f   Cooking.obj
 0001:00002220       ?createHeightField@Cooking@physx@@UEBAPEAVPxHeightField@2@AEBVPxHeightFieldDesc@2@AEAVPxPhysicsInsertionCallback@2@@Z 0000000180003220 f   Cooking.obj
 0001:00002380       ?createTriangleMesh@Cooking@physx@@UEBAPEAVPxTriangleMesh@2@AEBVPxTriangleMeshDesc@2@AEAVPxPhysicsInsertionCallback@2@PEAW4Enum@PxTriangleMeshCookingResult@2@@Z 0000000180003380 f   Cooking.obj
 0001:000024d0       ?getConcreteTypeName@PxConvexMesh@physx@@UEBAPEBDXZ 00000001800034d0 f i Cooking.obj
 0001:000024e0       ?getConcreteTypeName@PxHeightField@physx@@UEBAPEBDXZ 00000001800034e0 f i Cooking.obj
 0001:000024f0       ?getConvexEdgeThreshold@HeightField@Gu@physx@@UEBAMXZ 00000001800034f0 f i Cooking.obj
 0001:00002500       ?getFlags@HeightField@Gu@physx@@UEBA?AV?$PxFlags@W4Enum@PxHeightFieldFlag@physx@@G@3@XZ 0000000180003500 f i Cooking.obj
 0001:00002510       ?getFormat@HeightField@Gu@physx@@UEBA?AW4Enum@PxHeightFieldFormat@3@XZ 0000000180003510 f i Cooking.obj
 0001:00002520       ?getHeight@HeightField@Gu@physx@@UEBAMMM@Z 0000000180003520 f i Cooking.obj
 0001:00002560       ?getHeightInternal2@HeightField@Gu@physx@@QEBAMIMM@Z 0000000180003560 f i Cooking.obj
 0001:000026d0       ?getIndexBuffer@ConvexMesh@Gu@physx@@UEBAPEBEXZ 00000001800036d0 f i Cooking.obj
 0001:00002710       ?getNbColumns@HeightField@Gu@physx@@UEBAIXZ 0000000180003710 f i Cooking.obj
 0001:00002720       ?getNbPolygons@ConvexMesh@Gu@physx@@UEBAIXZ 0000000180003720 f i Cooking.obj
 0001:00002730       ?getNbRows@HeightField@Gu@physx@@UEBAIXZ 0000000180003730 f i Cooking.obj
 0001:00002740       ?getNbVertices@ConvexMesh@Gu@physx@@UEBAIXZ 0000000180003740 f i Cooking.obj
 0001:00002750       ?getDenormalizeScale@QuantizerImpl@@UEBAAEBVPxVec3@physx@@XZ 0000000180003750 f   Quantizer.obj
 0001:00002750       ?getParams@Cooking@physx@@UEBAAEBUPxCookingParams@2@XZ 0000000180003750 f   Cooking.obj
 0001:00002760       ?getSample@HeightField@Gu@physx@@UEBAAEBUPxHeightFieldSample@3@II@Z 0000000180003760 f i Cooking.obj
 0001:00002770       ?getSampleStride@HeightField@Gu@physx@@UEBAIXZ 0000000180003770 f i Cooking.obj
 0001:00002780       ?getTimestamp@HeightField@Gu@physx@@UEBAIXZ 0000000180003780 f i Cooking.obj
 0001:00002790       ?getTriangleMaterialIndex@HeightField@Gu@physx@@UEBAGI@Z 0000000180003790 f i Cooking.obj
 0001:000027c0       ?getTriangleNormal@HeightField@Gu@physx@@UEBA?AVPxVec3@3@I@Z 00000001800037c0 f i Cooking.obj
 0001:000027e0       ?getTriangleNormalInternal@HeightField@Gu@physx@@QEBA?AVPxVec3@3@I@Z 00000001800037e0 f i Cooking.obj
 0001:00002930       ?getVertices@ConvexMesh@Gu@physx@@UEBAPEBVPxVec3@3@XZ 0000000180003930 f i Cooking.obj
 0001:00002950       ?isKindOf@PxBase@physx@@MEBA_NPEBD@Z 0000000180003950 f i Cooking.obj
 0001:00002980       ?isKindOf@PxConvexMesh@physx@@MEBA_NPEBD@Z 0000000180003980 f i Cooking.obj
 0001:000029d0       ?isKindOf@PxHeightField@physx@@MEBA_NPEBD@Z 00000001800039d0 f i Cooking.obj
 0001:00002a20       ?isReleasable@PxBase@physx@@UEBA_NXZ 0000000180003a20 f i Cooking.obj
 0001:00002a30       ?outputSegment@RenderOutput@Cm@physx@@QEAAXAEBVPxVec3@3@0@Z 0000000180003a30 f i Cooking.obj
 0001:00002af0       ?platformMismatch@Cooking@physx@@UEBA_NXZ 0000000180003af0 f   Cooking.obj
 0001:00002b00       ?preExportDataReset@ConvexMesh@Gu@physx@@QEAAXXZ 0000000180003b00 f i Cooking.obj
 0001:00002b00       ?preExportDataReset@HeightField@Gu@physx@@QEAAXXZ 0000000180003b00 f i Cooking.obj
 0001:00002b10       ?recreate@?$Array@UPxDebugLine@physx@@V?$ReflectionAllocator@UPxDebugLine@physx@@@shdfnd@2@@shdfnd@physx@@IEAAXI@Z 0000000180003b10 f i Cooking.obj
 0001:00002ba0       ?release@Cooking@physx@@UEAAXXZ 0000000180003ba0 f   Cooking.obj
 0001:00002bc0       ?reserveSegments@RenderOutput@Cm@physx@@QEAAPEAUPxDebugLine@3@I@Z 0000000180003bc0 f i Cooking.obj
 0001:00002c20       ?setParams@Cooking@physx@@UEAAXAEBUPxCookingParams@2@@Z 0000000180003c20 f   Cooking.obj
 0001:00002c80       ?validateConvexMesh@Cooking@physx@@UEBA_NAEBVPxConvexMeshDesc@2@@Z 0000000180003c80 f   Cooking.obj
 0001:00002ce0       ?validateTriangleMesh@Cooking@physx@@UEBA_NAEBVPxTriangleMeshDesc@2@@Z 0000000180003ce0 f   Cooking.obj
 0001:00002df0       PxCreateCooking            0000000180003df0 f   Cooking.obj
 0001:00002ee0       ??0ReducedVertexCloud@physx@@QEAA@PEBVPxVec3@1@I@Z 0000000180003ee0 f   CookingUtils.obj
 0001:00002f00       ??1ReducedVertexCloud@physx@@QEAA@XZ 0000000180003f00 f   CookingUtils.obj
 0001:00002f10       ?Clean@ReducedVertexCloud@physx@@QEAAAEAV12@XZ 0000000180003f10 f   CookingUtils.obj
 0001:00002f80       ?Reduce@ReducedVertexCloud@physx@@QEAA_NPEAUREDUCEDCLOUD@2@@Z 0000000180003f80 f   CookingUtils.obj
 0001:000032c0       ??$?_UI@@YAPEAX_KV?$ReflectionAllocator@I@shdfnd@physx@@PEBDH@Z 00000001800042c0 f i EdgeList.obj
 0001:00003360       ??0EdgeListBuilder@Gu@physx@@QEAA@XZ 0000000180004360 f   EdgeList.obj
 0001:00003380       ??1EdgeList@Gu@physx@@QEAA@XZ 0000000180004380 f   EdgeList.obj
 0001:00003420       ??1EdgeListBuilder@Gu@physx@@QEAA@XZ 0000000180004420 f   EdgeList.obj
 0001:00003430       ?computeActiveEdges@EdgeListBuilder@Gu@physx@@AEAA_NIPEBIPEBGPEBVPxVec3@3@M@Z 0000000180004430 f   EdgeList.obj
 0001:00004a40       ?createEdgesToFaces@EdgeListBuilder@Gu@physx@@AEAA_NIPEBIPEBG@Z 0000000180005a40 f   EdgeList.obj
 0001:00004ca0       ?createFacesToEdges@EdgeListBuilder@Gu@physx@@AEAA_NIPEBIPEBG@Z 0000000180005ca0 f   EdgeList.obj
 0001:000050e0       ?init@EdgeListBuilder@Gu@physx@@QEAA_NAEBUEDGELISTCREATE@23@@Z 00000001800060e0 f   EdgeList.obj
 0001:00005200       ??0MeshCleaner@physx@@QEAA@IPEBVPxVec3@1@IPEBIM@Z 0000000180006200 f   MeshCleaner.obj
 0001:00005b70       ??1MeshCleaner@physx@@QEAA@XZ 0000000180006b70 f   MeshCleaner.obj
 0001:00005c00       ??$kmeans_cluster@VPxVec3@physx@@M@@YAIPEBVPxVec3@physx@@IIPEAV01@PEAIMM@Z 0000000180006c00 f i Quantizer.obj
 0001:000065c0       ??_EQuantizer@physx@@MEAAPEAXI@Z 00000001800075c0 f i Quantizer.obj
 0001:000065c0       ??_GQuantizer@physx@@MEAAPEAXI@Z 00000001800075c0 f i Quantizer.obj
 0001:000065f0       ??_EQuantizerImpl@@EEAAPEAXI@Z 00000001800075f0 f i Quantizer.obj
 0001:000065f0       ??_GQuantizerImpl@@EEAAPEAXI@Z 00000001800075f0 f i Quantizer.obj
 0001:000066c0       ?createQuantizer@physx@@YAPEAVQuantizer@1@XZ 00000001800076c0 f   Quantizer.obj
 0001:00006770       ?getDenormalizeCenter@QuantizerImpl@@UEBAAEBVPxVec3@physx@@XZ 0000000180007770 f i Quantizer.obj
 0001:00006780       ?growAndPushBack@?$Array@VPxVec3@physx@@V?$ReflectionAllocator@VPxVec3@physx@@@shdfnd@2@@shdfnd@physx@@IEAAAEAVPxVec3@3@AEBV43@@Z 0000000180007780 f i Quantizer.obj
 0001:00006960       ?kmeansQuantize3D@QuantizerImpl@@UEAAPEBVPxVec3@physx@@IPEBV23@I_NIAEAI@Z 0000000180007960 f i Quantizer.obj
 0001:00006bc0       ?normalizeInput@QuantizerImpl@@AEAAXIPEBVPxVec3@physx@@I@Z 0000000180007bc0 f i Quantizer.obj
 0001:00007010       ?release@QuantizerImpl@@UEAAXXZ 0000000180008010 f i Quantizer.obj
 0001:00007030       ??$copy@V?$ReflectionAllocator@USlab@NodeAllocator@Gu@physx@@@shdfnd@physx@@@?$Array@USlab@NodeAllocator@Gu@physx@@V?$ReflectionAllocator@USlab@NodeAllocator@Gu@physx@@@shdfnd@4@@shdfnd@physx@@IEAAXAEBV012@@Z 0000000180008030 f i BVHStructureBuilder.obj
 0001:000070b0       ??0AABBTreeBuildNode@Gu@physx@@QEAA@AEBV012@@Z 00000001800080b0 f i BVHStructureBuilder.obj
 0001:000070b0       ??4AABBTreeBuildNode@Gu@physx@@QEAAAEAV012@AEBV012@@Z 00000001800080b0 f i BVHStructureBuilder.obj
 0001:000070f0       ??0AABBTreeBuildParams@Gu@physx@@QEAA@IIPEBVPxBounds3@2@@Z 00000001800080f0 f i BVHStructureBuilder.obj
 0001:00007110       ??0BVHStructureBuilder@physx@@QEAA@XZ 0000000180008110 f   BVHStructureBuilder.obj
 0001:00007130       ??0BuildStats@Gu@physx@@QEAA@XZ 0000000180008130 f i BVHStructureBuilder.obj
 0001:00007140       ??0NodeAllocator@Gu@physx@@QEAA@AEBV012@@Z 0000000180008140 f i BVHStructureBuilder.obj
 0001:00007180       ??1AABBTreeBuildParams@Gu@physx@@QEAA@XZ 0000000180008180 f i BVHStructureBuilder.obj
 0001:00007180       ?reset@AABBTreeBuildParams@Gu@physx@@QEAAXXZ 0000000180008180 f i BVHStructureBuilder.obj
 0001:000071e0       ??1BVHStructureBuilder@physx@@QEAA@XZ 00000001800081e0 f   BVHStructureBuilder.obj
 0001:00007260       ??4AABBTreeBuildParams@Gu@physx@@QEAAAEAV012@AEBV012@@Z 0000000180008260 f i BVHStructureBuilder.obj
 0001:00007280       ??4BuildStats@Gu@physx@@QEAAAEAU012@$$QEAU012@@Z 0000000180008280 f i BVHStructureBuilder.obj
 0001:00007290       ??4BuildStats@Gu@physx@@QEAAAEAU012@AEBU012@@Z 0000000180008290 f i BVHStructureBuilder.obj
 0001:000072a0       ??4NodeAllocator@Gu@physx@@QEAAAEAV012@AEBV012@@Z 00000001800082a0 f i BVHStructureBuilder.obj
 0001:00007350       ??_FAABBTreeBuildParams@Gu@physx@@QEAAXXZ 0000000180008350 f i BVHStructureBuilder.obj
 0001:00007370       ??_V@YAXPEAX_K@Z           0000000180008370 f i LIBCMT:delete_array_size.obj
 0001:00007370       ?__global_delete@@YAXPEAX_K@Z 0000000180008370 f i BVHStructureBuilder.obj
 0001:00007380       ?allocate@?$Array@USlab@NodeAllocator@Gu@physx@@V?$ReflectionAllocator@USlab@NodeAllocator@Gu@physx@@@shdfnd@4@@shdfnd@physx@@IEAAPEAUSlab@NodeAllocator@Gu@3@I@Z 0000000180008380 f i BVHStructureBuilder.obj
 0001:00007420       ?flatten@@YAXAEBVNodeAllocator@Gu@physx@@PEAUBVHNode@23@@Z 0000000180008420 f   BVHStructureBuilder.obj
 0001:000075f0       ?getCount@BuildStats@Gu@physx@@QEBAIXZ 00000001800085f0 f i BVHStructureBuilder.obj
 0001:00007600       ?getNbPrimitives@AABBTreeBuildNode@Gu@physx@@QEBAIXZ 0000000180008600 f i BVHStructureBuilder.obj
 0001:00007600       ?getNbRuntimePrimitives@AABBTreeBuildNode@Gu@physx@@QEBAIXZ 0000000180008600 f i BVHStructureBuilder.obj
 0001:00007610       ?getNeg@AABBTreeBuildNode@Gu@physx@@QEBAPEBV123@XZ 0000000180008610 f i BVHStructureBuilder.obj
 0001:00007630       ?getPrimitives@AABBTreeBuildNode@Gu@physx@@QEAAPEAIPEAI@Z 0000000180008630 f i BVHStructureBuilder.obj
 0001:00007630       ?getPrimitives@AABBTreeBuildNode@Gu@physx@@QEBAPEBIPEBI@Z 0000000180008630 f i BVHStructureBuilder.obj
 0001:00007640       ?increaseCount@BuildStats@Gu@physx@@QEAAXI@Z 0000000180008640 f i BVHStructureBuilder.obj
 0001:00007650       ?isLeaf@AABBTreeBuildNode@Gu@physx@@QEBA_NXZ 0000000180008650 f i BVHStructureBuilder.obj
 0001:00007660       ?loadFromDesc@BVHStructureBuilder@physx@@QEAA_NAEBVPxBVHStructureDesc@2@@Z 0000000180008660 f   BVHStructureBuilder.obj
 0001:00007970       ?moveData@BVHStructureBuilder@physx@@QEAAXAEAUBVHStructureData@Gu@2@@Z 0000000180008970 f   BVHStructureBuilder.obj
 0001:000079b0       ?recreate@?$Array@USlab@NodeAllocator@Gu@physx@@V?$ReflectionAllocator@USlab@NodeAllocator@Gu@physx@@@shdfnd@4@@shdfnd@physx@@IEAAXI@Z 00000001800089b0 f i BVHStructureBuilder.obj
 0001:00007a60       ?reset@BuildStats@Gu@physx@@QEAAXXZ 0000000180008a60 f i BVHStructureBuilder.obj
 0001:00007a70       ?save@BVHStructureBuilder@physx@@QEBA_NAEAVPxOutputStream@2@_N@Z 0000000180008a70 f   BVHStructureBuilder.obj
 0001:00007bf0       ?setCount@BuildStats@Gu@physx@@QEAAXI@Z 0000000180008bf0 f i BVHStructureBuilder.obj
 0001:00007c00       ?setNbRunTimePrimitives@AABBTreeBuildNode@Gu@physx@@QEAAXI@Z 0000000180008c00 f i BVHStructureBuilder.obj
 0001:00007c10       ?saveHeightField@physx@@YA_NAEBVHeightField@Gu@1@AEAVPxOutputStream@1@_N@Z 0000000180008c10 f   HeightFieldCooking.obj
 0001:00007e50       ??$quickSelectFirstK@UBoundsLTE@physx@@@quickSelect@physx@@YAXPEIAIIIIAEBUBoundsLTE@1@@Z 0000000180008e50 f i RTreeCooking.obj
 0001:00008030       ??$smallSort@I$$CBUSortBoundsPredicate@physx@@@internal@shdfnd@physx@@YAXPEAIHHAEBUSortBoundsPredicate@2@@Z 0000000180009030 f i RTreeCooking.obj
 0001:000082d0       ??$sort@IU?$Less@I@shdfnd@physx@@V?$ReflectionAllocator@I@23@@shdfnd@physx@@YAXPEAIIAEBU?$Less@I@01@AEBV?$ReflectionAllocator@I@01@I@Z 00000001800092d0 f i RTreeCooking.obj
 0001:00008710       ??$sort@IUSortBoundsPredicate@physx@@V?$ReflectionAllocator@I@shdfnd@2@@shdfnd@physx@@YAXPEAIIAEBUSortBoundsPredicate@1@AEBV?$ReflectionAllocator@I@01@I@Z 0000000180009710 f i RTreeCooking.obj
 0001:00008bc0       ?allocate@?$Array@UInterval@physx@@V?$InlineAllocator@$0CAAA@V?$ReflectionAllocator@UInterval@physx@@@shdfnd@physx@@@shdfnd@2@@shdfnd@physx@@IEAAPEAUInterval@3@I@Z 0000000180009bc0 f i RTreeCooking.obj
 0001:00008c80       ?allocate@?$Array@UPxBounds3V@physx@@V?$ReflectionAllocator@UPxBounds3V@physx@@@shdfnd@2@@shdfnd@physx@@IEAAPEAUPxBounds3V@3@I@Z 0000000180009c80 f i RTreeCooking.obj
 0001:00008d20       ?allocate@?$Array@URTreeNodeNQ@physx@@V?$ReflectionAllocator@URTreeNodeNQ@physx@@@shdfnd@2@@shdfnd@physx@@IEAAPEAURTreeNodeNQ@3@I@Z 0000000180009d20 f i RTreeCooking.obj
 0001:00008dc0       ?allocate@?$Array@URTreeNodeQ@Gu@physx@@V?$ReflectionAllocator@URTreeNodeQ@Gu@physx@@@shdfnd@3@@shdfnd@physx@@IEAAPEAURTreeNodeQ@Gu@3@I@Z 0000000180009dc0 f i RTreeCooking.obj
 0001:00008e60       ?allocate@?$Array@VPxVec3@physx@@V?$ReflectionAllocator@VPxVec3@physx@@@shdfnd@2@@shdfnd@physx@@IEAAPEAVPxVec3@3@I@Z 0000000180009e60 f i RTreeCooking.obj
 0001:00008f00       ?allocate@?$ReflectionAllocator@I@shdfnd@physx@@QEAAPEAX_KPEBDH@Z 0000000180009f00 f i RTreeCooking.obj
 0001:00009c00       ?buildFromTriangles@RTreeCooker@physx@@SAXAEAURTree@Gu@2@PEBVPxVec3@2@IPEBGPEBIIAEAV?$Array@IV?$ReflectionAllocator@I@shdfnd@physx@@@shdfnd@2@PEAURemapCallback@12@MW4Enum@PxMeshCookingHint@2@@Z 000000018000ac00 f   RTreeCooking.obj
 0001:00009ec0       ?copy@?$Array@URTreeNodeNQ@physx@@V?$ReflectionAllocator@URTreeNodeNQ@physx@@@shdfnd@2@@shdfnd@physx@@KAXPEAURTreeNodeNQ@3@0PEBU43@@Z 000000018000aec0 f i RTreeCooking.obj
 0001:0000a080       ?copy@?$Array@VPxVec3@physx@@V?$ReflectionAllocator@VPxVec3@physx@@@shdfnd@2@@shdfnd@physx@@KAXPEAVPxVec3@3@0PEBV43@@Z 000000018000b080 f i RTreeCooking.obj
 0001:0000a150       ?growAndPushBack@?$Array@IV?$ReflectionAllocator@I@shdfnd@physx@@@shdfnd@physx@@IEAAAEAIAEBI@Z 000000018000b150 f i RTreeCooking.obj
 0001:0000a220       ?growAndPushBack@?$Array@UInterval@physx@@V?$InlineAllocator@$0CAAA@V?$ReflectionAllocator@UInterval@physx@@@shdfnd@physx@@@shdfnd@2@@shdfnd@physx@@IEAAAEAUInterval@3@AEBU43@@Z 000000018000b220 f i RTreeCooking.obj
 0001:0000a300       ?growAndPushBack@?$Array@UPxBounds3V@physx@@V?$ReflectionAllocator@UPxBounds3V@physx@@@shdfnd@2@@shdfnd@physx@@IEAAAEAUPxBounds3V@3@AEBU43@@Z 000000018000b300 f i RTreeCooking.obj
 0001:0000a3d0       ?growAndPushBack@?$Array@URTreeNodeNQ@physx@@V?$ReflectionAllocator@URTreeNodeNQ@physx@@@shdfnd@2@@shdfnd@physx@@IEAAAEAURTreeNodeNQ@3@AEBU43@@Z 000000018000b3d0 f i RTreeCooking.obj
 0001:0000a4a0       ?growAndPushBack@?$Array@URTreeNodeQ@Gu@physx@@V?$ReflectionAllocator@URTreeNodeQ@Gu@physx@@@shdfnd@3@@shdfnd@physx@@IEAAAEAURTreeNodeQ@Gu@3@AEBU453@@Z 000000018000b4a0 f i RTreeCooking.obj
 0001:0000a580       ?recreate@?$Array@IV?$ReflectionAllocator@I@shdfnd@physx@@@shdfnd@physx@@IEAAXI@Z 000000018000b580 f i RTreeCooking.obj
 0001:0000a640       ?recreate@?$Array@UPxBounds3V@physx@@V?$ReflectionAllocator@UPxBounds3V@physx@@@shdfnd@2@@shdfnd@physx@@IEAAXI@Z 000000018000b640 f i RTreeCooking.obj
 0001:0000a6f0       ?recreate@?$Array@URTreeNodeNQ@physx@@V?$ReflectionAllocator@URTreeNodeNQ@physx@@@shdfnd@2@@shdfnd@physx@@IEAAXI@Z 000000018000b6f0 f i RTreeCooking.obj
 0001:0000a780       ?recreate@?$Array@URTreeNodeQ@Gu@physx@@V?$ReflectionAllocator@URTreeNodeQ@Gu@physx@@@shdfnd@3@@shdfnd@physx@@IEAAXI@Z 000000018000b780 f i RTreeCooking.obj
 0001:0000a840       ?recreate@?$Array@VPxVec3@physx@@V?$ReflectionAllocator@VPxVec3@physx@@@shdfnd@2@@shdfnd@physx@@IEAAXI@Z 000000018000b840 f i RTreeCooking.obj
 0001:0000a8d0       ?resize@?$Array@IV?$ReflectionAllocator@I@shdfnd@physx@@@shdfnd@physx@@QEAAXIAEBI@Z 000000018000b8d0 f i RTreeCooking.obj
 0001:0000a990       ?resizeUninitialized@?$Array@URTreeNodeNQ@physx@@V?$ReflectionAllocator@URTreeNodeNQ@physx@@@shdfnd@2@@shdfnd@physx@@QEAAXI@Z 000000018000b990 f i RTreeCooking.obj
 0001:0000a9d0       ?sort4@SubSortQuick@physx@@QEAAXPEIAIIAEAV?$Array@URTreeNodeNQ@physx@@V?$ReflectionAllocator@URTreeNodeNQ@physx@@@shdfnd@2@@shdfnd@2@AEAIAEAUPxBounds3V@2@I@Z 000000018000b9d0 f i RTreeCooking.obj
 0001:0000ad60       ?sort4@SubSortSAH@physx@@QEAAXPEAIIAEAV?$Array@URTreeNodeNQ@physx@@V?$ReflectionAllocator@URTreeNodeNQ@physx@@@shdfnd@2@@shdfnd@2@AEAIIPEAURTreeNodeNQ@2@@Z 000000018000bd60 f i RTreeCooking.obj
 0001:0000b5d0       ?split@SubSortSAH@physx@@QEAAIPEAII@Z 000000018000c5d0 f i RTreeCooking.obj
 0001:0000c050       ?computeLocalBounds@MeshBulider@physx@@IEAAXAEAVMeshDataBase@Gu@2@@Z 000000018000d050 f   MeshBuilder.obj
 0001:0000c0e0       ??$?_UG@@YAPEAX_KV?$ReflectionAllocator@G@shdfnd@physx@@PEBDH@Z 000000018000d0e0 f i TriangleMeshBuilder.obj
 0001:0000c180       ??$sort@UEdgeTriLookup@physx@@U?$Less@UEdgeTriLookup@physx@@@shdfnd@2@V?$ReflectionAllocator@UEdgeTriLookup@physx@@@42@@shdfnd@physx@@YAXPEAUEdgeTriLookup@1@IAEBU?$Less@UEdgeTriLookup@physx@@@01@AEBV?$ReflectionAllocator@UEdgeTriLookup@physx@@@01@I@Z 000000018000d180 f i TriangleMeshBuilder.obj
 0001:0000c700       ??0BV4TriangleMeshBuilder@physx@@QEAA@AEBUPxCookingParams@1@@Z 000000018000d700 f   TriangleMeshBuilder.obj
 0001:0000c7d0       ??0RTreeTriangleMeshBuilder@physx@@QEAA@AEBUPxCookingParams@1@@Z 000000018000d7d0 f   TriangleMeshBuilder.obj
 0001:0000c890       ??1BV4TriangleMeshBuilder@physx@@UEAA@XZ 000000018000d890 f   TriangleMeshBuilder.obj
 0001:0000c8f0       ??1MeshDataBase@Gu@physx@@UEAA@XZ 000000018000d8f0 f i TriangleMeshBuilder.obj
 0001:0000c9d0       ??1RTreeTriangleData@Gu@physx@@UEAA@XZ 000000018000d9d0 f i TriangleMeshBuilder.obj
 0001:0000ca40       ??1RTreeTriangleMeshBuilder@physx@@UEAA@XZ 000000018000da40 f   TriangleMeshBuilder.obj
 0001:0000ca70       ??1TriangleMeshBuilder@physx@@UEAA@XZ 000000018000da70 f   TriangleMeshBuilder.obj
 0001:0000cad0       ??1TriangleMeshData@Gu@physx@@UEAA@XZ 000000018000dad0 f i TriangleMeshBuilder.obj
 0001:0000cba0       ??_EBV4TriangleData@Gu@physx@@UEAAPEAXI@Z 000000018000dba0 f i TriangleMeshBuilder.obj
 0001:0000cba0       ??_GBV4TriangleData@Gu@physx@@UEAAPEAXI@Z 000000018000dba0 f i TriangleMeshBuilder.obj
 0001:0000cc20       ??_EBV4TriangleMeshBuilder@physx@@UEAAPEAXI@Z 000000018000dc20 f i TriangleMeshBuilder.obj
 0001:0000cc20       ??_GBV4TriangleMeshBuilder@physx@@UEAAPEAXI@Z 000000018000dc20 f i TriangleMeshBuilder.obj
 0001:0000cca0       ??_EMeshDataBase@Gu@physx@@UEAAPEAXI@Z 000000018000dca0 f i TriangleMeshBuilder.obj
 0001:0000cca0       ??_GMeshDataBase@Gu@physx@@UEAAPEAXI@Z 000000018000dca0 f i TriangleMeshBuilder.obj
 0001:0000cd00       ??_ERTreeCookerRemap@physx@@UEAAPEAXI@Z 000000018000dd00 f i TriangleMeshBuilder.obj
 0001:0000cd00       ??_GRTreeCookerRemap@physx@@UEAAPEAXI@Z 000000018000dd00 f i TriangleMeshBuilder.obj
 0001:0000cd30       ??_ERTreeTriangleData@Gu@physx@@UEAAPEAXI@Z 000000018000dd30 f i TriangleMeshBuilder.obj
 0001:0000cd30       ??_GRTreeTriangleData@Gu@physx@@UEAAPEAXI@Z 000000018000dd30 f i TriangleMeshBuilder.obj
 0001:0000cd90       ??_ERTreeTriangleMeshBuilder@physx@@UEAAPEAXI@Z 000000018000dd90 f i TriangleMeshBuilder.obj
 0001:0000cd90       ??_GRTreeTriangleMeshBuilder@physx@@UEAAPEAXI@Z 000000018000dd90 f i TriangleMeshBuilder.obj
 0001:0000cde0       ??_ERemapCallback@RTreeCooker@physx@@UEAAPEAXI@Z 000000018000dde0 f i TriangleMeshBuilder.obj
 0001:0000cde0       ??_GRemapCallback@RTreeCooker@physx@@UEAAPEAXI@Z 000000018000dde0 f i TriangleMeshBuilder.obj
 0001:0000ce10       ??_ETriangleMeshBuilder@physx@@UEAAPEAXI@Z 000000018000de10 f i TriangleMeshBuilder.obj
 0001:0000ce10       ??_GTriangleMeshBuilder@physx@@UEAAPEAXI@Z 000000018000de10 f i TriangleMeshBuilder.obj
 0001:0000ce50       ??_ETriangleMeshData@Gu@physx@@UEAAPEAXI@Z 000000018000de50 f i TriangleMeshBuilder.obj
 0001:0000ce50       ??_GTriangleMeshData@Gu@physx@@UEAAPEAXI@Z 000000018000de50 f i TriangleMeshBuilder.obj
 0001:0000ceb0       ?allocateTriangles@TriangleMeshData@Gu@physx@@QEAAPEAXI_NI@Z 000000018000deb0 f i TriangleMeshBuilder.obj
 0001:0000cf90       ?allocateVertices@MeshDataBase@Gu@physx@@QEAAPEAVPxVec3@3@I@Z 000000018000df90 f i TriangleMeshBuilder.obj
 0001:0000d4b0       ?checkMeshIndicesSize@TriangleMeshBuilder@physx@@QEAAXXZ 000000018000e4b0 f   TriangleMeshBuilder.obj
 0001:0000d5c0       ?cleanMesh@TriangleMeshBuilder@physx@@QEAA_N_NPEAW4Enum@PxTriangleMeshCookingResult@2@@Z 000000018000e5c0 f   TriangleMeshBuilder.obj
 0001:0000dae0       ?createGRBMidPhaseAndData@TriangleMeshBuilder@physx@@QEAAXI@Z 000000018000eae0 f   TriangleMeshBuilder.obj
 0001:0000dd60       ?createMidPhaseStructure@BV32TriangleMeshBuilder@physx@@SAXAEBUPxCookingParams@2@AEAVTriangleMeshData@Gu@2@AEAVBV32Tree@52@@Z 000000018000ed60 f   TriangleMeshBuilder.obj
 0001:0000df40       ?createMidPhaseStructure@BV4TriangleMeshBuilder@physx@@UEAAXXZ 000000018000ef40 f   TriangleMeshBuilder.obj
 0001:0000e200       ?createMidPhaseStructure@RTreeTriangleMeshBuilder@physx@@UEAAXXZ 000000018000f200 f   TriangleMeshBuilder.obj
 0001:0000e2e0       ?createSharedEdgeData@TriangleMeshBuilder@physx@@QEAAX_N0@Z 000000018000f2e0 f   TriangleMeshBuilder.obj
 0001:0000e980       ?getMidphaseID@BV4TriangleMeshBuilder@physx@@UEBA?AW4Enum@PxMeshMidPhase@2@XZ 000000018000f980 f i TriangleMeshBuilder.obj
 0001:0000e980       ?length@charNode@@UEBAHXZ  000000018000f980 f i libvcruntime:undname.obj
 0001:0000e980       ?raw_length@charNode@@UEBAHXZ 000000018000f980 f i libvcruntime:undname.obj
 0001:0000e980       DllMain                    000000018000f980 f i LIBCMT:dll_dllmain_stub.obj
 0001:0000e980       _get_startup_argv_mode     000000018000f980 f i LIBCMT:argv_mode.obj
 0001:0000e990       ?getMidphaseID@RTreeTriangleMeshBuilder@physx@@UEBA?AW4Enum@PxMeshMidPhase@2@XZ 000000018000f990 f i TriangleMeshBuilder.obj
 0001:0000e9a0       ?importMesh@TriangleMeshBuilder@physx@@IEAA_NAEBVPxTriangleMeshDesc@2@AEBUPxCookingParams@2@PEAW4Enum@PxTriangleMeshCookingResult@2@_N@Z 000000018000f9a0 f   TriangleMeshBuilder.obj
 0001:0000ed20       ?loadFromDesc@TriangleMeshBuilder@physx@@QEAA_NAEBVPxTriangleMeshDesc@2@PEAW4Enum@PxTriangleMeshCookingResult@2@_N@Z 000000018000fd20 f   TriangleMeshBuilder.obj
 0001:0000f1a0       ?onMeshIndexFormatChange@BV4TriangleMeshBuilder@physx@@UEAAXXZ 00000001800101a0 f   TriangleMeshBuilder.obj
 0001:0000f1e0       ?remap@RTreeCookerRemap@physx@@UEAAXPEAIII@Z 00000001800101e0 f i TriangleMeshBuilder.obj
 0001:0000f200       ?remapTopology@TriangleMeshBuilder@physx@@QEAAXPEBI@Z 0000000180010200 f   TriangleMeshBuilder.obj
 0001:0000f4f0       ?save@TriangleMeshBuilder@physx@@QEBA_NAEAVPxOutputStream@2@_NAEBUPxCookingParams@2@@Z 00000001800104f0 f   TriangleMeshBuilder.obj
 0001:0000fac0       ?saveMidPhaseStructure@BV4TriangleMeshBuilder@physx@@UEBAXAEAVPxOutputStream@2@_N@Z 0000000180010ac0 f   TriangleMeshBuilder.obj
 0001:0000fc60       ?saveMidPhaseStructure@RTreeTriangleMeshBuilder@physx@@UEBAXAEAVPxOutputStream@2@_N@Z 0000000180010c60 f   TriangleMeshBuilder.obj
 0001:0000fea0       ??0BigConvexDataBuilder@physx@@QEAA@PEBUConvexHullData@Gu@1@PEAVBigConvexData@1@PEBVPxVec3@1@@Z 0000000180010ea0 f   BigConvexDataBuilder.obj
 0001:0000feb0       ??4BigConvexData@physx@@QEAAAEAV01@AEBV01@@Z 0000000180010eb0 f i BigConvexDataBuilder.obj
 0001:0000fed0       ?GetAdjacentVerts@BigConvexData@physx@@QEBAPEBEXZ 0000000180010ed0 f i BigConvexDataBuilder.obj
 0001:0000fee0       ?GetNbNeighbors@BigConvexData@physx@@QEBAGI@Z 0000000180010ee0 f i BigConvexDataBuilder.obj
 0001:0000fee0       ?GetValency@BigConvexData@physx@@QEBAGI@Z 0000000180010ee0 f i BigConvexDataBuilder.obj
 0001:0000fef0       ?GetNbSamples@BigConvexData@physx@@QEBAIXZ 0000000180010ef0 f i BigConvexDataBuilder.obj
 0001:0000ff00       ?GetNbVerts@BigConvexData@physx@@QEBAIXZ 0000000180010f00 f i BigConvexDataBuilder.obj
 0001:0000ff00       ?length@pcharNode@@UEBAHXZ 0000000180010f00 f i libvcruntime:undname.obj
 0001:0000ff00       ?raw_length@pcharNode@@UEBAHXZ 0000000180010f00 f i libvcruntime:undname.obj
 0001:0000ff10       ?GetNeighbors@BigConvexData@physx@@QEBAPEBEI@Z 0000000180010f10 f i BigConvexDataBuilder.obj
 0001:0000ff20       ?GetOffset@BigConvexData@physx@@QEBAGI@Z 0000000180010f20 f i BigConvexDataBuilder.obj
 0001:0000ff30       ?GetSubdiv@BigConvexData@physx@@QEBAIXZ 0000000180010f30 f i BigConvexDataBuilder.obj
 0001:0000ff40       ?computeValencies@BigConvexDataBuilder@physx@@QEAA_NAEBVConvexHullBuilder@2@@Z 0000000180010f40 f   BigConvexDataBuilder.obj
 0001:00010330       ?precompute@BigConvexDataBuilder@physx@@QEAA_NI@Z 0000000180011330 f   BigConvexDataBuilder.obj
 0001:00010f60       ?save@BigConvexDataBuilder@physx@@QEBA_NAEAVPxOutputStream@2@_N@Z 0000000180011f60 f   BigConvexDataBuilder.obj
 0001:00011040       ?saveValencies@BigConvexDataBuilder@physx@@QEBA_NAEAVPxOutputStream@2@_N@Z 0000000180012040 f   BigConvexDataBuilder.obj
 0001:000111e0       ??$?_UE@@YAPEAX_KV?$ReflectionAllocator@E@shdfnd@physx@@PEBDH@Z 00000001800121e0 f i ConvexHullBuilder.obj
 0001:00011280       ??0ConvexHullBuilder@physx@@QEAA@PEAUConvexHullData@Gu@1@_N@Z 0000000180012280 f   ConvexHullBuilder.obj
 0001:000112b0       ??1ConvexHullBuilder@physx@@QEAA@XZ 00000001800122b0 f   ConvexHullBuilder.obj
 0001:000113b0       ?calculateVertexMapTable@ConvexHullBuilder@physx@@QEAA_NI_N@Z 00000001800123b0 f   ConvexHullBuilder.obj
 0001:000115c0       ?checkHullPolygons@ConvexHullBuilder@physx@@QEBA_NXZ 00000001800125c0 f   ConvexHullBuilder.obj
 0001:00011ba0       ?computeGeomCenter@ConvexHullBuilder@physx@@IEBA_NAEAVPxVec3@2@IPEAUHullTriangleData@2@@Z 0000000180012ba0 f   ConvexHullBuilder.obj
 0001:00011e60       ?copy@ConvexHullBuilder@physx@@QEAA_NAEAUConvexHullData@Gu@2@AEAI@Z 0000000180012e60 f   ConvexHullBuilder.obj
 0001:000120d0       ?createEdgeList@ConvexHullBuilder@physx@@QEAA_N_NI@Z 00000001800130d0 f   ConvexHullBuilder.obj
 0001:00012920       ?init@ConvexHullBuilder@physx@@QEAA_NIPEBVPxVec3@2@PEBIIIPEBUPxHullPolygon@2@_NPEAVConvexHullLib@2@@Z 0000000180013920 f   ConvexHullBuilder.obj
 0001:00013260       ?save@ConvexHullBuilder@physx@@QEBA_NAEAVPxOutputStream@2@_N@Z 0000000180014260 f   ConvexHullBuilder.obj
 0001:00013580       ??1ConvexHullLib@physx@@UEAA@XZ 0000000180014580 f   ConvexHullLib.obj
 0001:000135e0       ??_EConvexHullLib@physx@@UEAAPEAXI@Z 00000001800145e0 f i ConvexHullLib.obj
 0001:000135e0       ??_GConvexHullLib@physx@@UEAAPEAXI@Z 00000001800145e0 f i ConvexHullLib.obj
 0001:00013b40       ?cleanupVertices@ConvexHullLib@physx@@IEAA_NIPEBVPxVec3@2@IAEAIPEAV32@AEAV32@3@Z 0000000180014b40 f   ConvexHullLib.obj
 0001:00013fd0       ?shiftAndcleanupVertices@ConvexHullLib@physx@@IEAA_NIPEBVPxVec3@2@IAEAIPEAV32@AEAV32@3@Z 0000000180014fd0 f   ConvexHullLib.obj
 0001:00014480       ?shiftConvexMeshDesc@ConvexHullLib@physx@@IEAAXAEAVPxConvexMeshDesc@2@@Z 0000000180015480 f   ConvexHullLib.obj
 0001:00014540       ?swapLargestFace@ConvexHullLib@physx@@IEAAXAEAVPxConvexMeshDesc@2@@Z 0000000180015540 f   ConvexHullLib.obj
 0001:00014730       ??0Box@Gu@physx@@QEAA@AEBV012@@Z 0000000180015730 f i ConvexHullUtils.obj
 0001:00014730       ??4Box@Gu@physx@@QEAAAEBV012@AEBV012@@Z 0000000180015730 f i ConvexHullUtils.obj
 0001:00014790       ??0Box@Gu@physx@@QEAA@AEBVPxVec3@2@0AEBVPxMat33@2@@Z 0000000180015790 f i ConvexHullUtils.obj
 0001:00014800       ??0ConvexHull@physx@@QEAA@AEBVPxVec3@1@AEBVPxTransform@1@AEBV?$Array@VPxPlane@physx@@V?$ReflectionAllocator@VPxPlane@physx@@@shdfnd@2@@shdfnd@1@@Z 0000000180015800 f   ConvexHullUtils.obj
 0001:00015950       ??0PxQuat@physx@@QEAA@AEBVPxMat33@1@@Z 0000000180016950 f i ConvexHullUtils.obj
 0001:00015b50       ?allocate@?$Array@VHalfEdge@ConvexHull@physx@@V?$ReflectionAllocator@VHalfEdge@ConvexHull@physx@@@shdfnd@3@@shdfnd@physx@@IEAAPEAVHalfEdge@ConvexHull@3@I@Z 0000000180016b50 f i ConvexHullUtils.obj
 0001:00015bf0       ?allocate@?$Array@VPxPlane@physx@@V?$ReflectionAllocator@VPxPlane@physx@@@shdfnd@2@@shdfnd@physx@@IEAAPEAVPxPlane@3@I@Z 0000000180016bf0 f i ConvexHullUtils.obj
 0001:00015c90       ?assertIntact@ConvexHull@physx@@QEBA_NM@Z 0000000180016c90 f   ConvexHullUtils.obj
 0001:00015fb0       ?computeAABBExtent@Box@Gu@physx@@QEBA?AVPxVec3@3@XZ 0000000180016fb0 f i ConvexHullUtils.obj
 0001:00016070       ?computeBoxPoints@Box@Gu@physx@@QEBAXPEIAVPxVec3@3@@Z 0000000180017070 f i ConvexHullUtils.obj
 0001:000160b0       ?computeOBBFromConvex@physx@@YA_NAEBVPxConvexMeshDesc@1@AEAVPxVec3@1@AEAVPxTransform@1@@Z 00000001800170b0 f   ConvexHullUtils.obj
 0001:00016790       ?computeOBBSIMD@local@@YAXIPEBT__m128@@AEAT2@AEBT2@1@Z 0000000180017790 f   ConvexHullUtils.obj
 0001:00016b70       ?convexHullCrop@physx@@YAPEAVConvexHull@1@AEBV21@AEBVPxPlane@1@M@Z 0000000180017b70 f   ConvexHullUtils.obj
 0001:00017960       ?copy@?$Array@VPxPlane@physx@@V?$ReflectionAllocator@VPxPlane@physx@@@shdfnd@2@@shdfnd@physx@@KAXPEAVPxPlane@3@0PEBV43@@Z 0000000180018960 f i ConvexHullUtils.obj
 0001:00017a60       ?findCandidatePlane@ConvexHull@physx@@QEBAHMM@Z 0000000180018a60 f   ConvexHullUtils.obj
 0001:00017eb0       ?getInverse@PxMat33@physx@@QEBA?BV12@XZ 0000000180018eb0 f i ConvexHullUtils.obj
 0001:00018100       ?getTransform@Box@Gu@physx@@QEBA?AVPxTransform@3@XZ 0000000180019100 f i ConvexHullUtils.obj
 0001:00018160       ?growAndPushBack@?$Array@VHalfEdge@ConvexHull@physx@@V?$ReflectionAllocator@VHalfEdge@ConvexHull@physx@@@shdfnd@3@@shdfnd@physx@@IEAAAEAVHalfEdge@ConvexHull@3@AEBV453@@Z 0000000180019160 f i ConvexHullUtils.obj
 0001:00018220       ?growAndPushBack@?$Array@VPxPlane@physx@@V?$ReflectionAllocator@VPxPlane@physx@@@shdfnd@2@@shdfnd@physx@@IEAAAEAVPxPlane@3@AEBV43@@Z 0000000180019220 f i ConvexHullUtils.obj
 0001:000182e0       ?isValid@Box@Gu@physx@@QEBA_NXZ 00000001800192e0 f i ConvexHullUtils.obj
 0001:00018300       ?maxNumVertsPerFace@ConvexHull@physx@@QEBAIXZ 0000000180019300 f   ConvexHullUtils.obj
 0001:00018370       ?recreate@?$Array@VHalfEdge@ConvexHull@physx@@V?$ReflectionAllocator@VHalfEdge@ConvexHull@physx@@@shdfnd@3@@shdfnd@physx@@IEAAXI@Z 0000000180019370 f i ConvexHullUtils.obj
 0001:00018410       ?recreate@?$Array@VPxPlane@physx@@V?$ReflectionAllocator@VPxPlane@physx@@@shdfnd@2@@shdfnd@physx@@IEAAXI@Z 0000000180019410 f i ConvexHullUtils.obj
 0001:000184a0       ?resize@?$Array@VHalfEdge@ConvexHull@physx@@V?$ReflectionAllocator@VHalfEdge@ConvexHull@physx@@@shdfnd@3@@shdfnd@physx@@QEAAXIAEBVHalfEdge@ConvexHull@3@@Z 00000001800194a0 f i ConvexHullUtils.obj
 0001:00018560       ?resize@?$Array@VPxPlane@physx@@V?$ReflectionAllocator@VPxPlane@physx@@@shdfnd@2@@shdfnd@physx@@QEAAXIAEBVPxPlane@3@@Z 0000000180019560 f i ConvexHullUtils.obj
 0001:00018680       ?resize@?$Array@VPxVec3@physx@@V?$ReflectionAllocator@VPxVec3@physx@@@shdfnd@2@@shdfnd@physx@@QEAAXIAEBVPxVec3@3@@Z 0000000180019680 f i ConvexHullUtils.obj
 0001:00018770       ?rotate@Box@Gu@physx@@QEBA?AVPxVec3@3@AEBV43@@Z 0000000180019770 f i ConvexHullUtils.obj
 0001:00018800       ?rotateInv@Box@Gu@physx@@QEBA?AVPxVec3@3@AEBV43@@Z 0000000180019800 f i ConvexHullUtils.obj
 0001:00018890       ?setAxes@Box@Gu@physx@@QEAAXAEBVPxVec3@3@00@Z 0000000180019890 f i ConvexHullUtils.obj
 0001:000188d0       ?setEmpty@Box@Gu@physx@@QEAAXXZ 00000001800198d0 f i ConvexHullUtils.obj
 0001:00018910       ?transform@Box@Gu@physx@@QEBA?AVPxVec3@3@AEBV43@@Z 0000000180019910 f i ConvexHullUtils.obj
 0001:000189b0       ??0ConvexMeshBuilder@physx@@QEAA@_N@Z 00000001800199b0 f   ConvexMeshBuilder.obj
 0001:00018a10       ??1ConvexMeshBuilder@physx@@QEAA@XZ 0000000180019a10 f   ConvexMeshBuilder.obj
 0001:00018e60       ?build@ConvexMeshBuilder@physx@@QEAA_NAEBVPxConvexMeshDesc@2@I_NPEAVConvexHullLib@2@@Z 0000000180019e60 f   ConvexMeshBuilder.obj
 0001:00019170       ?computeHullPolygons@ConvexMeshBuilder@physx@@QEAA_NAEBIPEBVPxVec3@2@0PEBIAEAVPxAllocatorCallback@2@AEAIAEAPEAV32@4AEAPEAI4AEAPEAUPxHullPolygon@2@@Z 000000018001a170 f   ConvexMeshBuilder.obj
 0001:00019390       ?computeMassInfo@ConvexMeshBuilder@physx@@QEAAX_N@Z 000000018001a390 f   ConvexMeshBuilder.obj
 0001:00019760       ?copy@ConvexMeshBuilder@physx@@QEAA_NAEAUConvexHullInitData@Gu@2@@Z 000000018001a760 f   ConvexMeshBuilder.obj
 0001:00019880       ?isFinite@PxVec3@physx@@QEBA_NXZ 000000018001a880 f i ConvexMeshBuilder.obj
 0001:000198e0       ?loadConvexHull@ConvexMeshBuilder@physx@@QEAA_NAEBVPxConvexMeshDesc@2@PEAVConvexHullLib@2@@Z 000000018001a8e0 f   ConvexMeshBuilder.obj
 0001:00019b50       ?save@ConvexMeshBuilder@physx@@QEBA_NAEAVPxOutputStream@2@_N@Z 000000018001ab50 f   ConvexMeshBuilder.obj
 0001:00019d60       ??$copy@V?$ReflectionAllocator@VPair@@@shdfnd@physx@@@?$Array@VPair@@V?$ReflectionAllocator@VPair@@@shdfnd@physx@@@shdfnd@physx@@IEAAXAEBV012@@Z 000000018001ad60 f i ConvexPolygonsBuilder.obj
 0001:00019de0       ??0ConvexPolygonsBuilder@physx@@QEAA@PEAUConvexHullData@Gu@1@_N@Z 000000018001ade0 f   ConvexPolygonsBuilder.obj
 0001:00019e00       ??1ConvexPolygonsBuilder@physx@@QEAA@XZ 000000018001ae00 f   ConvexPolygonsBuilder.obj
 0001:0001a650       ?allocate@?$Array@VPair@@V?$ReflectionAllocator@VPair@@@shdfnd@physx@@@shdfnd@physx@@IEAAPEAVPair@@I@Z 000000018001b650 f i ConvexPolygonsBuilder.obj
 0001:0001ae80       ?computeHullPolygons@ConvexPolygonsBuilder@physx@@QEAA_NAEBIPEBVPxVec3@2@0PEBI@Z 000000018001be80 f   ConvexPolygonsBuilder.obj
 0001:0001c180       ?createPolygonData@ConvexPolygonsBuilder@physx@@AEAA_NXZ 000000018001d180 f   ConvexPolygonsBuilder.obj
 0001:0001cb40       ?createTrianglesFromPolygons@ConvexPolygonsBuilder@physx@@AEAA_NXZ 000000018001db40 f   ConvexPolygonsBuilder.obj
 0001:0001e1a0       ?growAndPushBack@?$Array@VPair@@V?$ReflectionAllocator@VPair@@@shdfnd@physx@@@shdfnd@physx@@IEAAAEAVPair@@AEBV4@@Z 000000018001f1a0 f i ConvexPolygonsBuilder.obj
 0001:0001e270       ??0QuickHull@local@@QEAA@AEBUPxCookingParams@physx@@AEBVPxConvexMeshDesc@3@@Z 000000018001f270 f   QuickHullConvexHullLib.obj
 0001:0001e320       ??0QuickHullConvexHullLib@physx@@QEAA@AEBVPxConvexMeshDesc@1@AEBUPxCookingParams@1@@Z 000000018001f320 f   QuickHullConvexHullLib.obj
 0001:0001e410       ??1?$MemBlock@UQuickHullFace@local@@$00@local@@QEAA@XZ 000000018001f410 f i QuickHullConvexHullLib.obj
 0001:0001e410       ??1?$MemBlock@UQuickHullHalfEdge@local@@$0A@@local@@QEAA@XZ 000000018001f410 f i QuickHullConvexHullLib.obj
 0001:0001e4a0       ??1QuickHull@local@@QEAA@XZ 000000018001f4a0 f   QuickHullConvexHullLib.obj
 0001:0001e5e0       ??_GConvexHull@physx@@QEAAPEAXI@Z 000000018001f5e0 f i QuickHullConvexHullLib.obj
 0001:0001e6c0       ??_EQuickHullConvexHullLib@physx@@UEAAPEAXI@Z 000000018001f6c0 f i QuickHullConvexHullLib.obj
 0001:0001e6c0       ??_GQuickHullConvexHullLib@physx@@UEAAPEAXI@Z 000000018001f6c0 f i QuickHullConvexHullLib.obj
 0001:0001e7c0       ?addPointToHull@QuickHull@local@@IEAA_NPEBUQuickHullVertex@2@AEAUQuickHullFace@2@AEA_N@Z 000000018001f7c0 f   QuickHullConvexHullLib.obj
 0001:0001ea90       ?addSimplex@QuickHull@local@@IEAAXPEAUQuickHullVertex@2@_N@Z 000000018001fa90 f   QuickHullConvexHullLib.obj
 0001:0001ef60       ?allocate@?$Array@PEAUQuickHullFace@local@@V?$ReflectionAllocator@PEAUQuickHullFace@local@@@shdfnd@physx@@@shdfnd@physx@@IEAAPEAPEAUQuickHullFace@local@@I@Z 000000018001ff60 f i QuickHullConvexHullLib.obj
 0001:0001f000       ?allocate@?$Array@PEAUQuickHullHalfEdge@local@@V?$ReflectionAllocator@PEAUQuickHullHalfEdge@local@@@shdfnd@physx@@@shdfnd@physx@@IEAAPEAPEAUQuickHullHalfEdge@local@@I@Z 0000000180020000 f i QuickHullConvexHullLib.obj
 0001:0001f0a0       ?allocate@?$Array@PEAUQuickHullVertex@local@@V?$ReflectionAllocator@PEAUQuickHullVertex@local@@@shdfnd@physx@@@shdfnd@physx@@IEAAPEAPEAUQuickHullVertex@local@@I@Z 00000001800200a0 f i QuickHullConvexHullLib.obj
 0001:0001f140       ?allocate@?$Array@UExpandPoint@local@@V?$ReflectionAllocator@UExpandPoint@local@@@shdfnd@physx@@@shdfnd@physx@@IEAAPEAUExpandPoint@local@@I@Z 0000000180020140 f i QuickHullConvexHullLib.obj
 0001:0001f1e0       ?buildHull@QuickHull@local@@QEAA?AW4Enum@QuickHullResult@2@XZ 00000001800201e0 f   QuickHullConvexHullLib.obj
 0001:0001f3f0       ?calculateHorizon@QuickHull@local@@IEAAXAEBVPxVec3@physx@@PEAUQuickHullHalfEdge@2@AEAUQuickHullFace@2@AEAV?$Array@PEAUQuickHullHalfEdge@local@@V?$ReflectionAllocator@PEAUQuickHullHalfEdge@local@@@shdfnd@physx@@@shdfnd@4@AEAV?$Array@PEAUQuickHullFace@local@@V?$ReflectionAllocator@PEAUQuickHullFace@local@@@shdfnd@physx@@@84@@Z 00000001800203f0 f   QuickHullConvexHullLib.obj
 0001:0001f5a0       ?canMergeFaces@QuickHull@local@@IEAA_NAEBUQuickHullHalfEdge@2@@Z 00000001800205a0 f   QuickHullConvexHullLib.obj
 0001:0001fdd0       ?cleanupForSimplex@QuickHullConvexHullLib@physx@@IEAA_NPEAVPxVec3@2@IPEAUQuickHullVertex@local@@1AEAM2@Z 0000000180020dd0 f   QuickHullConvexHullLib.obj
 0001:000209f0       ?computeMinMaxVerts@QuickHull@local@@IEAAXXZ 00000001800219f0 f   QuickHullConvexHullLib.obj
 0001:00020dc0       ?connectHalfEdges@QuickHullFace@local@@AEAAPEAU12@PEAUQuickHullHalfEdge@2@0@Z 0000000180021dc0 f   QuickHullConvexHullLib.obj
 0001:00021130       ?copy@?$Array@UExpandPoint@local@@V?$ReflectionAllocator@UExpandPoint@local@@@shdfnd@physx@@@shdfnd@physx@@KAXPEAUExpandPoint@local@@0PEBU45@@Z 0000000180022130 f i QuickHullConvexHullLib.obj
 0001:000211e0       ?createConvexHull@QuickHullConvexHullLib@physx@@UEAA?AW4Enum@PxConvexMeshCookingResult@2@XZ 00000001800221e0 f   QuickHullConvexHullLib.obj
 0001:000215e0       ?createEdgeList@QuickHullConvexHullLib@physx@@UEAA_NIPEBEPEAPEAEPEAPEAG2@Z 00000001800225e0 f   QuickHullConvexHullLib.obj
 0001:00021830       ?createTriangle@QuickHull@local@@IEAAPEAUQuickHullFace@2@AEBUQuickHullVertex@2@00@Z 0000000180022830 f   QuickHullConvexHullLib.obj
 0001:00021c10       ?doAdjacentMerge@QuickHull@local@@IEAA_NAEAUQuickHullFace@2@_NAEA_N@Z 0000000180022c10 f   QuickHullConvexHullLib.obj
 0001:00021f60       ?expandHull@QuickHullConvexHullLib@physx@@IEAA?AW4Enum@PxConvexMeshCookingResult@2@XZ 0000000180022f60 f   QuickHullConvexHullLib.obj
 0001:000228a0       ?expandHullOBB@QuickHullConvexHullLib@physx@@IEAA?AW4Enum@PxConvexMeshCookingResult@2@XZ 00000001800238a0 f   QuickHullConvexHullLib.obj
 0001:00022cb0       ?fillConvexMeshDesc@QuickHullConvexHullLib@physx@@UEAAXAEAVPxConvexMeshDesc@2@@Z 0000000180023cb0 f   QuickHullConvexHullLib.obj
 0001:00022d00       ?fillConvexMeshDescFromCroppedHull@QuickHullConvexHullLib@physx@@IEAAXAEAVPxConvexMeshDesc@2@@Z 0000000180023d00 f   QuickHullConvexHullLib.obj
 0001:00022ef0       ?fillConvexMeshDescFromQuickHull@QuickHullConvexHullLib@physx@@IEAAXAEAVPxConvexMeshDesc@2@@Z 0000000180023ef0 f   QuickHullConvexHullLib.obj
 0001:00023260       ?findSimplex@QuickHull@local@@IEAA_NXZ 0000000180024260 f   QuickHullConvexHullLib.obj
 0001:00023f10       ?getFreeItem@?$MemBlock@UQuickHullFace@local@@$00@local@@QEAAPEAUQuickHullFace@2@XZ 0000000180024f10 f i QuickHullConvexHullLib.obj
 0001:00024040       ?getFreeItem@?$MemBlock@UQuickHullHalfEdge@local@@$0A@@local@@QEAAPEAUQuickHullHalfEdge@2@XZ 0000000180025040 f i QuickHullConvexHullLib.obj
 0001:00024110       ?growAndPushBack@?$Array@PEAUQuickHullFace@local@@V?$ReflectionAllocator@PEAUQuickHullFace@local@@@shdfnd@physx@@@shdfnd@physx@@IEAAAEAPEAUQuickHullFace@local@@AEBQEAU45@@Z 0000000180025110 f i QuickHullConvexHullLib.obj
 0001:000241d0       ?growAndPushBack@?$Array@PEAUQuickHullHalfEdge@local@@V?$ReflectionAllocator@PEAUQuickHullHalfEdge@local@@@shdfnd@physx@@@shdfnd@physx@@IEAAAEAPEAUQuickHullHalfEdge@local@@AEBQEAU45@@Z 00000001800251d0 f i QuickHullConvexHullLib.obj
 0001:00024290       ?growAndPushBack@?$Array@PEAUQuickHullVertex@local@@V?$ReflectionAllocator@PEAUQuickHullVertex@local@@@shdfnd@physx@@@shdfnd@physx@@IEAAAEAPEAUQuickHullVertex@local@@AEBQEAU45@@Z 0000000180025290 f i QuickHullConvexHullLib.obj
 0001:00024350       ?growAndPushBack@?$Array@UExpandPoint@local@@V?$ReflectionAllocator@UExpandPoint@local@@@shdfnd@physx@@@shdfnd@physx@@IEAAAEAUExpandPoint@local@@AEBU45@@Z 0000000180025350 f i QuickHullConvexHullLib.obj
 0001:00024450       ?init@?$MemBlock@UQuickHullFace@local@@$00@local@@QEAAXI@Z 0000000180025450 f i QuickHullConvexHullLib.obj
 0001:00024540       ?init@?$MemBlock@UQuickHullHalfEdge@local@@$0A@@local@@QEAAXI@Z 0000000180025540 f i QuickHullConvexHullLib.obj
 0001:000245e0       ?mergeAdjacentFace@QuickHullFace@local@@QEAA_NPEAUQuickHullHalfEdge@2@AEAV?$Array@PEAUQuickHullFace@local@@V?$ReflectionAllocator@PEAUQuickHullFace@local@@@shdfnd@physx@@@shdfnd@physx@@@Z 00000001800255e0 f   QuickHullConvexHullLib.obj
 0001:00024a30       ?nextPointToAdd@QuickHull@local@@IEAAPEAUQuickHullVertex@2@AEAPEAUQuickHullFace@2@@Z 0000000180025a30 f   QuickHullConvexHullLib.obj
 0001:00024bb0       ?parseInputVertices@QuickHull@local@@QEAAXPEBVPxVec3@physx@@I@Z 0000000180025bb0 f   QuickHullConvexHullLib.obj
 0001:00024d30       ?postMergeHull@QuickHull@local@@IEAAXXZ 0000000180025d30 f   QuickHullConvexHullLib.obj
 0001:00024f90       ?preallocate@QuickHull@local@@QEAAXI@Z 0000000180025f90 f   QuickHullConvexHullLib.obj
 0001:000250d0       ?recreate@?$Array@PEAUQuickHullFace@local@@V?$ReflectionAllocator@PEAUQuickHullFace@local@@@shdfnd@physx@@@shdfnd@physx@@IEAAXI@Z 00000001800260d0 f i QuickHullConvexHullLib.obj
 0001:00025170       ?recreate@?$Array@PEAUQuickHullHalfEdge@local@@V?$ReflectionAllocator@PEAUQuickHullHalfEdge@local@@@shdfnd@physx@@@shdfnd@physx@@IEAAXI@Z 0000000180026170 f i QuickHullConvexHullLib.obj
 0001:00025210       ?recreate@?$Array@PEAUQuickHullVertex@local@@V?$ReflectionAllocator@PEAUQuickHullVertex@local@@@shdfnd@physx@@@shdfnd@physx@@IEAAXI@Z 0000000180026210 f i QuickHullConvexHullLib.obj
 0001:000252b0       ?recreate@?$Array@UExpandPoint@local@@V?$ReflectionAllocator@UExpandPoint@local@@@shdfnd@physx@@@shdfnd@physx@@IEAAXI@Z 00000001800262b0 f i QuickHullConvexHullLib.obj
 0001:00025340       ?resolveUnclaimedPoints@QuickHull@local@@IEAAXAEBV?$Array@PEAUQuickHullFace@local@@V?$ReflectionAllocator@PEAUQuickHullFace@local@@@shdfnd@physx@@@shdfnd@physx@@@Z 0000000180026340 f   QuickHullConvexHullLib.obj
 0001:00026040       ?computeVolumeIntegralsEberly@physx@@YA_NAEBVPxConvexMeshDesc@1@MAEAUPxIntegrals@1@AEBVPxVec3@1@@Z 0000000180027040 f   VolumeIntegration.obj
 0001:00026080       ?computeVolumeIntegralsEberlySIMD@physx@@YA_NAEBVPxConvexMeshDesc@1@MAEAUPxIntegrals@1@AEBVPxVec3@1@@Z 0000000180027080 f   VolumeIntegration.obj
 0001:000266d0       ?cookingDelayHook@@YAP6A_JXZIPEAUDelayLoadInfo@@@Z 00000001800276d0 f   WindowsCookingDelayLoadHook.obj
 0001:000267b0       PxSetPhysXCookingDelayLoadHook 00000001800277b0 f   WindowsCookingDelayLoadHook.obj
 0001:000267b8       __imp_load_??0RadixSortBuffered@Cm@physx@@QEAA@XZ 00000001800277b8 f   PhysXCommon_64:PhysXCommon_64.dll
 0001:000267c4       ??0RadixSortBuffered@Cm@physx@@QEAA@XZ 00000001800277c4 f   PhysXCommon_64:PhysXCommon_64.dll
 0001:000267ca       __tailMerge_physxcommon_64_dll 00000001800277ca     PhysXCommon_64:PhysXCommon_64.dll
 0001:00026843       __imp_load_??1RadixSortBuffered@Cm@physx@@UEAA@XZ 0000000180027843 f   PhysXCommon_64:PhysXCommon_64.dll
 0001:0002684f       ??1RadixSortBuffered@Cm@physx@@UEAA@XZ 000000018002784f f   PhysXCommon_64:PhysXCommon_64.dll
 0001:00026855       __imp_load_?Sort@RadixSortBuffered@Cm@physx@@QEAAAEAV123@PEBIIW4RadixHint@23@@Z 0000000180027855 f   PhysXCommon_64:PhysXCommon_64.dll
 0001:00026861       ?Sort@RadixSortBuffered@Cm@physx@@QEAAAEAV123@PEBIIW4RadixHint@23@@Z 0000000180027861 f   PhysXCommon_64:PhysXCommon_64.dll
 0001:00026867       __imp_load_??0HeightField@Gu@physx@@QEAA@PEAVGuMeshFactory@2@@Z 0000000180027867 f   PhysXCommon_64:PhysXCommon_64.dll
 0001:00026873       ??0HeightField@Gu@physx@@QEAA@PEAVGuMeshFactory@2@@Z 0000000180027873 f   PhysXCommon_64:PhysXCommon_64.dll
 0001:00026879       __imp_load_?loadFromDesc@HeightField@Gu@physx@@QEAA_NAEBVPxHeightFieldDesc@3@@Z 0000000180027879 f   PhysXCommon_64:PhysXCommon_64.dll
 0001:00026885       ?loadFromDesc@HeightField@Gu@physx@@QEAA_NAEBVPxHeightFieldDesc@3@@Z 0000000180027885 f   PhysXCommon_64:PhysXCommon_64.dll
 0001:0002688b       __imp_load_?computeCellCoordinates@HeightField@Gu@physx@@QEBAIMMAEAM0@Z 000000018002788b f   PhysXCommon_64:PhysXCommon_64.dll
 0001:00026897       ?computeCellCoordinates@HeightField@Gu@physx@@QEBAIMMAEAM0@Z 0000000180027897 f   PhysXCommon_64:PhysXCommon_64.dll
 0001:0002689d       __imp_load_?releaseMemory@HeightField@Gu@physx@@QEAAXXZ 000000018002789d f   PhysXCommon_64:PhysXCommon_64.dll
 0001:000268a9       ?releaseMemory@HeightField@Gu@physx@@QEAAXXZ 00000001800278a9 f   PhysXCommon_64:PhysXCommon_64.dll
 0001:000268af       __imp_load_??1HeightField@Gu@physx@@UEAA@XZ 00000001800278af f   PhysXCommon_64:PhysXCommon_64.dll
 0001:000268bb       ??1HeightField@Gu@physx@@UEAA@XZ 00000001800278bb f   PhysXCommon_64:PhysXCommon_64.dll
 0001:000268c1       __imp_load_??0NodeAllocator@Gu@physx@@QEAA@XZ 00000001800278c1 f   PhysXCommon_64:PhysXCommon_64.dll
 0001:000268cd       ??0NodeAllocator@Gu@physx@@QEAA@XZ 00000001800278cd f   PhysXCommon_64:PhysXCommon_64.dll
 0001:000268d3       __imp_load_??1NodeAllocator@Gu@physx@@QEAA@XZ 00000001800278d3 f   PhysXCommon_64:PhysXCommon_64.dll
 0001:000268df       ??1NodeAllocator@Gu@physx@@QEAA@XZ 00000001800278df f   PhysXCommon_64:PhysXCommon_64.dll
 0001:000268e5       __imp_load_?release@NodeAllocator@Gu@physx@@QEAAXXZ 00000001800278e5 f   PhysXCommon_64:PhysXCommon_64.dll
 0001:000268f1       ?release@NodeAllocator@Gu@physx@@QEAAXXZ 00000001800278f1 f   PhysXCommon_64:PhysXCommon_64.dll
 0001:000268f7       __imp_load_?buildAABBTree@Gu@physx@@YA_NAEAVAABBTreeBuildParams@12@AEAVNodeAllocator@12@AEAUBuildStats@12@AEAPEAI@Z 00000001800278f7 f   PhysXCommon_64:PhysXCommon_64.dll
 0001:00026903       ?buildAABBTree@Gu@physx@@YA_NAEAVAABBTreeBuildParams@12@AEAVNodeAllocator@12@AEAUBuildStats@12@AEAPEAI@Z 0000000180027903 f   PhysXCommon_64:PhysXCommon_64.dll
 0001:00026909       __imp_load_?writeDword@physx@@YAXI_NAEAVPxOutputStream@1@@Z 0000000180027909 f   PhysXCommon_64:PhysXCommon_64.dll
 0001:00026915       ?writeDword@physx@@YAXI_NAEAVPxOutputStream@1@@Z 0000000180027915 f   PhysXCommon_64:PhysXCommon_64.dll
 0001:0002691b       __imp_load_?writeFloatBuffer@physx@@YAXPEBMI_NAEAVPxOutputStream@1@@Z 000000018002791b f   PhysXCommon_64:PhysXCommon_64.dll
 0001:00026927       ?writeFloatBuffer@physx@@YAXPEBMI_NAEAVPxOutputStream@1@@Z 0000000180027927 f   PhysXCommon_64:PhysXCommon_64.dll
 0001:0002692d       __imp_load_?writeHeader@physx@@YA_NCCCCI_NAEAVPxOutputStream@1@@Z 000000018002792d f   PhysXCommon_64:PhysXCommon_64.dll
 0001:00026939       ?writeHeader@physx@@YA_NCCCCI_NAEAVPxOutputStream@1@@Z 0000000180027939 f   PhysXCommon_64:PhysXCommon_64.dll
 0001:0002693f       __imp_load_?writeWord@physx@@YAXG_NAEAVPxOutputStream@1@@Z 000000018002793f f   PhysXCommon_64:PhysXCommon_64.dll
 0001:0002694b       ?writeWord@physx@@YAXG_NAEAVPxOutputStream@1@@Z 000000018002794b f   PhysXCommon_64:PhysXCommon_64.dll
 0001:00026951       __imp_load_?writeFloat@physx@@YAXM_NAEAVPxOutputStream@1@@Z 0000000180027951 f   PhysXCommon_64:PhysXCommon_64.dll
 0001:0002695d       ?writeFloat@physx@@YAXM_NAEAVPxOutputStream@1@@Z 000000018002795d f   PhysXCommon_64:PhysXCommon_64.dll
 0001:00026963       __imp_load_?computeBoundsAroundVertices@Gu@physx@@YAXAEAVPxBounds3@2@IPEIBVPxVec3@2@@Z 0000000180027963 f   PhysXCommon_64:PhysXCommon_64.dll
 0001:0002696f       ?computeBoundsAroundVertices@Gu@physx@@YAXAEAVPxBounds3@2@IPEIBVPxVec3@2@@Z 000000018002796f f   PhysXCommon_64:PhysXCommon_64.dll
 0001:00026975       __imp_load_??0SourceMesh@Gu@physx@@QEAA@XZ 0000000180027975 f   PhysXCommon_64:PhysXCommon_64.dll
 0001:00026981       ??0SourceMesh@Gu@physx@@QEAA@XZ 0000000180027981 f   PhysXCommon_64:PhysXCommon_64.dll
 0001:00026987       __imp_load_??1SourceMesh@Gu@physx@@QEAA@XZ 0000000180027987 f   PhysXCommon_64:PhysXCommon_64.dll
 0001:00026993       ??1SourceMesh@Gu@physx@@QEAA@XZ 0000000180027993 f   PhysXCommon_64:PhysXCommon_64.dll
 0001:00026999       __imp_load_??0BV4Tree@Gu@physx@@QEAA@XZ 0000000180027999 f   PhysXCommon_64:PhysXCommon_64.dll
 0001:000269a5       ??0BV4Tree@Gu@physx@@QEAA@XZ 00000001800279a5 f   PhysXCommon_64:PhysXCommon_64.dll
 0001:000269ab       __imp_load_??1BV4Tree@Gu@physx@@QEAA@XZ 00000001800279ab f   PhysXCommon_64:PhysXCommon_64.dll
 0001:000269b7       ??1BV4Tree@Gu@physx@@QEAA@XZ 00000001800279b7 f   PhysXCommon_64:PhysXCommon_64.dll
 0001:000269bd       __imp_load_??0BV32Tree@Gu@physx@@QEAA@XZ 00000001800279bd f   PhysXCommon_64:PhysXCommon_64.dll
 0001:000269c9       ??0BV32Tree@Gu@physx@@QEAA@XZ 00000001800279c9 f   PhysXCommon_64:PhysXCommon_64.dll
 0001:000269cf       __imp_load_??1BV32Tree@Gu@physx@@QEAA@XZ 00000001800279cf f   PhysXCommon_64:PhysXCommon_64.dll
 0001:000269db       ??1BV32Tree@Gu@physx@@QEAA@XZ 00000001800279db f   PhysXCommon_64:PhysXCommon_64.dll
 0001:000269e1       __imp_load_?writeWordBuffer@physx@@YAXPEBGI_NAEAVPxOutputStream@1@@Z 00000001800279e1 f   PhysXCommon_64:PhysXCommon_64.dll
 0001:000269ed       ?writeWordBuffer@physx@@YAXPEBGI_NAEAVPxOutputStream@1@@Z 00000001800279ed f   PhysXCommon_64:PhysXCommon_64.dll
 0001:000269f3       __imp_load_?computeMaxIndex@physx@@YAIPEBII@Z 00000001800279f3 f   PhysXCommon_64:PhysXCommon_64.dll
 0001:000269ff       ?computeMaxIndex@physx@@YAIPEBII@Z 00000001800279ff f   PhysXCommon_64:PhysXCommon_64.dll
 0001:00026a05       __imp_load_?storeIndices@physx@@YAXIIPEBIAEAVPxOutputStream@1@_N@Z 0000000180027a05 f   PhysXCommon_64:PhysXCommon_64.dll
 0001:00026a11       ?storeIndices@physx@@YAXIIPEBIAEAVPxOutputStream@1@_N@Z 0000000180027a11 f   PhysXCommon_64:PhysXCommon_64.dll
 0001:00026a17       __imp_load_?BuildBV4Ex@Gu@physx@@YA_NAEAVBV4Tree@12@AEAVSourceMesh@12@MI@Z 0000000180027a17 f   PhysXCommon_64:PhysXCommon_64.dll
 0001:00026a23       ?BuildBV4Ex@Gu@physx@@YA_NAEAVBV4Tree@12@AEAVSourceMesh@12@MI@Z 0000000180027a23 f   PhysXCommon_64:PhysXCommon_64.dll
 0001:00026a29       __imp_load_?BuildBV32Ex@Gu@physx@@YA_NAEAVBV32Tree@12@AEAVSourceMesh@12@MI@Z 0000000180027a29 f   PhysXCommon_64:PhysXCommon_64.dll
 0001:00026a35       ?BuildBV32Ex@Gu@physx@@YA_NAEAVBV32Tree@12@AEAVSourceMesh@12@MI@Z 0000000180027a35 f   PhysXCommon_64:PhysXCommon_64.dll
 0001:00026a3b       __imp_load_?computeMaxIndex@physx@@YAGPEBGI@Z 0000000180027a3b f   PhysXCommon_64:PhysXCommon_64.dll
 0001:00026a47       ?computeMaxIndex@physx@@YAGPEBGI@Z 0000000180027a47 f   PhysXCommon_64:PhysXCommon_64.dll
 0001:00026a4d       __imp_load_?WriteHeader@Gu@physx@@YA_NEEEEI_NAEAVPxOutputStream@2@@Z 0000000180027a4d f   PhysXCommon_64:PhysXCommon_64.dll
 0001:00026a59       ?WriteHeader@Gu@physx@@YA_NEEEEI_NAEAVPxOutputStream@2@@Z 0000000180027a59 f   PhysXCommon_64:PhysXCommon_64.dll
 0001:00026a5f       __imp_load_?StoreIndices@Gu@physx@@YAXGIPEBGAEAVPxOutputStream@2@_N@Z 0000000180027a5f f   PhysXCommon_64:PhysXCommon_64.dll
 0001:00026a6b       ?StoreIndices@Gu@physx@@YAXGIPEBGAEAVPxOutputStream@2@_N@Z 0000000180027a6b f   PhysXCommon_64:PhysXCommon_64.dll
 0001:00026a71       __imp_load_?CreateOffsets@BigConvexData@physx@@IEAAXXZ 0000000180027a71 f   PhysXCommon_64:PhysXCommon_64.dll
 0001:00026a7d       ?CreateOffsets@BigConvexData@physx@@IEAAXXZ 0000000180027a7d f   PhysXCommon_64:PhysXCommon_64.dll
 0001:00026a83       __imp_load_?computeOBBPoints@Gu@physx@@YAXPEIAVPxVec3@2@AEBV32@1111@Z 0000000180027a83 f   PhysXCommon_64:PhysXCommon_64.dll
 0001:00026a8f       ?computeOBBPoints@Gu@physx@@YAXPEIAVPxVec3@2@AEBV32@1111@Z 0000000180027a8f f   PhysXCommon_64:PhysXCommon_64.dll
 0001:00026a95       __imp_load_??0BigConvexData@physx@@QEAA@XZ 0000000180027a95 f   PhysXCommon_64:PhysXCommon_64.dll
 0001:00026aa1       ??0BigConvexData@physx@@QEAA@XZ 0000000180027aa1 f   PhysXCommon_64:PhysXCommon_64.dll
 0001:00026aa7       __imp_load_??1BigConvexData@physx@@QEAA@XZ 0000000180027aa7 f   PhysXCommon_64:PhysXCommon_64.dll
 0001:00026ab3       ??1BigConvexData@physx@@QEAA@XZ 0000000180027ab3 f   PhysXCommon_64:PhysXCommon_64.dll
 0001:00026ab9       __imp_load_PxGetFoundation 0000000180027ab9 f   PhysXFoundation_64:PhysXFoundation_64.dll
 0001:00026ac5       PxGetFoundation            0000000180027ac5 f   PhysXFoundation_64:PhysXFoundation_64.dll
 0001:00026acb       __tailMerge_physxfoundation_64_dll 0000000180027acb     PhysXFoundation_64:PhysXFoundation_64.dll
 0001:00026b44       __imp_load_?getAllocator@shdfnd@physx@@YAAEAVPxAllocatorCallback@2@XZ 0000000180027b44 f   PhysXFoundation_64:PhysXFoundation_64.dll
 0001:00026b50       ?getAllocator@shdfnd@physx@@YAAEAVPxAllocatorCallback@2@XZ 0000000180027b50 f   PhysXFoundation_64:PhysXFoundation_64.dll
 0001:00026b56       __imp_load_?getInstance@Foundation@shdfnd@physx@@SAAEAV123@XZ 0000000180027b56 f   PhysXFoundation_64:PhysXFoundation_64.dll
 0001:00026b62       ?getInstance@Foundation@shdfnd@physx@@SAAEAV123@XZ 0000000180027b62 f   PhysXFoundation_64:PhysXFoundation_64.dll
 0001:00026b68       __imp_load_?error@Foundation@shdfnd@physx@@QEAAXW4Enum@PxErrorCode@3@PEBDH1ZZ 0000000180027b68 f   PhysXFoundation_64:PhysXFoundation_64.dll
 0001:00026b74       ?error@Foundation@shdfnd@physx@@QEAAXW4Enum@PxErrorCode@3@PEBDH1ZZ 0000000180027b74 f   PhysXFoundation_64:PhysXFoundation_64.dll
 0001:00026b7a       __imp_load_?incRefCount@Foundation@shdfnd@physx@@SAXXZ 0000000180027b7a f   PhysXFoundation_64:PhysXFoundation_64.dll
 0001:00026b86       ?incRefCount@Foundation@shdfnd@physx@@SAXXZ 0000000180027b86 f   PhysXFoundation_64:PhysXFoundation_64.dll
 0001:00026b8c       __imp_load_?decRefCount@Foundation@shdfnd@physx@@SAXXZ 0000000180027b8c f   PhysXFoundation_64:PhysXFoundation_64.dll
 0001:00026b98       ?decRefCount@Foundation@shdfnd@physx@@SAXXZ 0000000180027b98 f   PhysXFoundation_64:PhysXFoundation_64.dll
 0001:00026b9e       __imp_load_??0FPUGuard@shdfnd@physx@@QEAA@XZ 0000000180027b9e f   PhysXFoundation_64:PhysXFoundation_64.dll
 0001:00026baa       ??0FPUGuard@shdfnd@physx@@QEAA@XZ 0000000180027baa f   PhysXFoundation_64:PhysXFoundation_64.dll
 0001:00026bb0       __imp_load_??1FPUGuard@shdfnd@physx@@QEAA@XZ 0000000180027bb0 f   PhysXFoundation_64:PhysXFoundation_64.dll
 0001:00026bbc       ??1FPUGuard@shdfnd@physx@@QEAA@XZ 0000000180027bbc f   PhysXFoundation_64:PhysXFoundation_64.dll
 0001:00026bc2       __imp_load_?allocate@TempAllocator@shdfnd@physx@@QEAAPEAX_KPEBDH@Z 0000000180027bc2 f   PhysXFoundation_64:PhysXFoundation_64.dll
 0001:00026bce       ?allocate@TempAllocator@shdfnd@physx@@QEAAPEAX_KPEBDH@Z 0000000180027bce f   PhysXFoundation_64:PhysXFoundation_64.dll
 0001:00026bd4       __imp_load_?deallocate@TempAllocator@shdfnd@physx@@QEAAXPEAX@Z 0000000180027bd4 f   PhysXFoundation_64:PhysXFoundation_64.dll
 0001:00026be0       ?deallocate@TempAllocator@shdfnd@physx@@QEAAXPEAX@Z 0000000180027be0 f   PhysXFoundation_64:PhysXFoundation_64.dll
 0001:00026be6       __imp_load_?PxDiagonalize@physx@@YA?AVPxVec3@1@AEBVPxMat33@1@AEAVPxQuat@1@@Z 0000000180027be6 f   PhysXFoundation_64:PhysXFoundation_64.dll
 0001:00026bf2       ?PxDiagonalize@physx@@YA?AVPxVec3@1@AEBVPxMat33@1@AEAVPxQuat@1@@Z 0000000180027bf2 f   PhysXFoundation_64:PhysXFoundation_64.dll
 0001:00026bf8       ?DloadAcquireSectionWriteAccess@@YAXXZ 0000000180027bf8 f i Delayimp:delayhlp.obj
 0001:00026ca4       ?DloadGetSRWLockFunctionPointers@@YAEXZ 0000000180027ca4 f i Delayimp:delayhlp.obj
 0001:00026d44       ?DloadMakePermanentImageCommit@@YAXPEAX_K@Z 0000000180027d44 f i Delayimp:delayhlp.obj
 0001:00026ddc       ?DloadObtainSection@@YAPEAXPEAK0@Z 0000000180027ddc f i Delayimp:delayhlp.obj
 0001:00026e78       ?DloadProtectSection@@YAXKPEAK@Z 0000000180027e78 f i Delayimp:delayhlp.obj
 0001:00026f08       ?DloadReleaseSectionWriteAccess@@YAXXZ 0000000180027f08 f i Delayimp:delayhlp.obj
 0001:00026f9c       __delayLoadHelper2         0000000180027f9c f   Delayimp:delayhlp.obj
 0001:00027274       ??3@YAXPEAX_K@Z            0000000180028274 f   LIBCMT:delete_scalar_size.obj
 0001:00027274       ??_V@YAXPEAX@Z             0000000180028274 f   LIBCMT:delete_array.obj
 0001:0002727c       ??_Etype_info@@UEAAPEAXI@Z 000000018002827c f i LIBCMT:std_type_info_static.obj
 0001:0002727c       ??_Gtype_info@@UEAAPEAXI@Z 000000018002827c f i LIBCMT:std_type_info_static.obj
 0001:000272a8       ?__scrt_initialize_type_info@@YAXXZ 00000001800282a8 f   LIBCMT:tncleanup.obj
 0001:000272b8       ?__scrt_uninitialize_type_info@@YAXXZ 00000001800282b8 f   LIBCMT:tncleanup.obj
 0001:000272e0       __chkstk                   00000001800282e0 f   LIBCMT:chkstk.obj
 0001:000272e0       _alloca_probe              00000001800282e0 f   LIBCMT:chkstk.obj
 0001:00027330       ??3@YAXPEAX@Z              0000000180028330 f   LIBCMT:delete_scalar.obj
 0001:00027340       __vdecl_sinf4              0000000180028340 f   LIBCMT:svml_ssinf4_dispatch.obj
 0001:00027360       __libm_sse2_sincosf_       0000000180028360 f   LIBCMT:svml_ssinf4_dispatch.obj
 0001:000273a3       __libm_sse2_sincosf4_      00000001800283a3 f   LIBCMT:svml_ssinf4_dispatch.obj
 0001:000276d0       _DllMainCRTStartup         00000001800286d0 f   LIBCMT:dll_dllmain.obj
 0001:00027710       __isa_available_init       0000000180028710 f   LIBCMT:cpu_disp.obj
 0001:000278c0       __sse2_sinf4@@16           00000001800288c0 f   LIBCMT:svml_ssinf4_sse2.obj
 0001:00028200       __sse4_sinf4@@16           0000000180029200 f   LIBCMT:svml_ssinf4_sse4.obj
 0001:00028974       __security_init_cookie     0000000180029974 f   LIBCMT:gs_support.obj
 0001:00028a20       __local_stdio_printf_options 0000000180029a20 f i LIBCMT:default_local_stdio_options.obj
 0001:00028a28       __local_stdio_scanf_options 0000000180029a28 f i LIBCMT:default_local_stdio_options.obj
 0001:00028a30       __scrt_initialize_default_local_stdio_options 0000000180029a30 f   LIBCMT:default_local_stdio_options.obj
 0001:00028a4c       __scrt_acquire_startup_lock 0000000180029a4c f   LIBCMT:utility.obj
 0001:00028a88       __scrt_dllmain_after_initialize_c 0000000180029a88 f   LIBCMT:utility.obj
 0001:00028abc       __scrt_dllmain_before_initialize_c 0000000180029abc f   LIBCMT:utility.obj
 0001:00028ad4       __scrt_dllmain_crt_thread_attach 0000000180029ad4 f   LIBCMT:utility.obj
 0001:00028afc       __scrt_dllmain_crt_thread_detach 0000000180029afc f   LIBCMT:utility.obj
 0001:00028b14       __scrt_dllmain_exception_filter 0000000180029b14 f   LIBCMT:utility.obj
 0001:00028b74       __scrt_dllmain_uninitialize_c 0000000180029b74 f   LIBCMT:utility.obj
 0001:00028ba4       __scrt_dllmain_uninitialize_critical 0000000180029ba4 f   LIBCMT:utility.obj
 0001:00028bb8       __scrt_initialize_crt      0000000180029bb8 f   LIBCMT:utility.obj
 0001:00028c04       __scrt_initialize_onexit_tables 0000000180029c04 f   LIBCMT:utility.obj
 0001:00028c90       __scrt_is_nonwritable_in_current_image 0000000180029c90 f   LIBCMT:utility.obj
 0001:00028d28       __scrt_release_startup_lock 0000000180029d28 f   LIBCMT:utility.obj
 0001:00028d4c       __scrt_uninitialize_crt    0000000180029d4c f   LIBCMT:utility.obj
 0001:00028d78       __scrt_get_dyn_tls_init_callback 0000000180029d78 f   LIBCMT:dyn_tls_init.obj
 0001:00028d80       __crt_debugger_hook        0000000180029d80 f   LIBCMT:utility_desktop.obj
 0001:00028d88       __scrt_fastfail            0000000180029d88 f   LIBCMT:utility_desktop.obj
 0001:00028ed4       _RTC_Initialize            0000000180029ed4 f   LIBCMT:initsect.obj
 0001:00028f10       _RTC_Terminate             0000000180029f10 f   LIBCMT:initsect.obj
 0001:00028f50       __common_ssin_cout_rare    0000000180029f50 f   LIBCMT:svml_s_sin_cout.obj
 0001:00028fc0       __scrt_is_ucrt_dll_in_use  0000000180029fc0 f   LIBCMT:ucrt_detection.obj
 0001:00028fcc       _get_purecall_handler      0000000180029fcc f   libvcruntime:purevirt.obj
 0001:00028fd8       _purecall                  0000000180029fd8 f   libvcruntime:purevirt.obj
 0001:00028ffc       __std_type_info_compare    0000000180029ffc f   libvcruntime:std_type_info.obj
 0001:00029024       __std_type_info_destroy_list 000000018002a024 f   libvcruntime:std_type_info.obj
 0001:00029050       __std_type_info_name       000000018002a050 f   libvcruntime:std_type_info.obj
 0001:00029180       memset_repstos             000000018002a180 f   libvcruntime:memset.obj
 0001:000291a0       memset                     000000018002a1a0 f   libvcruntime:memset.obj
 0001:00029540       memcpy_repmovs             000000018002a540 f   libvcruntime:memcpy.obj
 0001:00029560       memcpy                     000000018002a560 f   libvcruntime:memcpy.obj
 0001:00029560       memmove                    000000018002a560 f   libvcruntime:memcpy.obj
 0001:00029bd8       strstr                     000000018002abd8 f   libvcruntime:strstr.obj
 0001:00029dd0       __C_specific_handler       000000018002add0 f   libvcruntime:riscchandler.obj
 0001:00029fc8       __vcrt_initialize          000000018002afc8 f   libvcruntime:initialization.obj
 0001:00029ff0       __vcrt_thread_attach       000000018002aff0 f   libvcruntime:initialization.obj
 0001:0002a004       __vcrt_thread_detach       000000018002b004 f   libvcruntime:initialization.obj
 0001:0002a018       __vcrt_uninitialize        000000018002b018 f   libvcruntime:initialization.obj
 0001:0002a034       __vcrt_uninitialize_critical 000000018002b034 f   libvcruntime:initialization.obj
 0001:0002a044       __DestructExceptionObject  000000018002b044 f   libvcruntime:ehhelpers.obj
 0001:0002a0b4       ?_CallMemberFunction0@@YAXQEAX0@Z 000000018002b0b4 f i libvcruntime:ehhelpers.obj
 0001:0002a0b8       _IsExceptionObjectToBeDestroyed 000000018002b0b8 f   libvcruntime:ehhelpers.obj
 0001:0002a0e8       __AdjustPointer            000000018002b0e8 f   libvcruntime:ehhelpers.obj
 0001:0002a10c       __FrameUnwindFilter        000000018002b10c f   libvcruntime:ehhelpers.obj
 0001:0002a174       ??$?0$00@DName@@QEAA@PEBDU?$StringLifeSelector@$00@@@Z 000000018002b174 f i libvcruntime:undname.obj
 0001:0002a1b4       ??$?0$01@DName@@QEAA@PEBDU?$StringLifeSelector@$01@@@Z 000000018002b1b4 f i libvcruntime:undname.obj
 0001:0002a1b4       ??$?0$0A@@DName@@QEAA@PEBDU?$StringLifeSelector@$0A@@@@Z 000000018002b1b4 f i libvcruntime:undname.obj
 0001:0002a1f4       ??$?0$01@pcharNode@@QEAA@PEBDHU?$StringLifeSelector@$01@@@Z 000000018002b1f4 f i libvcruntime:undname.obj
 0001:0002a1f4       ??$?0$0A@@pcharNode@@QEAA@PEBDHU?$StringLifeSelector@$0A@@@@Z 000000018002b1f4 f i libvcruntime:undname.obj
 0001:0002a268       ??$append@VDNameNode@@@DName@@AEAAXPEBVDNameNode@@@Z 000000018002b268 f i libvcruntime:undname.obj
 0001:0002a268       ??$append@VDNameStatusNode@@@DName@@AEAAXPEBVDNameStatusNode@@@Z 000000018002b268 f i libvcruntime:undname.obj
 0001:0002a268       ??$append@VcharNode@@@DName@@AEAAXPEBVcharNode@@@Z 000000018002b268 f i libvcruntime:undname.obj
 0001:0002a268       ??$append@VpcharNode@@@DName@@AEAAXPEBVpcharNode@@@Z 000000018002b268 f i libvcruntime:undname.obj
 0001:0002a2cc       ??$doPchar@$00@DName@@AEAAXPEBDH@Z 000000018002b2cc f i libvcruntime:undname.obj
 0001:0002a370       ??$doPchar@$01@DName@@AEAAXPEBDH@Z 000000018002b370 f i libvcruntime:undname.obj
 0001:0002a370       ??$doPchar@$0A@@DName@@AEAAXPEBDH@Z 000000018002b370 f i libvcruntime:undname.obj
 0001:0002a408       ??0DName@@QEAA@AEAPEBDD@Z  000000018002b408 f   libvcruntime:undname.obj
 0001:0002a4b8       ??0DName@@QEAA@AEBUStringLiteral@@@Z 000000018002b4b8 f   libvcruntime:undname.obj
 0001:0002a4e4       ??0DName@@QEAA@PEAV0@@Z    000000018002b4e4 f   libvcruntime:undname.obj
 0001:0002a568       ??0DName@@QEAA@_J@Z        000000018002b568 f   libvcruntime:undname.obj
 0001:0002a610       ??0DName@@QEAA@_K@Z        000000018002b610 f   libvcruntime:undname.obj
 0001:0002a6a0       ??2@YAPEAX_KAEAV_HeapManager@@H@Z 000000018002b6a0 f   libvcruntime:undname.obj
 0001:0002a6cc       ??4DName@@QEAAAEAV0@W4DNameStatus@@@Z 000000018002b6cc f   libvcruntime:undname.obj
 0001:0002a6fc       ??AReplicator@@QEBA?AVDName@@H@Z 000000018002b6fc f   libvcruntime:undname.obj
 0001:0002a73c       ??HDName@@QEBA?AV0@AEBUStringLiteral@@@Z 000000018002b73c f   libvcruntime:undname.obj
 0001:0002a768       ??HDName@@QEBA?AV0@AEBV0@@Z 000000018002b768 f   libvcruntime:undname.obj
 0001:0002a794       ??HDName@@QEBA?AV0@D@Z     000000018002b794 f   libvcruntime:undname.obj
 0001:0002a7c0       ??HDName@@QEBA?AV0@W4DNameStatus@@@Z 000000018002b7c0 f   libvcruntime:undname.obj
 0001:0002a7ec       ??YDName@@QEAAAEAV0@AEBUStringLiteral@@@Z 000000018002b7ec f   libvcruntime:undname.obj
 0001:0002a86c       ??YDName@@QEAAAEAV0@AEBV0@@Z 000000018002b86c f   libvcruntime:undname.obj
 0001:0002a8c4       ??YDName@@QEAAAEAV0@D@Z    000000018002b8c4 f   libvcruntime:undname.obj
 0001:0002a930       ??YDName@@QEAAAEAV0@W4DNameStatus@@@Z 000000018002b930 f   libvcruntime:undname.obj
 0001:0002a988       ??YReplicator@@QEAAAEAV0@AEBVDName@@@Z 000000018002b988 f   libvcruntime:undname.obj
 0001:0002a9e0       ?UScore@UnDecorator@@SA?AUStringLiteral@@W4Tokens@@@Z 000000018002b9e0 f   libvcruntime:undname.obj
 0001:0002aa2c       ?composeDeclaration@UnDecorator@@CA?AVDName@@AEBV2@@Z 000000018002ba2c f i libvcruntime:undname.obj
 0001:0002b8c0       ?doPchar@DName@@AEAAXD@Z   000000018002c8c0 f   libvcruntime:undname.obj
 0001:0002b910       ?getAddressOf@UnDecorator@@CA?AVDName@@XZ 000000018002c910 f   libvcruntime:undname.obj
 0001:0002b9a0       ?getArgumentList@UnDecorator@@CA?AVDName@@XZ 000000018002c9a0 f   libvcruntime:undname.obj
 0001:0002bb54       ?getArgumentTypes@UnDecorator@@CA?AVDName@@XZ 000000018002cb54 f   libvcruntime:undname.obj
 0001:0002bca0       ?getArrayAccess@UnDecorator@@CA?AVDName@@XZ 000000018002cca0 f   libvcruntime:undname.obj
 0001:0002bd3c       ?getArrayObject@UnDecorator@@CA?AVDName@@XZ 000000018002cd3c f   libvcruntime:undname.obj
 0001:0002bdf8       ?getArrayType@UnDecorator@@CA?AVDName@@AEBV2@@Z 000000018002cdf8 f i libvcruntime:undname.obj
 0001:0002c040       ?getBasedType@UnDecorator@@CA?AVDName@@XZ 000000018002d040 f   libvcruntime:undname.obj
 0001:0002c138       ?getBasicDataType@UnDecorator@@CA?AVDName@@AEBV2@@Z 000000018002d138 f   libvcruntime:undname.obj
 0001:0002c738       ?getCallingConvention@UnDecorator@@CA?AVDName@@XZ 000000018002d738 f   libvcruntime:undname.obj
 0001:0002c870       ?getDataIndirectType@UnDecorator@@CA?AVDName@@AEBV2@W4IndirectionKind@@0H@Z 000000018002d870 f   libvcruntime:undname.obj
 0001:0002d118       ?getDataType@UnDecorator@@CA?AVDName@@PEAV2@@Z 000000018002e118 f   libvcruntime:undname.obj
 0001:0002d22c       ?getDecoratedName@UnDecorator@@CA?AVDName@@XZ 000000018002e22c f   libvcruntime:undname.obj
 0001:0002d514       ?getDimension@UnDecorator@@CA?AVDName@@_N@Z 000000018002e514 f   libvcruntime:undname.obj
 0001:0002d660       ?getDispatchTarget@UnDecorator@@CA?AVDName@@XZ 000000018002e660 f   libvcruntime:undname.obj
 0001:0002d6ac       ?getECSUDataType@UnDecorator@@CA?AVDName@@XZ 000000018002e6ac f   libvcruntime:undname.obj
 0001:0002d88c       ?getEnumType@UnDecorator@@CA?AVDName@@XZ 000000018002e88c f i libvcruntime:undname.obj
 0001:0002d9bc       ?getExtendedDataIndirectType@UnDecorator@@CA?AVDName@@AEAW4IndirectionKind@@AEA_NH@Z 000000018002e9bc f   libvcruntime:undname.obj
 0001:0002dbc0       ?getExternalDataType@UnDecorator@@CA?AVDName@@AEBV2@@Z 000000018002ebc0 f i libvcruntime:undname.obj
 0001:0002dc80       ?getFloatingPoint@UnDecorator@@CA?AVDName@@H@Z 000000018002ec80 f   libvcruntime:undname.obj
 0001:0002dde4       ?getFunctionIndirectType@UnDecorator@@CA?AVDName@@AEBV2@@Z 000000018002ede4 f   libvcruntime:undname.obj
 0001:0002e30c       ?getLastChar@DNameStatusNode@@UEBADXZ 000000018002f30c f i libvcruntime:undname.obj
 0001:0002e318       ?getLastChar@charNode@@UEBADXZ 000000018002f318 f i libvcruntime:undname.obj
 0001:0002e31c       ?getLastChar@pDNameNode@@UEBADXZ 000000018002f31c f i libvcruntime:undname.obj
 0001:0002e348       ?getLastChar@pairNode@@UEBADXZ 000000018002f348 f i libvcruntime:undname.obj
 0001:0002e380       ?getLastChar@pcharNode@@UEBADXZ 000000018002f380 f i libvcruntime:undname.obj
 0001:0002e394       ?getLexicalFrame@UnDecorator@@CA?AVDName@@XZ 000000018002f394 f i libvcruntime:undname.obj
 0001:0002e3f8       ?getMemberAccess@UnDecorator@@CA?AVDName@@XZ 000000018002f3f8 f   libvcruntime:undname.obj
 0001:0002e48c       ?getMemoryWithBuffer@_HeapManager@@QEAAPEAX_K@Z 000000018002f48c f   libvcruntime:undname.obj
 0001:0002e51c       ?getNoexcept@UnDecorator@@CA?AVDName@@XZ 000000018002f51c f   libvcruntime:undname.obj
 0001:0002e580       ?getNumberOfDimensions@UnDecorator@@CAHXZ 000000018002f580 f   libvcruntime:undname.obj
 0001:0002e5ec       ?getOperatorName@UnDecorator@@CA?AVDName@@_NPEA_N@Z 000000018002f5ec f i libvcruntime:undname.obj
 0001:0002eff8       ?getPointerToMember@UnDecorator@@CA?AVDName@@XZ 000000018002fff8 f   libvcruntime:undname.obj
 0001:0002f0f0       ?getPrimaryDataType@UnDecorator@@CA?AVDName@@AEBV2@@Z 00000001800300f0 f   libvcruntime:undname.obj
 0001:0002f3a8       ?getPtrRefDataType@UnDecorator@@CA?AVDName@@AEBV2@H@Z 00000001800303a8 f   libvcruntime:undname.obj
 0001:0002f574       ?getPtrRefType@UnDecorator@@CA?AVDName@@AEBV2@0W4IndirectionKind@@@Z 0000000180030574 f   libvcruntime:undname.obj
 0001:0002f74c       ?getRestrictionSpec@UnDecorator@@CA?AVDName@@XZ 000000018003074c f   libvcruntime:undname.obj
 0001:0002f928       ?getReturnType@UnDecorator@@CA?AVDName@@PEAV2@@Z 0000000180030928 f   libvcruntime:undname.obj
 0001:0002f95c       ?getScope@UnDecorator@@CA?AVDName@@XZ 000000018003095c f   libvcruntime:undname.obj
 0001:0002fe18       ?getScopedName@UnDecorator@@CA?AVDName@@XZ 0000000180030e18 f   libvcruntime:undname.obj
 0001:0002ff58       ?getSignedDimension@UnDecorator@@CA?AVDName@@XZ 0000000180030f58 f   libvcruntime:undname.obj
 0001:0002ffe0       ?getString@DNameStatusNode@@UEBAPEADPEAD0@Z 0000000180030fe0 f i libvcruntime:undname.obj
 0001:00030028       ?getString@charNode@@UEBAPEADPEAD0@Z 0000000180031028 f i libvcruntime:undname.obj
 0001:0003003c       ?getString@pDNameNode@@UEBAPEADPEAD0@Z 000000018003103c f i libvcruntime:undname.obj
 0001:0003006c       ?getString@pairNode@@UEBAPEADPEAD0@Z 000000018003106c f i libvcruntime:undname.obj
 0001:000300b8       ?getString@pcharNode@@UEBAPEADPEAD0@Z 00000001800310b8 f i libvcruntime:undname.obj
 0001:000300f0       ?getStringEncoding@UnDecorator@@CA?AVDName@@W4PrefixKind@@H@Z 00000001800310f0 f   libvcruntime:undname.obj
 0001:000301e0       ?getStringObject@UnDecorator@@CA?AVDName@@XZ 00000001800311e0 f   libvcruntime:undname.obj
 0001:00030248       ?getSymbolName@UnDecorator@@CA?AVDName@@XZ 0000000180031248 f i libvcruntime:undname.obj
 0001:00030294       ?getTemplateArgumentList@UnDecorator@@CA?AVDName@@XZ 0000000180031294 f   libvcruntime:undname.obj
 0001:000304b0       ?getTemplateName@UnDecorator@@CA?AVDName@@_N@Z 00000001800314b0 f   libvcruntime:undname.obj
 0001:00030744       ?getTemplateNonTypeArgument@UnDecorator@@CA?AVDName@@XZ 0000000180031744 f   libvcruntime:undname.obj
 0001:00030c94       ?getTemplateTypeArgument@UnDecorator@@CA?AVDName@@XZ 0000000180031c94 f   libvcruntime:undname.obj
 0001:00030dfc       ?getThrowTypes@UnDecorator@@CA?AVDName@@XZ 0000000180031dfc f   libvcruntime:undname.obj
 0001:00030e20       ?getTypeEncoding@UnDecorator@@CAHXZ 0000000180031e20 f i libvcruntime:undname.obj
 0001:000311bc       ?getUndecoratedName@UnDecorator@@QEAAPEADPEADH@Z 00000001800321bc f i libvcruntime:undname.obj
 0001:00031310       ?getUnionObject@UnDecorator@@CA?AVDName@@XZ 0000000180032310 f   libvcruntime:undname.obj
 0001:000313e8       ?getVCallThunkType@UnDecorator@@CA?AVDName@@XZ 00000001800323e8 f i libvcruntime:undname.obj
 0001:00031460       ?getValue@UnDecorator@@CA?AV?$optional@_K@std@@XZ 0000000180032460 f   libvcruntime:undname.obj
 0001:000314d4       ?getValueObject@UnDecorator@@CA?AVDName@@XZ 00000001800324d4 f   libvcruntime:undname.obj
 0001:00031614       ?getVdispMapType@UnDecorator@@CA?AVDName@@AEBV2@@Z 0000000180032614 f i libvcruntime:undname.obj
 0001:00031690       ?getVfTableType@UnDecorator@@CA?AVDName@@AEBV2@@Z 0000000180032690 f i libvcruntime:undname.obj
 0001:0003189c       ?getZName@UnDecorator@@CA?AVDName@@_N0@Z 000000018003289c f   libvcruntime:undname.obj
 0001:00031b7c       ?length@DNameStatusNode@@UEBAHXZ 0000000180032b7c f i libvcruntime:undname.obj
 0001:00031b7c       ?raw_length@DNameStatusNode@@UEBAHXZ 0000000180032b7c f i libvcruntime:undname.obj
 0001:00031b80       ?length@pDNameNode@@UEBAHXZ 0000000180032b80 f i libvcruntime:undname.obj
 0001:00031ba8       ?length@pairNode@@UEBAHXZ  0000000180032ba8 f i libvcruntime:undname.obj
 0001:00031bf0       ?parseDecoratedName@UnDecorator@@CA?AVDName@@XZ 0000000180032bf0 f   libvcruntime:undname.obj
 0001:00031d04       ?raw_length@pDNameNode@@UEBAHXZ 0000000180032d04 f i libvcruntime:undname.obj
 0001:00031d08       ?raw_length@pairNode@@UEBAHXZ 0000000180032d08 f i libvcruntime:undname.obj
 0001:00031d0c       __unDName                  0000000180032d0c f   libvcruntime:undname.obj
 0001:00031d34       __unDNameEx                0000000180032d34 f   libvcruntime:undname.obj
 0001:00031e68       snprintf                   0000000180032e68 f i libvcruntime:undname.obj
 0001:00031ec0       sprintf_s                  0000000180032ec0 f i libvcruntime:undname.obj
 0001:00031f30       _NLG_Notify                0000000180032f30 f   libvcruntime:notify.obj
 0001:00031f50       __NLG_Dispatch2            0000000180032f50 f   libvcruntime:notify.obj
 0001:00031f60       __NLG_Return2              0000000180032f60 f   libvcruntime:notify.obj
 0001:00031f64       __except_validate_context_record 0000000180032f64 f   libvcruntime:jbcxrval.obj
 0001:00031f9c       __vcrt_freefls             0000000180032f9c f   libvcruntime:per_thread_data.obj
 0001:00031fbc       __vcrt_freeptd             0000000180032fbc f   libvcruntime:per_thread_data.obj
 0001:0003200c       __vcrt_getptd              000000018003300c f   libvcruntime:per_thread_data.obj
 0001:00032028       __vcrt_getptd_noexit       0000000180033028 f   libvcruntime:per_thread_data.obj
 0001:000320e8       __vcrt_initialize_ptd      00000001800330e8 f   libvcruntime:per_thread_data.obj
 0001:00032130       __vcrt_uninitialize_ptd    0000000180033130 f   libvcruntime:per_thread_data.obj
 0001:00032154       __vcrt_initialize_locks    0000000180033154 f   libvcruntime:locks.obj
 0001:0003219c       __vcrt_lock                000000018003319c f   libvcruntime:locks.obj
 0001:000321b8       __vcrt_uninitialize_locks  00000001800331b8 f   libvcruntime:locks.obj
 0001:000321f0       __vcrt_unlock              00000001800331f0 f   libvcruntime:locks.obj
 0001:0003220c       ??$_CallSETranslator@V__FrameHandler4@@@@YAHPEAUEHExceptionRecord@@PEA_KPEAU_CONTEXT@@PEAU_xDISPATCHER_CONTEXT@@PEAUFuncInfo4@FH4@@K1H@Z 000000018003320c f i libvcruntime:risctrnsctrl.obj
 0001:00032260       ?DecompFuncInfo@FH4@@YA_JPEAEAEAUFuncInfo4@1@_KH_N@Z 0000000180033260 f i libvcruntime:risctrnsctrl.obj
 0001:00032384       ?ExecutionInCatch@__FrameHandler4@@SA_NPEAU_xDISPATCHER_CONTEXT@@PEAUFuncInfo4@FH4@@@Z 0000000180033384 f   libvcruntime:risctrnsctrl.obj
 0001:0003238c       ?FrameUnwindToEmptyState@__FrameHandler4@@SAXPEA_KPEAU_xDISPATCHER_CONTEXT@@PEAUFuncInfo4@FH4@@@Z 000000018003338c f   libvcruntime:risctrnsctrl.obj
 0001:000323c0       ?GetEstablisherFrame@__FrameHandler4@@SAPEA_KPEA_KPEAU_xDISPATCHER_CONTEXT@@PEAUFuncInfo4@FH4@@0@Z 00000001800333c0 f   libvcruntime:risctrnsctrl.obj
 0001:000323e4       ?GetRangeOfTrysToCheck@__FrameHandler4@@SA?AU?$pair@Viterator@TryBlockMap4@FH4@@V123@@std@@AEAVTryBlockMap4@FH4@@HPEAU_xDISPATCHER_CONTEXT@@PEAUFuncInfo4@5@H@Z 00000001800333e4 f   libvcruntime:risctrnsctrl.obj
 0001:00032550       ?UnwindNestedFrames@__FrameHandler4@@SAXPEA_KPEAUEHExceptionRecord@@PEAU_CONTEXT@@0PEAXPEAUFuncInfo4@FH4@@HHPEAUHandlerType4@5@PEAU_xDISPATCHER_CONTEXT@@E@Z 0000000180033550 f   libvcruntime:risctrnsctrl.obj
 0001:00032670       ?setBuffer@TryBlockMap4@FH4@@QEAAXViterator@12@@Z 0000000180033670 f i libvcruntime:risctrnsctrl.obj
 0001:00032834       _CreateFrameInfo           0000000180033834 f   libvcruntime:risctrnsctrl.obj
 0001:00032870       _FindAndUnlinkFrame        0000000180033870 f   libvcruntime:risctrnsctrl.obj
 0001:000328c4       _GetImageBase              00000001800338c4 f   libvcruntime:risctrnsctrl.obj
 0001:000328d8       _GetThrowImageBase         00000001800338d8 f   libvcruntime:risctrnsctrl.obj
 0001:000328ec       _SetImageBase              00000001800338ec f   libvcruntime:risctrnsctrl.obj
 0001:00032904       _SetThrowImageBase         0000000180033904 f   libvcruntime:risctrnsctrl.obj
 0001:0003291c       __CxxFrameHandler4         000000018003391c f   libvcruntime:risctrnsctrl.obj
 0001:00032b2c       __vcrt_FlsAlloc            0000000180033b2c f   libvcruntime:winapi_downlevel.obj
 0001:00032b74       __vcrt_FlsFree             0000000180033b74 f   libvcruntime:winapi_downlevel.obj
 0001:00032bbc       __vcrt_FlsGetValue         0000000180033bbc f   libvcruntime:winapi_downlevel.obj
 0001:00032c04       __vcrt_FlsSetValue         0000000180033c04 f   libvcruntime:winapi_downlevel.obj
 0001:00032c58       __vcrt_InitializeCriticalSectionEx 0000000180033c58 f   libvcruntime:winapi_downlevel.obj
 0001:00032cbc       ?StateFromControlPc@__FrameHandler4@@SAHPEAUFuncInfo4@FH4@@PEAU_xDISPATCHER_CONTEXT@@@Z 0000000180033cbc f   libvcruntime:ehstate.obj
 0001:00032cc4       ?StateFromIp@__FrameHandler4@@SAHPEAUFuncInfo4@FH4@@PEAU_xDISPATCHER_CONTEXT@@_K@Z 0000000180033cc4 f   libvcruntime:ehstate.obj
 0001:0003393c       ??$TypeMatchHelper@V__FrameHandler3@@@@YAHPEBU_s_HandlerType@@PEBU_s_CatchableType@@PEBU_s_ThrowInfo@@@Z 000000018003493c f i libvcruntime:frame.obj
 0001:00033a7c       ??$TypeMatchHelper@V__FrameHandler4@@@@YAHPEAUHandlerType4@FH4@@PEBU_s_CatchableType@@PEBU_s_ThrowInfo@@@Z 0000000180034a7c f i libvcruntime:frame.obj
 0001:00033bc0       ??$__InternalCxxFrameHandler@V__FrameHandler4@@@@YA?AW4_EXCEPTION_DISPOSITION@@PEAUEHExceptionRecord@@PEA_KPEAU_CONTEXT@@PEAU_xDISPATCHER_CONTEXT@@PEAUFuncInfo4@FH4@@H1E@Z 0000000180034bc0 f i libvcruntime:frame.obj
 0001:00033e54       ??0HandlerMap4@FH4@@QEAA@PEBUTryBlockMapEntry4@1@_KH@Z 0000000180034e54 f i libvcruntime:frame.obj
 0001:00033ed0       ??0TryBlockMap4@FH4@@QEAA@PEBUFuncInfo4@1@_K@Z 0000000180034ed0 f i libvcruntime:frame.obj
 0001:00033fa8       ??0bad_exception@std@@QEAA@AEBV01@@Z 0000000180034fa8 f i libvcruntime:frame.obj
 0001:00033fe4       ??0bad_exception@std@@QEAA@XZ 0000000180034fe4 f i libvcruntime:frame.obj
 0001:00034004       ??0exception@std@@QEAA@AEBV01@@Z 0000000180035004 f i libvcruntime:frame.obj
 0001:00034038       ??1bad_exception@std@@UEAA@XZ 0000000180035038 f i libvcruntime:frame.obj
 0001:0003404c       ??_Ebad_exception@std@@UEAAPEAXI@Z 000000018003504c f i libvcruntime:frame.obj
 0001:0003404c       ??_Eexception@std@@UEAAPEAXI@Z 000000018003504c f i libvcruntime:frame.obj
 0001:0003404c       ??_Gbad_exception@std@@UEAAPEAXI@Z 000000018003504c f i libvcruntime:frame.obj
 0001:0003404c       ??_Gexception@std@@UEAAPEAXI@Z 000000018003504c f i libvcruntime:frame.obj
 0001:00034090       ?CxxCallCatchBlock@__FrameHandler4@@SAPEAXPEAU_EXCEPTION_RECORD@@@Z 0000000180035090 f   libvcruntime:frame.obj
 0001:000342e0       ?DecompHandler@HandlerMap4@FH4@@AEAAXXZ 00000001800352e0 f i libvcruntime:frame.obj
 0001:0003452c       ?FrameUnwindToState@__FrameHandler4@@SAXPEA_KPEAU_xDISPATCHER_CONTEXT@@PEAUFuncInfo4@FH4@@H@Z 000000018003552c f   libvcruntime:frame.obj
 0001:000349a0       ?ReadEntry@UWMap4@FH4@@AEAAXPEAPEAE@Z 00000001800359a0 f i libvcruntime:frame.obj
 0001:00034a3c       ?_CallMemberFunction1@@YAXQEAX00@Z 0000000180035a3c f i libvcruntime:frame.obj
 0001:00034a48       ?_CallMemberFunction2@@YAXQEAX00H@Z 0000000180035a48 f i libvcruntime:frame.obj
 0001:00034a58       ?getStartStop@UWMap4@FH4@@QEAAXHHAEAViterator@12@0@Z 0000000180035a58 f i libvcruntime:frame.obj
 0001:00034b28       ?getStateFromIterators@UWMap4@FH4@@SAHAEBViterator@12@H0H0@Z 0000000180035b28 f i libvcruntime:frame.obj
 0001:00034bd8       ?what@exception@std@@UEBAPEBDXZ 0000000180035bd8 f i libvcruntime:frame.obj
 0001:00034c00       _CallSettingFrame          0000000180035c00 f   libvcruntime:handlers.obj
 0001:00034c50       _CallSettingFrame_LookupContinuationIndex 0000000180035c50 f   libvcruntime:handlers.obj
 0001:00034c80       _CallSettingFrame_NotifyContinuationAddr 0000000180035c80 f   libvcruntime:handlers.obj
 0001:00034cb0       _CallSettingFrameEncoded   0000000180035cb0 f   libvcruntime:handlers.obj
 0001:00034cf8       __std_exception_copy       0000000180035cf8 f   libvcruntime:std_exception.obj
 0001:00034d88       __std_exception_destroy    0000000180035d88 f   libvcruntime:std_exception.obj
 0001:00034db0       _CxxThrowException         0000000180035db0 f   libvcruntime:throw.obj
 0001:00034e60       strcmp                     0000000180035e60 f   libucrt:strcmp.obj
 0001:00034ec8       atan2f                     0000000180035ec8 f   libucrt:atan2f.obj
 0001:000352c0       cosf                       00000001800362c0 f   libucrt:cosf.obj
 0001:000357c0       sinf                       00000001800367c0 f   libucrt:sinf.obj
 0001:00035eb8       _fpclass                   0000000180036eb8 f   libucrt:ieeemisc.obj
 0001:00035f40       free                       0000000180036f40 f   libucrt:free.obj
 0001:00035f54       _initterm                  0000000180036f54 f   libucrt:initterm.obj
 0001:00035fb8       _initterm_e                0000000180036fb8 f   libucrt:initterm.obj
 0001:00035ff8       _seh_filter_dll            0000000180036ff8 f   libucrt:exception_filter.obj
 0001:0003600c       _seh_filter_exe            000000018003700c f   libucrt:exception_filter.obj
 0001:000363fc       __acrt_initialize_thread_local_exit_callback 00000001800373fc f   libucrt:exit.obj
 0001:00036404       _cexit                     0000000180037404 f   libucrt:exit.obj
 0001:00036414       _exit                      0000000180037414 f   libucrt:exit.obj
 0001:00036420       _is_c_termination_complete 0000000180037420 f   libucrt:exit.obj
 0001:000365e8       __acrt_allocate_buffer_for_argv 00000001800375e8 f   libucrt:argv_parsing.obj
 0001:00036648       _configure_narrow_argv     0000000180037648 f   libucrt:argv_parsing.obj
 0001:000369c0       __dcrt_uninitialize_environments_nolock 00000001800379c0 f   libucrt:environment_initialization.obj
 0001:000369f8       _initialize_narrow_environment 00000001800379f8 f   libucrt:environment_initialization.obj
 0001:00036b54       _execute_onexit_table      0000000180037b54 f   libucrt:onexit.obj
 0001:00036b90       _initialize_onexit_table   0000000180037b90 f   libucrt:onexit.obj
 0001:00036bf0       __acrt_uninitialize_command_line 0000000180037bf0 f   libucrt:argv_data.obj
 0001:00036ce8       __acrt_initialize          0000000180037ce8 f   libucrt:initialization.obj
 0001:00036cfc       __acrt_thread_attach       0000000180037cfc f   libucrt:initialization.obj
 0001:00036d10       __acrt_thread_detach       0000000180037d10 f   libucrt:initialization.obj
 0001:00036d20       __acrt_uninitialize        0000000180037d20 f   libucrt:initialization.obj
 0001:00036d58       __acrt_uninitialize_critical 0000000180037d58 f   libucrt:initialization.obj
 0001:00036d68       terminate                  0000000180037d68 f   libucrt:terminate.obj
 0001:00036d88       abort                      0000000180037d88 f   libucrt:abort.obj
 0001:00036de0       malloc                     0000000180037de0 f   libucrt:malloc.obj
 0001:00036de8       strcpy_s                   0000000180037de8 f   libucrt:strcpy_s.obj
 0001:000371e0       ??$ensure_buffer_is_big_enough@D@formatting_buffer@__crt_stdio_output@@QEAA_N_K@Z 00000001800381e0 f i libucrt:output.obj
 0001:00037288       ??$type_case_integer_parse_into_buffer@I@?$output_processor@DV?$string_output_adapter@D@__crt_stdio_output@@V?$format_validation_base@DV?$string_output_adapter@D@__crt_stdio_output@@@2@@__crt_stdio_output@@AEAAXII_N@Z 0000000180038288 f i libucrt:output.obj
 0001:00037288       ??$type_case_integer_parse_into_buffer@I@?$output_processor@DV?$string_output_adapter@D@__crt_stdio_output@@V?$standard_base@DV?$string_output_adapter@D@__crt_stdio_output@@@2@@__crt_stdio_output@@AEAAXII_N@Z 0000000180038288 f i libucrt:output.obj
 0001:00037310       ??$type_case_integer_parse_into_buffer@_K@?$output_processor@DV?$string_output_adapter@D@__crt_stdio_output@@V?$format_validation_base@DV?$string_output_adapter@D@__crt_stdio_output@@@2@@__crt_stdio_output@@AEAAX_KI_N@Z 0000000180038310 f i libucrt:output.obj
 0001:00037310       ??$type_case_integer_parse_into_buffer@_K@?$output_processor@DV?$string_output_adapter@D@__crt_stdio_output@@V?$standard_base@DV?$string_output_adapter@D@__crt_stdio_output@@@2@@__crt_stdio_output@@AEAAX_KI_N@Z 0000000180038310 f i libucrt:output.obj
 0001:000373a0       ??$write_multiple_characters@V?$string_output_adapter@D@__crt_stdio_output@@D@__crt_stdio_output@@YAXAEBV?$string_output_adapter@D@0@DHQEAH@Z 00000001800383a0 f i libucrt:output.obj
 0001:00037418       ??0_LocaleUpdate@@QEAA@QEAU__crt_locale_pointers@@@Z 0000000180038418 f i libucrt:output.obj
 0001:000374c0       ?crop_zeroes@__crt_stdio_output@@YAXPEADQEAU__crt_locale_pointers@@@Z 00000001800384c0 f i libucrt:output.obj
 0001:00037560       ?force_decimal_point@__crt_stdio_output@@YAXPEADQEAU__crt_locale_pointers@@@Z 0000000180038560 f i libucrt:output.obj
 0001:000375d8       ?parse_int_from_format_string@?$output_processor@DV?$string_output_adapter@D@__crt_stdio_output@@V?$format_validation_base@DV?$string_output_adapter@D@__crt_stdio_output@@@2@@__crt_stdio_output@@AEAA_NQEAH@Z 00000001800385d8 f i libucrt:output.obj
 0001:000375d8       ?parse_int_from_format_string@?$output_processor@DV?$string_output_adapter@D@__crt_stdio_output@@V?$standard_base@DV?$string_output_adapter@D@__crt_stdio_output@@@2@@__crt_stdio_output@@AEAA_NQEAH@Z 00000001800385d8 f i libucrt:output.obj
 0001:0003767c       ?process@?$output_processor@DV?$string_output_adapter@D@__crt_stdio_output@@V?$format_validation_base@DV?$string_output_adapter@D@__crt_stdio_output@@@2@@__crt_stdio_output@@QEAAHXZ 000000018003867c f i libucrt:output.obj
 0001:00037890       ?process@?$output_processor@DV?$string_output_adapter@D@__crt_stdio_output@@V?$standard_base@DV?$string_output_adapter@D@__crt_stdio_output@@@2@@__crt_stdio_output@@QEAAHXZ 0000000180038890 f i libucrt:output.obj
 0001:00037a98       ?state_case_normal@?$output_processor@DV?$string_output_adapter@D@__crt_stdio_output@@V?$format_validation_base@DV?$string_output_adapter@D@__crt_stdio_output@@@2@@__crt_stdio_output@@AEAA_NXZ 0000000180038a98 f i libucrt:output.obj
 0001:00037a98       ?state_case_normal@?$output_processor@DV?$string_output_adapter@D@__crt_stdio_output@@V?$standard_base@DV?$string_output_adapter@D@__crt_stdio_output@@@2@@__crt_stdio_output@@AEAA_NXZ 0000000180038a98 f i libucrt:output.obj
 0001:00037b0c       ?state_case_normal_tchar@?$output_processor@DV?$string_output_adapter@D@__crt_stdio_output@@V?$format_validation_base@DV?$string_output_adapter@D@__crt_stdio_output@@@2@@__crt_stdio_output@@AEAA_ND@Z 0000000180038b0c f i libucrt:output.obj
 0001:00037b0c       ?state_case_normal_tchar@?$output_processor@DV?$string_output_adapter@D@__crt_stdio_output@@V?$standard_base@DV?$string_output_adapter@D@__crt_stdio_output@@@2@@__crt_stdio_output@@AEAA_ND@Z 0000000180038b0c f i libucrt:output.obj
 0001:00037bb4       ?state_case_size@?$output_processor@DV?$string_output_adapter@D@__crt_stdio_output@@V?$format_validation_base@DV?$string_output_adapter@D@__crt_stdio_output@@@2@@__crt_stdio_output@@AEAA_NXZ 0000000180038bb4 f i libucrt:output.obj
 0001:00037bb4       ?state_case_size@?$output_processor@DV?$string_output_adapter@D@__crt_stdio_output@@V?$standard_base@DV?$string_output_adapter@D@__crt_stdio_output@@@2@@__crt_stdio_output@@AEAA_NXZ 0000000180038bb4 f i libucrt:output.obj
 0001:00037d24       ?state_case_type@?$output_processor@DV?$string_output_adapter@D@__crt_stdio_output@@V?$format_validation_base@DV?$string_output_adapter@D@__crt_stdio_output@@@2@@__crt_stdio_output@@AEAA_NXZ 0000000180038d24 f i libucrt:output.obj
 0001:00037d24       ?state_case_type@?$output_processor@DV?$string_output_adapter@D@__crt_stdio_output@@V?$standard_base@DV?$string_output_adapter@D@__crt_stdio_output@@@2@@__crt_stdio_output@@AEAA_NXZ 0000000180038d24 f i libucrt:output.obj
 0001:00037f90       ?to_integer_size@__crt_stdio_output@@YA_KW4length_modifier@1@@Z 0000000180038f90 f i libucrt:output.obj
 0001:00037ff8       ?type_case_Z@?$output_processor@DV?$string_output_adapter@D@__crt_stdio_output@@V?$format_validation_base@DV?$string_output_adapter@D@__crt_stdio_output@@@2@@__crt_stdio_output@@AEAA_NXZ 0000000180038ff8 f i libucrt:output.obj
 0001:00037ff8       ?type_case_Z@?$output_processor@DV?$string_output_adapter@D@__crt_stdio_output@@V?$standard_base@DV?$string_output_adapter@D@__crt_stdio_output@@@2@@__crt_stdio_output@@AEAA_NXZ 0000000180038ff8 f i libucrt:output.obj
 0001:0003806c       ?type_case_a@?$output_processor@DV?$string_output_adapter@D@__crt_stdio_output@@V?$format_validation_base@DV?$string_output_adapter@D@__crt_stdio_output@@@2@@__crt_stdio_output@@AEAA_NXZ 000000018003906c f i libucrt:output.obj
 0001:0003806c       ?type_case_a@?$output_processor@DV?$string_output_adapter@D@__crt_stdio_output@@V?$standard_base@DV?$string_output_adapter@D@__crt_stdio_output@@@2@@__crt_stdio_output@@AEAA_NXZ 000000018003906c f i libucrt:output.obj
 0001:00038228       ?type_case_c_tchar@?$output_processor@DV?$string_output_adapter@D@__crt_stdio_output@@V?$format_validation_base@DV?$string_output_adapter@D@__crt_stdio_output@@@2@@__crt_stdio_output@@AEAA_ND@Z 0000000180039228 f i libucrt:output.obj
 0001:00038228       ?type_case_c_tchar@?$output_processor@DV?$string_output_adapter@D@__crt_stdio_output@@V?$standard_base@DV?$string_output_adapter@D@__crt_stdio_output@@@2@@__crt_stdio_output@@AEAA_ND@Z 0000000180039228 f i libucrt:output.obj
 0001:000382f0       ?type_case_integer@?$output_processor@DV?$string_output_adapter@D@__crt_stdio_output@@V?$format_validation_base@DV?$string_output_adapter@D@__crt_stdio_output@@@2@@__crt_stdio_output@@AEAA_NI_N@Z 00000001800392f0 f i libucrt:output.obj
 0001:000382f0       ?type_case_integer@?$output_processor@DV?$string_output_adapter@D@__crt_stdio_output@@V?$standard_base@DV?$string_output_adapter@D@__crt_stdio_output@@@2@@__crt_stdio_output@@AEAA_NI_N@Z 00000001800392f0 f i libucrt:output.obj
 0001:00038470       ?type_case_n@?$output_processor@DV?$string_output_adapter@D@__crt_stdio_output@@V?$format_validation_base@DV?$string_output_adapter@D@__crt_stdio_output@@@2@@__crt_stdio_output@@AEAA_NXZ 0000000180039470 f i libucrt:output.obj
 0001:00038470       ?type_case_n@?$output_processor@DV?$string_output_adapter@D@__crt_stdio_output@@V?$standard_base@DV?$string_output_adapter@D@__crt_stdio_output@@@2@@__crt_stdio_output@@AEAA_NXZ 0000000180039470 f i libucrt:output.obj
 0001:000384f8       ?type_case_s@?$output_processor@DV?$string_output_adapter@D@__crt_stdio_output@@V?$format_validation_base@DV?$string_output_adapter@D@__crt_stdio_output@@@2@@__crt_stdio_output@@AEAA_NXZ 00000001800394f8 f i libucrt:output.obj
 0001:000384f8       ?type_case_s@?$output_processor@DV?$string_output_adapter@D@__crt_stdio_output@@V?$standard_base@DV?$string_output_adapter@D@__crt_stdio_output@@@2@@__crt_stdio_output@@AEAA_NXZ 00000001800394f8 f i libucrt:output.obj
 0001:00038590       ?write_stored_string_tchar@?$output_processor@DV?$string_output_adapter@D@__crt_stdio_output@@V?$format_validation_base@DV?$string_output_adapter@D@__crt_stdio_output@@@2@@__crt_stdio_output@@AEAA_ND@Z 0000000180039590 f i libucrt:output.obj
 0001:00038590       ?write_stored_string_tchar@?$output_processor@DV?$string_output_adapter@D@__crt_stdio_output@@V?$standard_base@DV?$string_output_adapter@D@__crt_stdio_output@@@2@@__crt_stdio_output@@AEAA_ND@Z 0000000180039590 f i libucrt:output.obj
 0001:0003866c       ?write_string@?$string_output_adapter@D@__crt_stdio_output@@QEBAXQEBDHQEAHAEAV__crt_deferred_errno_cache@@@Z 000000018003966c f i libucrt:output.obj
 0001:00038710       __stdio_common_vsprintf    0000000180039710 f   libucrt:output.obj
 0001:00038718       __stdio_common_vsprintf_s  0000000180039718 f   libucrt:output.obj
 0001:0003877c       ??$parse_integer@KV?$c_string_character_source@D@__crt_strtox@@@__crt_strtox@@YAKQEAU__crt_locale_pointers@@V?$c_string_character_source@D@0@H_N@Z 000000018003977c f i libucrt:atox.obj
 0001:00038a80       _ischartype_l              0000000180039a80 f i libucrt:atox.obj
 0001:00038af8       atol                       0000000180039af8 f   libucrt:atox.obj
 0001:00038b40       strncmp                    0000000180039b40 f   libucrt:strncmp.obj
 0001:00038bc0       calloc                     0000000180039bc0 f   libucrt:calloc.obj
 0001:00038bc8       wcsncmp                    0000000180039bc8 f   libucrt:wcsncmp.obj
 0001:00038bf4       _clrfp                     0000000180039bf4 f   libucrt:fpctrl.obj
 0001:00038c14       _ctrlfp                    0000000180039c14 f   libucrt:fpctrl.obj
 0001:00038c90       _set_statfp                0000000180039c90 f   libucrt:fpctrl.obj
 0001:00038cb0       _statfp                    0000000180039cb0 f   libucrt:fpctrl.obj
 0001:00038de8       _handle_error              0000000180039de8 f   libucrt:libm_error.obj
 0001:00038f10       _handle_errorf             0000000180039f10 f   libucrt:libm_error.obj
 0001:00039044       _handle_nan                000000018003a044 f   libucrt:libm_error.obj
 0001:00039060       _handle_nanf               000000018003a060 f   libucrt:libm_error.obj
 0001:00039070       __remainder_piby2d2f_forAsm 000000018003a070 f   libucrt:remainder_piby2f_forasm.obj
 0001:000391c0       __remainder_piby2_fma3     000000018003a1c0 f   libucrt:remainder_piby2_forfma3.obj
 0001:000393b0       __remainder_piby2_fma3_bdl 000000018003a3b0 f   libucrt:remainder_piby2_forfma3.obj
 0001:00039428       _cosf_special              000000018003a428 f   libucrt:sincos_special.obj
 0001:000394c8       _sinf_special              000000018003a4c8 f   libucrt:sincos_special.obj
 0001:000394e0       __acrt_initialize_fma3     000000018003a4e0 f   libucrt:fma3_available.obj
 0001:00039550       __remainder_piby2d2f_forC  000000018003a550 f   libucrt:remainder_piby2f_forc.obj
 0001:000396dc       _free_base                 000000018003a6dc f   libucrt:free_base.obj
 0001:00039a94       __acrt_freeptd             000000018003aa94 f   libucrt:per_thread_data.obj
 0001:00039ad8       __acrt_getptd              000000018003aad8 f   libucrt:per_thread_data.obj
 0001:00039bac       __acrt_getptd_head         000000018003abac f   libucrt:per_thread_data.obj
 0001:00039c54       __acrt_getptd_noexit       000000018003ac54 f   libucrt:per_thread_data.obj
 0001:00039d20       __acrt_initialize_ptd      000000018003ad20 f   libucrt:per_thread_data.obj
 0001:00039d5c       __acrt_uninitialize_ptd    000000018003ad5c f   libucrt:per_thread_data.obj
 0001:00039d80       __acrt_initialize_locks    000000018003ad80 f   libucrt:locks.obj
 0001:00039dc8       __acrt_lock                000000018003adc8 f   libucrt:locks.obj
 0001:00039de4       __acrt_uninitialize_locks  000000018003ade4 f   libucrt:locks.obj
 0001:00039e1c       __acrt_unlock              000000018003ae1c f   libucrt:locks.obj
 0001:00039e38       __acrt_get_process_end_policy 000000018003ae38 f   libucrt:win_policies.obj
 0001:00039e74       __acrt_call_reportfault    000000018003ae74 f   libucrt:invalid_parameter.obj
 0001:00039fd0       __acrt_initialize_invalid_parameter_handler 000000018003afd0 f   libucrt:invalid_parameter.obj
 0001:00039fd8       _invalid_parameter         000000018003afd8 f   libucrt:invalid_parameter.obj
 0001:0003a088       _invalid_parameter_noinfo  000000018003b088 f   libucrt:invalid_parameter.obj
 0001:0003a0a8       _invoke_watson             000000018003b0a8 f   libucrt:invalid_parameter.obj
 0001:0003a0f0       __acrt_errno_from_os_error 000000018003b0f0 f   libucrt:errno.obj
 0001:0003a138       __acrt_errno_map_os_error  000000018003b138 f   libucrt:errno.obj
 0001:0003a188       __doserrno                 000000018003b188 f   libucrt:errno.obj
 0001:0003a1a8       _errno                     000000018003b1a8 f   libucrt:errno.obj
 0001:0003a1c8       _calloc_base               000000018003b1c8 f   libucrt:calloc_base.obj
 0001:0003a254       ??$__acrt_mbs_to_wcs_cp@U__crt_win32_buffer_internal_dynamic_resizing@@@@YAHQEBDAEAV?$__crt_win32_buffer@_WU__crt_win32_buffer_internal_dynamic_resizing@@@@I@Z 000000018003b254 f i libucrt:argv_wildcards.obj
 0001:0003a3cc       ??$__acrt_wcs_to_mbs_cp@U__crt_win32_buffer_internal_dynamic_resizing@@@@YAHQEB_WAEAV?$__crt_win32_buffer@DU__crt_win32_buffer_internal_dynamic_resizing@@@@I@Z 000000018003b3cc f i libucrt:argv_wildcards.obj
 0001:0003abfc       __acrt_expand_narrow_argv_wildcards 000000018003bbfc f   libucrt:argv_wildcards.obj
 0001:0003ac04       ??$__acrt_wcs_to_mbs_cp@U__crt_win32_buffer_no_resizing@@@@YAHQEB_WAEAV?$__crt_win32_buffer@DU__crt_win32_buffer_no_resizing@@@@I@Z 000000018003bc04 f i libucrt:getmodulefilenamea.obj
 0001:0003ad18       __acrt_GetModuleFileNameA  000000018003bd18 f   libucrt:getmodulefilenamea.obj
 0001:0003b560       __acrt_initialize_multibyte 000000018003c560 f   libucrt:mbctype.obj
 0001:0003b5c0       __acrt_update_thread_multibyte_data 000000018003c5c0 f   libucrt:mbctype.obj
 0001:0003b5dc       _setmbcp_nolock            000000018003c5dc f   libucrt:mbctype.obj
 0001:0003b910       _ismbblead                 000000018003c910 f   libucrt:ismbbyte.obj
 0001:0003b924       __acrt_initialize_command_line 000000018003c924 f   libucrt:argv_data.obj
 0001:0003b94c       __acrt_MultiByteToWideChar 000000018003c94c f   libucrt:multibytetowidechar.obj
 0001:0003b9a8       __acrt_WideCharToMultiByte 000000018003c9a8 f   libucrt:widechartomultibyte.obj
 0001:0003ba58       __dcrt_get_narrow_environment_from_os 000000018003ca58 f   libucrt:get_environment_from_os.obj
 0001:0003bb5c       _recalloc_base             000000018003cb5c f   libucrt:recalloc.obj
 0001:0003bdcc       __acrt_AppPolicyGetProcessTerminationMethodInternal 000000018003cdcc f   libucrt:winapi_thunks.obj
 0001:0003be1c       __acrt_AreFileApisANSI     000000018003ce1c f   libucrt:winapi_thunks.obj
 0001:0003be58       __acrt_FlsAlloc            000000018003ce58 f   libucrt:winapi_thunks.obj
 0001:0003bea0       __acrt_FlsFree             000000018003cea0 f   libucrt:winapi_thunks.obj
 0001:0003bee8       __acrt_FlsGetValue         000000018003cee8 f   libucrt:winapi_thunks.obj
 0001:0003bf30       __acrt_FlsSetValue         000000018003cf30 f   libucrt:winapi_thunks.obj
 0001:0003bf84       __acrt_InitializeCriticalSectionEx 000000018003cf84 f   libucrt:winapi_thunks.obj
 0001:0003bfe8       __acrt_LCMapStringEx       000000018003cfe8 f   libucrt:winapi_thunks.obj
 0001:0003c0c4       __acrt_LocaleNameToLCID    000000018003d0c4 f   libucrt:winapi_thunks.obj
 0001:0003c114       __acrt_initialize_winapi_thunks 000000018003d114 f   libucrt:winapi_thunks.obj
 0001:0003c148       __acrt_uninitialize_winapi_thunks 000000018003d148 f   libucrt:winapi_thunks.obj
 0001:0003c18c       __acrt_initialize_heap     000000018003d18c f   libucrt:heap_handle.obj
 0001:0003c1a8       __acrt_uninitialize_heap   000000018003d1a8 f   libucrt:heap_handle.obj
 0001:0003c3b0       __acrt_initialize_lowio    000000018003d3b0 f   libucrt:ioinit.obj
 0001:0003c3ec       __acrt_uninitialize_lowio  000000018003d3ec f   libucrt:ioinit.obj
 0001:0003c42c       __acrt_execute_initializers 000000018003d42c f   libucrt:shared_initialization.obj
 0001:0003c4ac       __acrt_execute_uninitializers 000000018003d4ac f   libucrt:shared_initialization.obj
 0001:0003c4e8       __acrt_initialize_new_handler 000000018003d4e8 f   libucrt:new_handler.obj
 0001:0003c4f0       _callnewh                  000000018003d4f0 f   libucrt:new_handler.obj
 0001:0003c520       _query_new_handler         000000018003d520 f   libucrt:new_handler.obj
 0001:0003c59c       __acrt_get_sigabrt_handler 000000018003d59c f   libucrt:signal.obj
 0001:0003c5cc       __acrt_initialize_signal_handlers 000000018003d5cc f   libucrt:signal.obj
 0001:0003c5ec       raise                      000000018003d5ec f   libucrt:signal.obj
 0001:0003c858       __acrt_has_user_matherr    000000018003d858 f   libucrt:matherr.obj
 0001:0003c878       __acrt_initialize_user_matherr 000000018003d878 f   libucrt:matherr.obj
 0001:0003c880       __acrt_invoke_user_matherr 000000018003d880 f   libucrt:matherr.obj
 0001:0003ca8c       __acrt_stdio_flush_nolock  000000018003da8c f   libucrt:fflush.obj
 0001:0003cb08       _fflush_nolock             000000018003db08 f   libucrt:fflush.obj
 0001:0003cb54       _flushall                  000000018003db54 f   libucrt:fflush.obj
 0001:0003cb5c       __acrt_initialize_stdio    000000018003db5c f   libucrt:_file.obj
 0001:0003cc7c       __acrt_uninitialize_stdio  000000018003dc7c f   libucrt:_file.obj
 0001:0003ccd8       _lock_file                 000000018003dcd8 f   libucrt:_file.obj
 0001:0003cce4       _unlock_file               000000018003dce4 f   libucrt:_file.obj
 0001:0003ccf0       _malloc_base               000000018003dcf0 f   libucrt:malloc_base.obj
 0001:0003cd50       strtol                     000000018003dd50 f   libucrt:strtox.obj
 0001:0003cd7c       _mbtowc_l                  000000018003dd7c f   libucrt:mbtowc.obj
 0001:0003cefc       mbtowc                     000000018003defc f   libucrt:mbtowc.obj
 0001:0003cf04       _wctomb_s_l                000000018003df04 f   libucrt:wctomb.obj
 0001:0003d0a0       strnlen                    000000018003e0a0 f   libucrt:strnlen.obj
 0001:0003d1f0       wcsnlen                    000000018003e1f0 f   libucrt:strnlen.obj
 0001:0003d3c8       __acrt_update_locale_info  000000018003e3c8 f   libucrt:locale_update.obj
 0001:0003d3fc       __acrt_update_multibyte_info 000000018003e3fc f   libucrt:locale_update.obj
 0001:0003de3c       __acrt_fp_format           000000018003ee3c f   libucrt:cvt.obj
 0001:0003e174       _fileno                    000000018003f174 f   libucrt:fileno.obj
 0001:0003e19c       _get_printf_count_output   000000018003f19c f   libucrt:printf_count_output.obj
 0001:0003e224       __acrt_set_locale_changed  000000018003f224 f   libucrt:wsetlocale.obj
 0001:0003e230       __acrt_uninitialize_locale 000000018003f230 f   libucrt:wsetlocale.obj
 0001:0003e260       __pctype_func              000000018003f260 f   libucrt:ctype.obj
 0001:0003e290       _isctype_l                 000000018003f290 f   libucrt:isctype.obj
 0001:0003e3b0       _get_fpsr                  000000018003f3b0 f   libucrt:fpsr.obj
 0001:0003e3c0       _set_fpsr                  000000018003f3c0 f   libucrt:fpsr.obj
 0001:0003e3ca       _fclrf                     000000018003f3ca f   libucrt:fpsr.obj
 0001:0003e3de       _frnd                      000000018003f3de f   libucrt:fpsr.obj
 0001:0003e400       _raise_exc                 000000018003f400 f   libucrt:fpexcept.obj
 0001:0003e428       _raise_exc_ex              000000018003f428 f   libucrt:fpexcept.obj
 0001:0003e738       _raise_excf                000000018003f738 f   libucrt:fpexcept.obj
 0001:0003e764       _set_errno_from_matherr    000000018003f764 f   libucrt:fpexcept.obj
 0001:0003e794       __acrt_add_locale_ref      000000018003f794 f   libucrt:locale_refcounting.obj
 0001:0003e820       __acrt_free_locale         000000018003f820 f   libucrt:locale_refcounting.obj
 0001:0003e998       __acrt_locale_add_lc_time_reference 000000018003f998 f   libucrt:locale_refcounting.obj
 0001:0003e9c0       __acrt_locale_free_lc_time_if_unreferenced 000000018003f9c0 f   libucrt:locale_refcounting.obj
 0001:0003e9f8       __acrt_locale_release_lc_time_reference 000000018003f9f8 f   libucrt:locale_refcounting.obj
 0001:0003ea20       __acrt_release_locale_ref  000000018003fa20 f   libucrt:locale_refcounting.obj
 0001:0003eac8       __acrt_update_thread_locale_data 000000018003fac8 f   libucrt:locale_refcounting.obj
 0001:0003eb38       _updatetlocinfoEx_nolock   000000018003fb38 f   libucrt:locale_refcounting.obj
 0001:0003eba0       _query_new_mode            000000018003fba0 f   libucrt:new_mode.obj
 0001:0003ebb0       qsort                      000000018003fbb0 f   libucrt:qsort.obj
 0001:0003ef50       strncpy_s                  000000018003ff50 f   libucrt:strncpy_s.obj
 0001:0003f0d0       strpbrk                    00000001800400d0 f   libucrt:strpbrk.obj
 0001:0003f498       _mbsdec                    0000000180040498 f   libucrt:mbsdec.obj
 0001:0003f4a0       _mbsdec_l                  00000001800404a0 f   libucrt:mbsdec.obj
 0001:0003f534       __acrt_GetStringTypeA      0000000180040534 f   libucrt:getstringtypea.obj
 0001:0003f9dc       __acrt_LCMapStringA        00000001800409dc f   libucrt:lcmapstringa.obj
 0001:0003fa8c       _msize_base                0000000180040a8c f   libucrt:msize.obj
 0001:0003fac8       _realloc_base              0000000180040ac8 f   libucrt:realloc_base.obj
 0001:0003fb44       __acrt_DownlevelLocaleNameToLCID 0000000180040b44 f   libucrt:lcidtoname_downlevel.obj
 0001:0003fbf4       __acrt_lowio_create_handle_array 0000000180040bf4 f   libucrt:osfinfo.obj
 0001:0003fc9c       __acrt_lowio_destroy_handle_array 0000000180040c9c f   libucrt:osfinfo.obj
 0001:0003fcec       __acrt_lowio_ensure_fh_exists 0000000180040cec f   libucrt:osfinfo.obj
 0001:0003fd94       __acrt_lowio_lock_fh       0000000180040d94 f   libucrt:osfinfo.obj
 0001:0003fdbc       __acrt_lowio_unlock_fh     0000000180040dbc f   libucrt:osfinfo.obj
 0001:0003fde4       _free_osfhnd               0000000180040de4 f   libucrt:osfinfo.obj
 0001:0003fea0       _get_osfhandle             0000000180040ea0 f   libucrt:osfinfo.obj
 0001:0003ffa4       _commit                    0000000180040fa4 f   libucrt:commit.obj
 0001:000408b4       _write                     00000001800418b4 f   libucrt:write.obj
 0001:000409a0       _write_nolock              00000001800419a0 f   libucrt:write.obj
 0001:00040c84       _fcloseall                 0000000180041c84 f   libucrt:closeall.obj
 0001:00040d38       __acrt_stdio_free_buffer_nolock 0000000180041d38 f   libucrt:_freebuf.obj
 0001:00040d78       _isatty                    0000000180041d78 f   libucrt:isatty.obj
 0001:00040dd8       _isleadbyte_l              0000000180041dd8 f i libucrt:_wctype.obj
 0001:00040e24       ?__mbrtowc_utf8@__crt_mbstring@@YA_KPEA_WPEBD_KPEAU_Mbstatet@@@Z 0000000180041e24 f   libucrt:mbrtowc.obj
 0001:00040e60       ?__mbsrtowcs_utf8@__crt_mbstring@@YA_KPEA_WPEAPEBD_KPEAU_Mbstatet@@@Z 0000000180041e60 f   libucrt:mbrtowc.obj
 0001:00040fd8       ?__c32rtomb_utf8@__crt_mbstring@@YA_KPEAD_UPEAU_Mbstatet@@@Z 0000000180041fd8 f   libucrt:c32rtomb.obj
 0001:0004108c       __acrt_fp_strflt_to_string 000000018004208c f   libucrt:_fptostr.obj
 0001:000411f0       ?divide@__crt_strtox@@YA_KAEAUbig_integer@1@AEBU21@@Z 00000001800421f0 f i libucrt:cfout.obj
 0001:0004161c       __acrt_fltout              000000018004261c f   libucrt:cfout.obj
 0001:000428e8       fegetround                 00000001800438e8 f   libucrt:fegetround.obj
 0001:000428fc       __acrt_locale_free_monetary 00000001800438fc f   libucrt:initmon.obj
 0001:00042a08       __acrt_locale_free_numeric 0000000180043a08 f   libucrt:initnum.obj
 0001:00042acc       __acrt_locale_free_time    0000000180043acc f   libucrt:inittime.obj
 0001:00042bd4       __strncnt                  0000000180043bd4 f   libucrt:strncnt.obj
 0001:00042bec       __ascii_wcsnicmp           0000000180043bec f   libucrt:wcsnicmp.obj
 0001:00042c38       _query_app_type            0000000180043c38 f   libucrt:report_runtime_error.obj
 0001:00042cdc       _lseeki64_nolock           0000000180043cdc f   libucrt:lseek.obj
 0001:00042ce4       _putwch_nolock             0000000180043ce4 f   libucrt:putwch.obj
 0001:00042d20       _fclose_nolock             0000000180043d20 f   libucrt:fclose.obj
 0001:00042da4       fclose                     0000000180043da4 f   libucrt:fclose.obj
 0001:00042e08       ?__mbrtoc32_utf8@__crt_mbstring@@YA_KPEA_UPEBD_KPEAU_Mbstatet@@@Z 0000000180043e08 f   libucrt:mbrtoc32.obj
 0001:00042fe0       _controlfp_s               0000000180043fe0 f   libucrt:contrlfp.obj
 0001:00043044       fegetenv                   0000000180044044 f   libucrt:fegetenv.obj
 0001:00043064       fesetenv                   0000000180044064 f   libucrt:fesetenv.obj
 0001:000430b0       feholdexcept               00000001800440b0 f   libucrt:feholdexcept.obj
 0001:00043100       ceil                       0000000180044100 f   libucrt:ceil.obj
 0001:000431d0       log10                      00000001800441d0 f   libucrt:log10.obj
 0001:0004377c       __acrt_fenv_get_common_round_control 000000018004477c f   libucrt:_fenvutils.obj
 0001:00043788       __acrt_fenv_get_control    0000000180044788 f   libucrt:_fenvutils.obj
 0001:0004387c       __acrt_fenv_get_status     000000018004487c f   libucrt:_fenvutils.obj
 0001:000438d0       __acrt_fenv_set_control    00000001800448d0 f   libucrt:_fenvutils.obj
 0001:00043a18       __acrt_fenv_set_status     0000000180044a18 f   libucrt:_fenvutils.obj
 0001:00043a9c       __dcrt_lowio_ensure_console_output_initialized 0000000180044a9c f   libucrt:initcon.obj
 0001:00043af0       __dcrt_terminate_console_output 0000000180044af0 f   libucrt:initcon.obj
 0001:00043b0c       __dcrt_write_console       0000000180044b0c f   libucrt:initcon.obj
 0001:00043c40       _close                     0000000180044c40 f   libucrt:close.obj
 0001:00043ce4       _close_nolock              0000000180044ce4 f   libucrt:close.obj
 0001:00043da4       ?__acrt_stdio_free_stream@@YAXV__crt_stdio_stream@@@Z 0000000180044da4 f   libucrt:stream.obj
 0001:00043dc0       _clearfp                   0000000180044dc0 f   libucrt:ieee.obj
 0001:00043e30       _control87                 0000000180044e30 f   libucrt:ieee.obj
 0001:00044100       _log10_special             0000000180045100 f   libucrt:log_special.obj
 0001:000441c0       _FindPESection             00000001800451c0 f   LIBCMT:pesect.obj
 0001:00044210       _IsNonwritableInCurrentImage 0000000180045210 f   LIBCMT:pesect.obj
 0001:00044260       _ValidateImageBase         0000000180045260 f   LIBCMT:pesect.obj
 0001:0004428c       __GSHandlerCheck           000000018004528c f   LIBCMT:gshandler.obj
 0001:000442ac       __GSHandlerCheckCommon     00000001800452ac f   LIBCMT:gshandler.obj
 0001:00044320       __security_check_cookie    0000000180045320 f   LIBCMT:amdsecgs.obj
 0001:00044340       __GSHandlerCheck_SEH       0000000180045340 f   LIBCMT:gshandlerseh.obj
 0001:000443c8       __raise_securityfailure    00000001800453c8 f   LIBCMT:gs_report.obj
 0001:000443fc       __report_gsfailure         00000001800453fc f   LIBCMT:gs_report.obj
 0001:000444d0       __report_rangecheckfailure 00000001800454d0 f   LIBCMT:gs_report.obj
 0001:000444e4       __report_securityfailure   00000001800454e4 f   LIBCMT:gs_report.obj
 0001:00044664       strrchr                    0000000180045664 f   libvcruntime:strrchr.obj
 0001:000447b0       memcmp                     00000001800457b0 f   libvcruntime:memcmp.obj
 0001:00044890       _guard_dispatch_icall_nop  0000000180045890 f   LIBCMT:guard_dispatch.obj
 0001:000448b0       _guard_xfg_dispatch_icall_nop 00000001800458b0 f   LIBCMT:guard_xfg_dispatch.obj
 0002:00000000       __imp_LoadLibraryA         0000000180046000     kernel32:KERNEL32.dll
 0002:00000008       __imp_WriteConsoleW        0000000180046008     kernel32:KERNEL32.dll
 0002:00000010       __imp_RaiseException       0000000180046010     kernel32:KERNEL32.dll
 0002:00000018       __imp_GetLastError         0000000180046018     kernel32:KERNEL32.dll
 0002:00000020       __imp_GetSystemInfo        0000000180046020     kernel32:KERNEL32.dll
 0002:00000028       __imp_VirtualProtect       0000000180046028     kernel32:KERNEL32.dll
 0002:00000030       __imp_VirtualQuery         0000000180046030     kernel32:KERNEL32.dll
 0002:00000038       __imp_FreeLibrary          0000000180046038     kernel32:KERNEL32.dll
 0002:00000040       __imp_GetModuleHandleW     0000000180046040     kernel32:KERNEL32.dll
 0002:00000048       __imp_GetProcAddress       0000000180046048     kernel32:KERNEL32.dll
 0002:00000050       __imp_LoadLibraryExA       0000000180046050     kernel32:KERNEL32.dll
 0002:00000058       __imp_InitializeSListHead  0000000180046058     kernel32:KERNEL32.dll
 0002:00000060       __imp_QueryPerformanceCounter 0000000180046060     kernel32:KERNEL32.dll
 0002:00000068       __imp_GetCurrentProcessId  0000000180046068     kernel32:KERNEL32.dll
 0002:00000070       __imp_GetCurrentThreadId   0000000180046070     kernel32:KERNEL32.dll
 0002:00000078       __imp_GetSystemTimeAsFileTime 0000000180046078     kernel32:KERNEL32.dll
 0002:00000080       __imp_RtlCaptureContext    0000000180046080     kernel32:KERNEL32.dll
 0002:00000088       __imp_RtlLookupFunctionEntry 0000000180046088     kernel32:KERNEL32.dll
 0002:00000090       __imp_RtlVirtualUnwind     0000000180046090     kernel32:KERNEL32.dll
 0002:00000098       __imp_IsDebuggerPresent    0000000180046098     kernel32:KERNEL32.dll
 0002:000000a0       __imp_UnhandledExceptionFilter 00000001800460a0     kernel32:KERNEL32.dll
 0002:000000a8       __imp_SetUnhandledExceptionFilter 00000001800460a8     kernel32:KERNEL32.dll
 0002:000000b0       __imp_GetStartupInfoW      00000001800460b0     kernel32:KERNEL32.dll
 0002:000000b8       __imp_IsProcessorFeaturePresent 00000001800460b8     kernel32:KERNEL32.dll
 0002:000000c0       __imp_InterlockedPushEntrySList 00000001800460c0     kernel32:KERNEL32.dll
 0002:000000c8       __imp_InterlockedFlushSList 00000001800460c8     kernel32:KERNEL32.dll
 0002:000000d0       __imp_RtlUnwindEx          00000001800460d0     kernel32:KERNEL32.dll
 0002:000000d8       __imp_SetLastError         00000001800460d8     kernel32:KERNEL32.dll
 0002:000000e0       __imp_EnterCriticalSection 00000001800460e0     kernel32:KERNEL32.dll
 0002:000000e8       __imp_LeaveCriticalSection 00000001800460e8     kernel32:KERNEL32.dll
 0002:000000f0       __imp_DeleteCriticalSection 00000001800460f0     kernel32:KERNEL32.dll
 0002:000000f8       __imp_InitializeCriticalSectionAndSpinCount 00000001800460f8     kernel32:KERNEL32.dll
 0002:00000100       __imp_TlsAlloc             0000000180046100     kernel32:KERNEL32.dll
 0002:00000108       __imp_TlsGetValue          0000000180046108     kernel32:KERNEL32.dll
 0002:00000110       __imp_TlsSetValue          0000000180046110     kernel32:KERNEL32.dll
 0002:00000118       __imp_TlsFree              0000000180046118     kernel32:KERNEL32.dll
 0002:00000120       __imp_LoadLibraryExW       0000000180046120     kernel32:KERNEL32.dll
 0002:00000128       __imp_EncodePointer        0000000180046128     kernel32:KERNEL32.dll
 0002:00000130       __imp_RtlPcToFileHeader    0000000180046130     kernel32:KERNEL32.dll
 0002:00000138       __imp_GetCurrentProcess    0000000180046138     kernel32:KERNEL32.dll
 0002:00000140       __imp_ExitProcess          0000000180046140     kernel32:KERNEL32.dll
 0002:00000148       __imp_TerminateProcess     0000000180046148     kernel32:KERNEL32.dll
 0002:00000150       __imp_GetModuleHandleExW   0000000180046150     kernel32:KERNEL32.dll
 0002:00000158       __imp_GetModuleFileNameW   0000000180046158     kernel32:KERNEL32.dll
 0002:00000160       __imp_HeapFree             0000000180046160     kernel32:KERNEL32.dll
 0002:00000168       __imp_HeapAlloc            0000000180046168     kernel32:KERNEL32.dll
 0002:00000170       __imp_FindClose            0000000180046170     kernel32:KERNEL32.dll
 0002:00000178       __imp_FindFirstFileExW     0000000180046178     kernel32:KERNEL32.dll
 0002:00000180       __imp_FindNextFileW        0000000180046180     kernel32:KERNEL32.dll
 0002:00000188       __imp_IsValidCodePage      0000000180046188     kernel32:KERNEL32.dll
 0002:00000190       __imp_GetACP               0000000180046190     kernel32:KERNEL32.dll
 0002:00000198       __imp_GetOEMCP             0000000180046198     kernel32:KERNEL32.dll
 0002:000001a0       __imp_GetCPInfo            00000001800461a0     kernel32:KERNEL32.dll
 0002:000001a8       __imp_GetCommandLineA      00000001800461a8     kernel32:KERNEL32.dll
 0002:000001b0       __imp_GetCommandLineW      00000001800461b0     kernel32:KERNEL32.dll
 0002:000001b8       __imp_MultiByteToWideChar  00000001800461b8     kernel32:KERNEL32.dll
 0002:000001c0       __imp_WideCharToMultiByte  00000001800461c0     kernel32:KERNEL32.dll
 0002:000001c8       __imp_GetEnvironmentStringsW 00000001800461c8     kernel32:KERNEL32.dll
 0002:000001d0       __imp_FreeEnvironmentStringsW 00000001800461d0     kernel32:KERNEL32.dll
 0002:000001d8       __imp_LCMapStringW         00000001800461d8     kernel32:KERNEL32.dll
 0002:000001e0       __imp_GetProcessHeap       00000001800461e0     kernel32:KERNEL32.dll
 0002:000001e8       __imp_GetStdHandle         00000001800461e8     kernel32:KERNEL32.dll
 0002:000001f0       __imp_GetFileType          00000001800461f0     kernel32:KERNEL32.dll
 0002:000001f8       __imp_GetStringTypeW       00000001800461f8     kernel32:KERNEL32.dll
 0002:00000200       __imp_HeapSize             0000000180046200     kernel32:KERNEL32.dll
 0002:00000208       __imp_HeapReAlloc          0000000180046208     kernel32:KERNEL32.dll
 0002:00000210       __imp_SetStdHandle         0000000180046210     kernel32:KERNEL32.dll
 0002:00000218       __imp_FlushFileBuffers     0000000180046218     kernel32:KERNEL32.dll
 0002:00000220       __imp_WriteFile            0000000180046220     kernel32:KERNEL32.dll
 0002:00000228       __imp_GetConsoleOutputCP   0000000180046228     kernel32:KERNEL32.dll
 0002:00000230       __imp_GetConsoleMode       0000000180046230     kernel32:KERNEL32.dll
 0002:00000238       __imp_SetFilePointerEx     0000000180046238     kernel32:KERNEL32.dll
 0002:00000240       __imp_CreateFileW          0000000180046240     kernel32:KERNEL32.dll
 0002:00000248       __imp_CloseHandle          0000000180046248     kernel32:KERNEL32.dll
 0002:00000250       \177KERNEL32_NULL_THUNK_DATA 0000000180046250     kernel32:KERNEL32.dll
 0002:00000258       __guard_check_icall_fptr   0000000180046258     LIBCMT:guard_support.obj
 0002:00000260       __guard_xfg_check_icall_fptr 0000000180046260     LIBCMT:guard_support.obj
 0002:00000268       __guard_dispatch_icall_fptr 0000000180046268     LIBCMT:guard_support.obj
 0002:00000270       __guard_xfg_dispatch_icall_fptr 0000000180046270     LIBCMT:guard_support.obj
 0002:00000278       __guard_xfg_table_dispatch_icall_fptr 0000000180046278     LIBCMT:guard_support.obj
 0002:00000280       __castguard_check_failure_os_handled_fptr 0000000180046280     LIBCMT:guard_support.obj
 0002:00000288       __guard_memcpy_fptr        0000000180046288     libvcruntime:softmemtag.obj
 0002:00000290       __xc_a                     0000000180046290     LIBCMT:initializers.obj
 0002:00000478       __xc_z                     0000000180046478     LIBCMT:initializers.obj
 0002:00000480       __xi_a                     0000000180046480     LIBCMT:initializers.obj
 0002:00000488       __acrt_tran_fma3_initializer 0000000180046488     libucrt:fma3_initializer.obj
 0002:00000490       __acrt_multibyte_initializer 0000000180046490     libucrt:multibyte_initializer.obj
 0002:00000498       __acrt_stdio_initializer   0000000180046498     libucrt:stdio_initializer.obj
 0002:000004a0       __xi_z                     00000001800464a0     LIBCMT:initializers.obj
 0002:000004a8       __xp_a                     00000001800464a8     LIBCMT:initializers.obj
 0002:000004b0       __acrt_locale_terminator   00000001800464b0     libucrt:locale_initializer.obj
 0002:000004b8       __dcrt_console_output_terminator 00000001800464b8     libucrt:console_output_initializer.obj
 0002:000004c0       __acrt_stdio_terminator    00000001800464c0     libucrt:stdio_initializer.obj
 0002:000004c8       __xp_z                     00000001800464c8     LIBCMT:initializers.obj
 0002:000004d0       __xt_a                     00000001800464d0     LIBCMT:initializers.obj
 0002:000004d8       __xt_z                     00000001800464d8     LIBCMT:initializers.obj
 0002:000004e0       ??_7PxFoundation@physx@@6B@ 00000001800464e0     Adjacencies.obj
 0002:00000520       ??_C@_0EP@DAOLHIA@C?3?2Users?2Ndaba?2Desktop?2PhysX?94?4@ 0000000180046520     Adjacencies.obj
 0002:00000570       ??_C@_0DA@FMEHLBKI@Adjacencies?3?3UpdateLink?3?5invali@ 0000000180046570     Adjacencies.obj
 0002:000005a0       ??_C@_0EA@CPHOACLK@Adjacencies?3?3CreateDatabase?3?5ca@ 00000001800465a0     Adjacencies.obj
 0002:000005e0       ??_C@_0BM@OIFKLHDN@?$DMallocation?5names?5disabled?$DO@ 00000001800465e0     Adjacencies.obj
 0002:00000620       ?sBufferSize@DebugText@Cm@physx@@2HB 0000000180046620     Cooking.obj
 0002:00000624       ??_C@_06EJKDJEDO@PxBase@   0000000180046624     Cooking.obj
 0002:00000630       ??_C@_0N@CDGINLLF@PxConvexMesh@ 0000000180046630     Cooking.obj
 0002:00000640       ??_C@_0O@PBAKPCEC@PxHeightField@ 0000000180046640     Cooking.obj
 0002:00000650       ??_7PxBase@physx@@6B@      0000000180046650     Cooking.obj
 0002:00000678       ??_7PxCooking@physx@@6B@   0000000180046678     Cooking.obj
 0002:000006f8       ??_7Cooking@physx@@6B@     00000001800466f8     Cooking.obj
 0002:00000780       ??_C@_0FC@PJIHAFK@Cooking?3?3validateTriangleMesh?3?5@ 0000000180046780     Cooking.obj
 0002:000007e0       ??_C@_0EL@BHAFKCNN@C?3?2Users?2Ndaba?2Desktop?2PhysX?94?4@ 00000001800467e0     Cooking.obj
 0002:00000830       ??_C@_0EK@EKAIJEBL@Cooking?3?3cookConvexMesh?3?5user?9p@ 0000000180046830     Cooking.obj
 0002:00000880       ??_C@_0FA@GFFGAPML@Cooking?3?3cookConvexMesh?3?5provid@ 0000000180046880     Cooking.obj
 0002:000008d0       ??_C@_0EP@PKDCPNNO@Cooking?3?3cookConvexMesh?3?5provid@ 00000001800468d0     Cooking.obj
 0002:00000920       ??_C@_0EO@LKFMMDE@Cooking?3?3cookConvexMesh?3?5user?9p@ 0000000180046920     Cooking.obj
 0002:00000970       ??_C@_0EL@BMGNMGLA@C?3?2Users?2Ndaba?2Desktop?2PhysX?94?4@ 0000000180046970     Cooking.obj
 0002:000009bc       __real@3f800000            00000001800469bc     Cooking.obj
 0002:000009c0       __xmm@000000003a83126f3a83126f3a83126f 00000001800469c0     Cooking.obj
 0002:000009d0       __xmm@00000000ba83126fba83126fba83126f 00000001800469d0     Cooking.obj
 0002:000009e0       __xmm@3a83126f3a83126f3a83126f3a83126f 00000001800469e0     Cooking.obj
 0002:000009f0       __xmm@80000000800000008000000080000000 00000001800469f0     Cooking.obj
 0002:00000a00       __xmm@ba83126fba83126fba83126fba83126f 0000000180046a00     Cooking.obj
 0002:00000a10       ??_C@_0BA@DLCJDKDM@NonTrackedAlloc@ 0000000180046a10     CookingUtils.obj
 0002:00000a20       ??_C@_0FA@DBNHAGDH@C?3?2Users?2Ndaba?2Desktop?2PhysX?94?4@ 0000000180046a20     CookingUtils.obj
 0002:00000a70       ??_C@_0EM@LMNPEBCI@C?3?2Users?2Ndaba?2Desktop?2PhysX?94?4@ 0000000180046a70     EdgeList.obj
 0002:00000ac0       ??_C@_0CO@GBNJFPN@EdgeList?3?3CreateFacesToEdges?3?5N@ 0000000180046ac0     EdgeList.obj
 0002:00000af0       ??_C@_0CO@EHJBBMNK@EdgeList?3?3ComputeActiveEdges?3?5N@ 0000000180046af0     EdgeList.obj
 0002:00000b20       ??_C@_0DI@GBHLFOFP@ActiveEdges?3?3ComputeConvexEdges@ 0000000180046b20     EdgeList.obj
 0002:00000b58       ??_C@_0DM@JOGBLHDI@ActiveEdges?3?3ComputeConvexEdges@ 0000000180046b58     EdgeList.obj
 0002:00000ba0       ??_C@_0ED@FEMJKPEL@ActiveEdges?3?3ComputeConvexEdges@ 0000000180046ba0     EdgeList.obj
 0002:00000bf0       ??_C@_0EB@BFDPMFCD@ActiveEdges?3?3ComputeConvexEdges@ 0000000180046bf0     EdgeList.obj
 0002:00000c34       __real@bf7fbe77            0000000180046c34     EdgeList.obj
 0002:00000c40       __xmm@7fffffff7fffffff7fffffff7fffffff 0000000180046c40     EdgeList.obj
 0002:00000c50       ??_C@_0EP@CGFFJKNE@C?3?2Users?2Ndaba?2Desktop?2PhysX?94?4@ 0000000180046c50     MeshCleaner.obj
 0002:00000ca0       __real@3f000000            0000000180046ca0     MeshCleaner.obj
 0002:00000ca8       ??_7Quantizer@physx@@6B@   0000000180046ca8     Quantizer.obj
 0002:00000cd0       ??_7QuantizerImpl@@6B@     0000000180046cd0     Quantizer.obj
 0002:00000d00       ??_C@_0EN@PMOEACFJ@C?3?2Users?2Ndaba?2Desktop?2PhysX?94?4@ 0000000180046d00     Quantizer.obj
 0002:00000d50       __real@38d1b717            0000000180046d50     Quantizer.obj
 0002:00000d54       __real@3c23d70a            0000000180046d54     Quantizer.obj
 0002:00000d58       __real@3f0020c5            0000000180046d58     Quantizer.obj
 0002:00000d5c       __real@3f8020c5            0000000180046d5c     Quantizer.obj
 0002:00000d60       __real@7e7fffff            0000000180046d60     Quantizer.obj
 0002:00000d64       __real@7f7fffff            0000000180046d64     Quantizer.obj
 0002:00000d68       __real@fe7fffff            0000000180046d68     Quantizer.obj
 0002:00000d70       __xmm@fe7fffff7e7fffff7e7fffff7e7fffff 0000000180046d70     Quantizer.obj
 0002:00000da0       ??_C@_0FH@HAPDJGJM@C?3?2Users?2Ndaba?2Desktop?2PhysX?94?4@ 0000000180046da0     BVHStructureBuilder.obj
 0002:00000e00       __xmm@3ba3d70a3ba3d70a3ba3d70a3ba3d70a 0000000180046e00     BVHStructureBuilder.obj
 0002:00000e20       ?reductionFactors@SubSortQuick@physx@@2QBMB 0000000180046e20     RTreeCooking.obj
 0002:00000e30       ?stopAtTrisPerLeaf1@SubSortQuick@physx@@2QBIB 0000000180046e30     RTreeCooking.obj
 0002:00000ef0       ??_C@_0FF@JCALPNFD@C?3?2Users?2Ndaba?2Desktop?2PhysX?94?4@ 0000000180046ef0     RTreeCooking.obj
 0002:00000f50       ??_C@_0EK@KFNANAIC@C?3?2Users?2Ndaba?2Desktop?2PhysX?94?4@ 0000000180046f50     RTreeCooking.obj
 0002:00000fa0       ??_C@_0FD@LNGOBBNB@C?3?2Users?2Ndaba?2Desktop?2PhysX?94?4@ 0000000180046fa0     RTreeCooking.obj
 0002:00000ff4       __real@37800080            0000000180046ff4     RTreeCooking.obj
 0002:00000ff8       __real@41100000            0000000180046ff8     RTreeCooking.obj
 0002:00000ffc       __real@41700000            0000000180046ffc     RTreeCooking.obj
 0002:00001000       __real@42200000            0000000180047000     RTreeCooking.obj
 0002:00001004       __real@ff7fffff            0000000180047004     RTreeCooking.obj
 0002:00001010       __xmm@00000004000000030000000200000001 0000000180047010     RTreeCooking.obj
 0002:00001020       __xmm@3a03126f3a03126f3a03126f3a03126f 0000000180047020     RTreeCooking.obj
 0002:00001030       __xmm@3f8000003f8000003f8000003f800000 0000000180047030     RTreeCooking.obj
 0002:00001040       __xmm@7f7fffff7f7fffff7f7fffff7f7fffff 0000000180047040     RTreeCooking.obj
 0002:00001050       __xmm@ff7fffffff7fffffff7fffffff7fffff 0000000180047050     RTreeCooking.obj
 0002:00001080       __real@34800000            0000000180047080     MeshBuilder.obj
 0002:000010b0       ??_7MeshDataBase@Gu@physx@@6B@ 00000001800470b0     TriangleMeshBuilder.obj
 0002:000010c0       ??_C@_0EO@JJHGCKPA@C?3?2Users?2Ndaba?2Desktop?2PhysX?94?4@ 00000001800470c0     TriangleMeshBuilder.obj
 0002:00001110       ??_7TriangleMeshData@Gu@physx@@6B@ 0000000180047110     TriangleMeshBuilder.obj
 0002:00001118       ??_7RTreeTriangleData@Gu@physx@@6B@ 0000000180047118     TriangleMeshBuilder.obj
 0002:00001120       ??_7BV4TriangleData@Gu@physx@@6B@ 0000000180047120     TriangleMeshBuilder.obj
 0002:00001128       ??_7RemapCallback@RTreeCooker@physx@@6B@ 0000000180047128     TriangleMeshBuilder.obj
 0002:00001138       ??_7TriangleMeshBuilder@physx@@6B@ 0000000180047138     TriangleMeshBuilder.obj
 0002:00001160       ??_7RTreeTriangleMeshBuilder@physx@@6B@ 0000000180047160     TriangleMeshBuilder.obj
 0002:00001188       ??_7BV4TriangleMeshBuilder@physx@@6B@ 0000000180047188     TriangleMeshBuilder.obj
 0002:000011b0       ??_C@_0FN@KICINMEB@C?3?2Users?2Ndaba?2Desktop?2PhysX?94?4@ 00000001800471b0     TriangleMeshBuilder.obj
 0002:00001210       ??_C@_0FM@HAOFEFLA@C?3?2Users?2Ndaba?2Desktop?2PhysX?94?4@ 0000000180047210     TriangleMeshBuilder.obj
 0002:00001270       ??_C@_0DJ@IGODLHLP@TriangleMesh?3?5Enable?5mesh?5weldi@ 0000000180047270     TriangleMeshBuilder.obj
 0002:000012b0       ??_C@_0FJ@HHJLKGDF@TriangleMesh?3?5triangles?5are?5too@ 00000001800472b0     TriangleMeshBuilder.obj
 0002:00001310       ??_C@_0CN@KGPHHHLK@TriangleMesh?3?5mesh?5is?5too?5big?5f@ 0000000180047310     TriangleMeshBuilder.obj
 0002:00001340       ??_C@_0DD@CMJGDCNN@TriangleMesh?3?3loadFromDesc?3?5des@ 0000000180047340     TriangleMeshBuilder.obj
 0002:00001380       ??_C@_0ED@ILJJNHIP@TriangleMesh?3?3loadFromDesc?3?5mPa@ 0000000180047380     TriangleMeshBuilder.obj
 0002:000013c8       ??_C@_0BJ@BKHDBBHO@cleaning?5the?5mesh?5failed@ 00000001800473c8     TriangleMeshBuilder.obj
 0002:000013e8       ??_C@_0BK@JIDHMMCE@BV4?5tree?5failed?5to?5build?4@ 00000001800473e8     TriangleMeshBuilder.obj
 0002:00001408       ??_C@_0BL@DHNECNBE@BV32?5tree?5failed?5to?5build?4@ 0000000180047408     TriangleMeshBuilder.obj
 0002:00001428       ??_7RTreeCookerRemap@physx@@6B@ 0000000180047428     TriangleMeshBuilder.obj
 0002:00001438       __real@3951b717            0000000180047438     TriangleMeshBuilder.obj
 0002:0000143c       __real@3dcccccd            000000018004743c     TriangleMeshBuilder.obj
 0002:00001440       __real@48742400            0000000180047440     TriangleMeshBuilder.obj
 0002:00001450       __xmm@00000003000000020000000100000000 0000000180047450     TriangleMeshBuilder.obj
 0002:00001480       ??_C@_0FP@KFFHAMOH@C?3?2Users?2Ndaba?2Desktop?2PhysX?94?4@ 0000000180047480     BigConvexDataBuilder.obj
 0002:000014e0       __real@40000000            00000001800474e0     BigConvexDataBuilder.obj
 0002:00001510       ??_C@_0FM@OCFLKHNF@C?3?2Users?2Ndaba?2Desktop?2PhysX?94?4@ 0000000180047510     ConvexHullBuilder.obj
 0002:00001570       ??_C@_0EB@DCEIFDGC@ConvexHullBuilder?3?3init?3?5convex@ 0000000180047570     ConvexHullBuilder.obj
 0002:000015c0       ??_C@_0FM@KICBLCBH@Gu?3?3ConvexMesh?3?3checkHullPolygo@ 00000001800475c0     ConvexHullBuilder.obj
 0002:00001620       ??_C@_0GO@HBFIOGLL@Gu?3?3ConvexMesh?3?3checkHullPolygo@ 0000000180047620     ConvexHullBuilder.obj
 0002:00001690       ??_C@_0HF@OLJFBIEL@ConvexHullBuilder?3?5convex?5hull?5@ 0000000180047690     ConvexHullBuilder.obj
 0002:00001710       ??_C@_0OG@JNHFOIL@ConvexHullBuilder?3?5convex?5hull?5@ 0000000180047710     ConvexHullBuilder.obj
 0002:00001800       ??_C@_0EJ@NIOIBAKH@Cooking?3?3cookConvexMesh?3?5non?9ma@ 0000000180047800     ConvexHullBuilder.obj
 0002:0000184c       __real@3ca3d70a            000000018004784c     ConvexHullBuilder.obj
 0002:00001850       __real@3eaaaaab            0000000180047850     ConvexHullBuilder.obj
 0002:00001858       ??_7ConvexHullLib@physx@@6B@ 0000000180047858     ConvexHullLib.obj
 0002:00001880       ??_C@_0FI@DOCPIAFA@C?3?2Users?2Ndaba?2Desktop?2PhysX?94?4@ 0000000180047880     ConvexHullLib.obj
 0002:000018e0       ??_C@_0JE@PABBNGEL@ConvexHullLib?3?3cleanupVertices?3@ 00000001800478e0     ConvexHullLib.obj
 0002:00001974       __real@358637bd            0000000180047974     ConvexHullLib.obj
 0002:00001978       __real@3d4ccccd            0000000180047978     ConvexHullLib.obj
 0002:000019a0       ??_C@_0FK@OCFOANLP@C?3?2Users?2Ndaba?2Desktop?2PhysX?94?4@ 00000001800479a0     ConvexHullUtils.obj
 0002:000019fc       __real@3e20d97c            00000001800479fc     ConvexHullUtils.obj
 0002:00001a00       __xmm@00800000008000000080000000800000 0000000180047a00     ConvexHullUtils.obj
 0002:00001a10       __xmm@3f0000003f0000003f0000003f000000 0000000180047a10     ConvexHullUtils.obj
 0002:00001a20       __xmm@bf000000bf000000bf000000bf000000 0000000180047a20     ConvexHullUtils.obj
 0002:00001a50       ??_C@_0DF@LLFJIJGM@Gu?3?3ConvexMesh?3?3loadFromDesc?3?5d@ 0000000180047a50     ConvexMeshBuilder.obj
 0002:00001a90       ??_C@_0FM@CMPPAHIA@C?3?2Users?2Ndaba?2Desktop?2PhysX?94?4@ 0000000180047a90     ConvexMeshBuilder.obj
 0002:00001af0       ??_C@_0HK@JOGKIEAA@Gu?3?3ConvexMesh?3?5Mesh?5has?5a?5nega@ 0000000180047af0     ConvexMeshBuilder.obj
 0002:00001b70       ??_C@_0DH@NJPPHFFD@Gu?3?3ConvexMesh?3?5Error?5computing@ 0000000180047b70     ConvexMeshBuilder.obj
 0002:00001ba8       ??_C@_0DJ@LJDLGLDJ@Gu?3?3ConvexMesh?3?3loadConvexHull?3@ 0000000180047ba8     ConvexMeshBuilder.obj
 0002:00001bf0       ??_C@_0HJ@KJANPPOE@ConvexMeshBuilder?3?3computeHullP@ 0000000180047bf0     ConvexMeshBuilder.obj
 0002:00001c6c       ??_C@_06KDGGGLIJ@PxVec3@   0000000180047c6c     ConvexMeshBuilder.obj
 0002:00001c74       ??_C@_05LMJPANIN@PxU32@    0000000180047c74     ConvexMeshBuilder.obj
 0002:00001c80       ??_C@_0O@JMAGMMGG@PxHullPolygon@ 0000000180047c80     ConvexMeshBuilder.obj
 0002:00001c90       __real@33d6bf95            0000000180047c90     ConvexMeshBuilder.obj
 0002:00001c94       __real@3f13cd3a            0000000180047c94     ConvexMeshBuilder.obj
 0002:00001c98       __real@b3d6bf95            0000000180047c98     ConvexMeshBuilder.obj
 0002:00001c9c       __real@bf800000            0000000180047c9c     ConvexMeshBuilder.obj
 0002:00001ca0       __xmm@80000000000000008000000000000000 0000000180047ca0     ConvexMeshBuilder.obj
 0002:00001cb0       ??_C@_0DP@PJBJBEGF@Meshmerizer?3?3extractHullPolygon@ 0000000180047cb0     ConvexPolygonsBuilder.obj
 0002:00001cf0       ??_C@_0GA@LKGFJIJI@C?3?2Users?2Ndaba?2Desktop?2PhysX?94?4@ 0000000180047cf0     ConvexPolygonsBuilder.obj
 0002:00001d50       ??_C@_0DL@IAFKOCCK@ConvexHullBuilder?3?5convex?5hull?5@ 0000000180047d50     ConvexPolygonsBuilder.obj
 0002:00001d90       ??_C@_0GF@OJLJHAMH@ConvexHullBuilder?3?3CreateTriang@ 0000000180047d90     ConvexPolygonsBuilder.obj
 0002:00001df8       __real@3ba3d70a            0000000180047df8     ConvexPolygonsBuilder.obj
 0002:00001e00       ??_7QuickHullConvexHullLib@physx@@6B@ 0000000180047e00     QuickHullConvexHullLib.obj
 0002:00001e20       ??_C@_0GB@BFOPFFPK@C?3?2Users?2Ndaba?2Desktop?2PhysX?94?4@ 0000000180047e20     QuickHullConvexHullLib.obj
 0002:00001e90       ??_C@_0GA@EPPAEJPM@QuickHullConvexHullLib?3?3findSim@ 0000000180047e90     QuickHullConvexHullLib.obj
 0002:00001ef0       ??_C@_0FB@NEBIJMML@QuickHullConvexHullLib?3?3findSim@ 0000000180047ef0     QuickHullConvexHullLib.obj
 0002:00001f50       ??_C@_0FB@CLLCBEMM@QuickHullConvexHullLib?3?3findSim@ 0000000180047f50     QuickHullConvexHullLib.obj
 0002:00001fa4       __real@34c00000            0000000180047fa4     QuickHullConvexHullLib.obj
 0002:00001fa8       __real@3e800000            0000000180047fa8     QuickHullConvexHullLib.obj
 0002:00001fd0       __real@00000000            0000000180047fd0     VolumeIntegration.obj
 0002:00001fd8       __real@3fe0000000000000    0000000180047fd8     VolumeIntegration.obj
 0002:00001fe0       __real@3ff0000000000000    0000000180047fe0     VolumeIntegration.obj
 0002:00001ff0       __xmm@3c0888893c0888893c0888893c088889 0000000180047ff0     VolumeIntegration.obj
 0002:00002000       __xmm@3c8888893c8888893c8888893c888889 0000000180048000     VolumeIntegration.obj
 0002:00002010       __xmm@3d2aaaab3d2aaaab3d2aaaab3d2aaaab 0000000180048010     VolumeIntegration.obj
 0002:00002020       __xmm@3e2aaaab3e2aaaab3e2aaaab3e2aaaab 0000000180048020     VolumeIntegration.obj
 0002:00002030       __xmm@3f811111111111113f81111111111111 0000000180048030     VolumeIntegration.obj
 0002:00002040       __xmm@3f811111111111113f91111111111111 0000000180048040     VolumeIntegration.obj
 0002:00002050       __xmm@3f911111111111113f91111111111111 0000000180048050     VolumeIntegration.obj
 0002:00002060       __xmm@3fa55555555555553fa5555555555555 0000000180048060     VolumeIntegration.obj
 0002:00002070       __xmm@3fa55555555555553fc5555555555555 0000000180048070     VolumeIntegration.obj
 0002:00002080       ??_C@_0BA@EGLNOO@PhysXFoundation@ 0000000180048080     WindowsCookingDelayLoadHook.obj
 0002:00002090       ??_C@_0M@ILKNCJKN@PhysXCommon@ 0000000180048090     WindowsCookingDelayLoadHook.obj
 0002:000020a0       __sz_PhysXCommon_64_dll    00000001800480a0     PhysXCommon_64:PhysXCommon_64.dll
 0002:000020c0       __sz_PhysXFoundation_64_dll 00000001800480c0     PhysXFoundation_64:PhysXFoundation_64.dll
 0002:000020d8       ??_C@_1BK@DBDEIDLH@?$AAK?$AAE?$AAR?$AAN?$AAE?$AAL?$AA3?$AA2?$AA?4?$AAD?$AAL?$AAL@ 00000001800480d8     Delayimp:delayhlp.obj
 0002:000020f8       ??_C@_0BI@OMNLIJDB@AcquireSRWLockExclusive@ 00000001800480f8     Delayimp:delayhlp.obj
 0002:00002110       ??_C@_0BI@HMIEPCNJ@ReleaseSRWLockExclusive@ 0000000180048110     Delayimp:delayhlp.obj
 0002:00002128       __pfnDliFailureHook2       0000000180048128     Delayimp:delayhk1.obj
 0002:00002138       ??_7type_info@@6B@         0000000180048138     LIBCMT:std_type_info_static.obj
 0002:000021a0       _pDefaultRawDllMain        00000001800481a0     LIBCMT:dll_dllmain.obj
 0002:000021a0       _pRawDllMain               00000001800481a0     LIBCMT:dll_dllmain.obj
 0002:000021b0       _load_config_used          00000001800481b0     LIBCMT:loadcfg.obj
 0002:000022f0       __xmm@ffffffffffffffffffffffffffffffff 00000001800482f0     LIBCMT:utility.obj
 0002:00002300       _pDestructExceptionObject  0000000180048300     libvcruntime:ehhelpers.obj
 0002:00002a20       ??_C@_08EHJDFFNH@__based?$CI@ 0000000180048a20     libvcruntime:undname.obj
 0002:00002a30       ??_C@_07KOLFKCDI@__cdecl@  0000000180048a30     libvcruntime:undname.obj
 0002:00002a38       ??_C@_08GHMPAG@__pascal@   0000000180048a38     libvcruntime:undname.obj
 0002:00002a48       ??_C@_09IFJBGAPI@__stdcall@ 0000000180048a48     libvcruntime:undname.obj
 0002:00002a58       ??_C@_0L@NPHFGOKO@__thiscall@ 0000000180048a58     libvcruntime:undname.obj
 0002:00002a68       ??_C@_0L@JMKHOMEK@__fastcall@ 0000000180048a68     libvcruntime:undname.obj
 0002:00002a78       ??_C@_0N@BCKKPABJ@__vectorcall@ 0000000180048a78     libvcruntime:undname.obj
 0002:00002a88       ??_C@_09HIJEGCPM@__clrcall@ 0000000180048a88     libvcruntime:undname.obj
 0002:00002a94       ??_C@_06GHPCKEAG@__eabi@   0000000180048a94     libvcruntime:undname.obj
 0002:00002aa0       ??_C@_09IOPIDJLG@__swift_1@ 0000000180048aa0     libvcruntime:undname.obj
 0002:00002ab0       ??_C@_09KFNFGKHF@__swift_2@ 0000000180048ab0     libvcruntime:undname.obj
 0002:00002ac0       ??_C@_09LMMOFLDE@__swift_3@ 0000000180048ac0     libvcruntime:undname.obj
 0002:00002ad0       ??_C@_07JOMMBBKO@__ptr64@  0000000180048ad0     libvcruntime:undname.obj
 0002:00002ad8       ??_C@_0L@PILCLIHE@__restrict@ 0000000180048ad8     libvcruntime:undname.obj
 0002:00002ae8       ??_C@_0M@GFIIJFMG@__unaligned@ 0000000180048ae8     libvcruntime:undname.obj
 0002:00002af8       ??_C@_09DHDLOLLB@restrict?$CI@ 0000000180048af8     libvcruntime:undname.obj
 0002:00002b02       ??_C@_00CNPNBAHC@@         0000000180048b02     libvcruntime:undname.obj
 0002:00002b04       ??_C@_04NIHEBCM@?5new@     0000000180048b04     libvcruntime:undname.obj
 0002:00002b10       ??_C@_07FPCDHGMM@?5delete@ 0000000180048b10     libvcruntime:undname.obj
 0002:00002b18       ??_C@_01NEMOKFLO@?$DN@     0000000180048b18     libvcruntime:undname.obj
 0002:00002b1c       ??_C@_02GPIOPFAK@?$DO?$DO@ 0000000180048b1c     libvcruntime:undname.obj
 0002:00002b20       ??_C@_02FODMEDOG@?$DM?$DM@ 0000000180048b20     libvcruntime:undname.obj
 0002:00002b24       ??_C@_01DCLJPIOD@?$CB@     0000000180048b24     libvcruntime:undname.obj
 0002:00002b28       ??_C@_02EGOFBIJA@?$DN?$DN@ 0000000180048b28     libvcruntime:undname.obj
 0002:00002b2c       ??_C@_02FDNJECIE@?$CB?$DN@ 0000000180048b2c     libvcruntime:undname.obj
 0002:00002b30       ??_C@_02GPECMEKF@?$FL?$FN@ 0000000180048b30     libvcruntime:undname.obj
 0002:00002b38       ??_C@_08LHJFAFGD@operator@ 0000000180048b38     libvcruntime:undname.obj
 0002:00002b44       ??_C@_02HBOOOICD@?9?$DO@   0000000180048b44     libvcruntime:undname.obj
 0002:00002b48       ??_C@_01NBENCBCI@?$CK@     0000000180048b48     libvcruntime:undname.obj
 0002:00002b4c       ??_C@_02ECNGHCIF@?$CL?$CL@ 0000000180048b4c     libvcruntime:undname.obj
 0002:00002b50       ??_C@_02BAABKJLB@?9?9@     0000000180048b50     libvcruntime:undname.obj
 0002:00002b54       ??_C@_01JOAMLHOP@?9@       0000000180048b54     libvcruntime:undname.obj
 0002:00002b58       ??_C@_01MIFGBAGJ@?$CL@     0000000180048b58     libvcruntime:undname.obj
 0002:00002b5c       ??_C@_01HNPIGOCE@?$CG@     0000000180048b5c     libvcruntime:undname.obj
 0002:00002b60       ??_C@_03MNHNFDLC@?9?$DO?$CK@ 0000000180048b60     libvcruntime:undname.obj
 0002:00002b64       ??_C@_01KMDKNFGN@?1@       0000000180048b64     libvcruntime:undname.obj
 0002:00002b68       ??_C@_01FGNFDNOH@?$CF@     0000000180048b68     libvcruntime:undname.obj
 0002:00002b6c       ??_C@_01MNNFJEPP@?$DM@     0000000180048b6c     libvcruntime:undname.obj
 0002:00002b70       ??_C@_02EHCHHCKH@?$DM?$DN@ 0000000180048b70     libvcruntime:undname.obj
 0002:00002b74       ??_C@_01PPODPGHN@?$DO@     0000000180048b74     libvcruntime:undname.obj
 0002:00002b78       ??_C@_02EEKDKGMJ@?$DO?$DN@ 0000000180048b78     libvcruntime:undname.obj
 0002:00002b7c       ??_C@_01IHBHIGKO@?0@       0000000180048b7c     libvcruntime:undname.obj
 0002:00002b80       ??_C@_02HCKGKOFO@?$CI?$CJ@ 0000000180048b80     libvcruntime:undname.obj
 0002:00002b84       ??_C@_01PJKLJHI@?$HO@      0000000180048b84     libvcruntime:undname.obj
 0002:00002b88       ??_C@_01JKBOJNNK@?$FO@     0000000180048b88     libvcruntime:undname.obj
 0002:00002b8c       ??_C@_01DNKMNLPK@?$HM@     0000000180048b8c     libvcruntime:undname.obj
 0002:00002b90       ??_C@_02PPKAJPJL@?$CG?$CG@ 0000000180048b90     libvcruntime:undname.obj
 0002:00002b94       ??_C@_02NONPIBCD@?$HM?$HM@ 0000000180048b94     libvcruntime:undname.obj
 0002:00002b98       ??_C@_02FPIMKNGF@?$CK?$DN@ 0000000180048b98     libvcruntime:undname.obj
 0002:00002b9c       ??_C@_02FOEOMHFC@?$CL?$DN@ 0000000180048b9c     libvcruntime:undname.obj
 0002:00002ba0       ??_C@_02FKMDLLOA@?9?$DN@   0000000180048ba0     libvcruntime:undname.obj
 0002:00002ba4       ??_C@_02FJEHGPIO@?1?$DN@   0000000180048ba4     libvcruntime:undname.obj
 0002:00002ba8       ??_C@_02FENAOKFI@?$CF?$DN@ 0000000180048ba8     libvcruntime:undname.obj
 0002:00002bac       ??_C@_03IKFCCPFF@?$DO?$DO?$DN@ 0000000180048bac     libvcruntime:undname.obj
 0002:00002bb0       ??_C@_03CDNPDDLA@?$DM?$DM?$DN@ 0000000180048bb0     libvcruntime:undname.obj
 0002:00002bb4       ??_C@_02FGJGFEAB@?$CG?$DN@ 0000000180048bb4     libvcruntime:undname.obj
 0002:00002bb8       ??_C@_02DHLNPPGH@?$HM?$DN@ 0000000180048bb8     libvcruntime:undname.obj
 0002:00002bbc       ??_C@_02MHEGNOJ@?$FO?$DN@  0000000180048bbc     libvcruntime:undname.obj
 0002:00002bc0       ??_C@_09IFPLHPGF@?$GAvftable?8@ 0000000180048bc0     libvcruntime:undname.obj
 0002:00002bd0       ??_C@_09BLBHBJP@?$GAvbtable?8@ 0000000180048bd0     libvcruntime:undname.obj
 0002:00002be0       ??_C@_07FEEIOKP@?$GAvcall?8@ 0000000180048be0     libvcruntime:undname.obj
 0002:00002be8       ??_C@_08LLFFHHDJ@?$GAtypeof?8@ 0000000180048be8     libvcruntime:undname.obj
 0002:00002bf8       ??_C@_0BF@KDPPACIK@?$GAlocal?5static?5guard?8@ 0000000180048bf8     libvcruntime:undname.obj
 0002:00002c10       ??_C@_08OBABFOLI@?$GAstring?8@ 0000000180048c10     libvcruntime:undname.obj
 0002:00002c20       ??_C@_0BD@JDLKDPAB@?$GAvbase?5destructor?8@ 0000000180048c20     libvcruntime:undname.obj
 0002:00002c38       ??_C@_0BN@DEGPLNFK@?$GAvector?5deleting?5destructor?8@ 0000000180048c38     libvcruntime:undname.obj
 0002:00002c58       ??_C@_0BO@OBMKPJIG@?$GAdefault?5constructor?5closure?8@ 0000000180048c58     libvcruntime:undname.obj
 0002:00002c78       ??_C@_0BN@IMDCHIKM@?$GAscalar?5deleting?5destructor?8@ 0000000180048c78     libvcruntime:undname.obj
 0002:00002c98       ??_C@_0BO@PFGOCPJJ@?$GAvector?5constructor?5iterator?8@ 0000000180048c98     libvcruntime:undname.obj
 0002:00002cb8       ??_C@_0BN@LFPFMEDL@?$GAvector?5destructor?5iterator?8@ 0000000180048cb8     libvcruntime:undname.obj
 0002:00002cd8       ??_C@_0CE@IKBNEHA@?$GAvector?5vbase?5constructor?5itera@ 0000000180048cd8     libvcruntime:undname.obj
 0002:00002d00       ??_C@_0BL@NILFHHPC@?$GAvirtual?5displacement?5map?8@ 0000000180048d00     libvcruntime:undname.obj
 0002:00002d20       ??_C@_0CB@JONCMFFK@?$GAeh?5vector?5constructor?5iterator@ 0000000180048d20     libvcruntime:undname.obj
 0002:00002d48       ??_C@_0CA@GCEOPDGL@?$GAeh?5vector?5destructor?5iterator?8@ 0000000180048d48     libvcruntime:undname.obj
 0002:00002d68       ??_C@_0CH@OOJPLCPH@?$GAeh?5vector?5vbase?5constructor?5it@ 0000000180048d68     libvcruntime:undname.obj
 0002:00002d90       ??_C@_0BL@LLKPOHJI@?$GAcopy?5constructor?5closure?8@ 0000000180048d90     libvcruntime:undname.obj
 0002:00002db0       ??_C@_0BA@KBCDOMBN@?$GAudt?5returning?8@ 0000000180048db0     libvcruntime:undname.obj
 0002:00002dc0       ??_C@_03KLGMFNMG@?$GAEH@   0000000180048dc0     libvcruntime:undname.obj
 0002:00002dc4       ??_C@_05KHLCHHI@?$GARTTI@  0000000180048dc4     libvcruntime:undname.obj
 0002:00002dd0       ??_C@_0BA@KKLDJDLB@?$GAlocal?5vftable?8@ 0000000180048dd0     libvcruntime:undname.obj
 0002:00002de0       ??_C@_0CE@IIHCMGGL@?$GAlocal?5vftable?5constructor?5clos@ 0000000180048de0     libvcruntime:undname.obj
 0002:00002e04       ??_C@_06FHBGPFGH@?5new?$FL?$FN@ 0000000180048e04     libvcruntime:undname.obj
 0002:00002e10       ??_C@_09LBNFPBCA@?5delete?$FL?$FN@ 0000000180048e10     libvcruntime:undname.obj
 0002:00002e20       ??_C@_0P@HJKNJFNN@?$GAomni?5callsig?8@ 0000000180048e20     libvcruntime:undname.obj
 0002:00002e30       ??_C@_0BL@CNOONJFP@?$GAplacement?5delete?5closure?8@ 0000000180048e30     libvcruntime:undname.obj
 0002:00002e50       ??_C@_0BN@CKNJLHMB@?$GAplacement?5delete?$FL?$FN?5closure?8@ 0000000180048e50     libvcruntime:undname.obj
 0002:00002e70       ??_C@_0CG@CFDHKGGD@?$GAmanaged?5vector?5constructor?5ite@ 0000000180048e70     libvcruntime:undname.obj
 0002:00002e98       ??_C@_0CF@IMGKMJNO@?$GAmanaged?5vector?5destructor?5iter@ 0000000180048e98     libvcruntime:undname.obj
 0002:00002ec0       ??_C@_0CG@HLDDJMAG@?$GAeh?5vector?5copy?5constructor?5ite@ 0000000180048ec0     libvcruntime:undname.obj
 0002:00002ee8       ??_C@_0CM@FCBBDIGB@?$GAeh?5vector?5vbase?5copy?5construct@ 0000000180048ee8     libvcruntime:undname.obj
 0002:00002f18       ??_C@_0BL@CLIPGLGB@?$GAdynamic?5initializer?5for?5?8@ 0000000180048f18     libvcruntime:undname.obj
 0002:00002f38       ??_C@_0CB@PDBIFEP@?$GAdynamic?5atexit?5destructor?5for?5@ 0000000180048f38     libvcruntime:undname.obj
 0002:00002f60       ??_C@_0CD@CGAJBKEJ@?$GAvector?5copy?5constructor?5iterat@ 0000000180048f60     libvcruntime:undname.obj
 0002:00002f88       ??_C@_0CJ@GJELGAMM@?$GAvector?5vbase?5copy?5constructor?5@ 0000000180048f88     libvcruntime:undname.obj
 0002:00002fb8       ??_C@_0CL@FGIJHLCE@?$GAmanaged?5vector?5copy?5constructo@ 0000000180048fb8     libvcruntime:undname.obj
 0002:00002fe8       ??_C@_0BM@PMGGMLDN@?$GAlocal?5static?5thread?5guard?8@ 0000000180048fe8     libvcruntime:undname.obj
 0002:00003008       ??_C@_0N@BDNMDMOL@operator?5?$CC?$CC?5@ 0000000180049008     libvcruntime:undname.obj
 0002:00003018       ??_C@_0BC@GGEBGALA@operator?5co_await@ 0000000180049018     libvcruntime:undname.obj
 0002:00003030       ??_C@_0M@GAAIMMOH@operator?$DM?$DN?$DO@ 0000000180049030     libvcruntime:undname.obj
 0002:00003040       ??_C@_0BC@DAFEJGAK@?5Type?5Descriptor?8@ 0000000180049040     libvcruntime:undname.obj
 0002:00003058       ??_C@_0BM@LDKODKLH@?5Base?5Class?5Descriptor?5at?5?$CI@ 0000000180049058     libvcruntime:undname.obj
 0002:00003078       ??_C@_0BD@LGICGFMM@?5Base?5Class?5Array?8@ 0000000180049078     libvcruntime:undname.obj
 0002:00003090       ??_C@_0BN@MECKDCOJ@?5Class?5Hierarchy?5Descriptor?8@ 0000000180049090     libvcruntime:undname.obj
 0002:000030b0       ??_C@_0BK@CFCOFLF@?5Complete?5Object?5Locator?8@ 00000001800490b0     libvcruntime:undname.obj
 0002:000030d0       ??_C@_0BG@JNJLAMPM@?$GAanonymous?5namespace?8@ 00000001800490d0     libvcruntime:undname.obj
 0002:000030e8       ??_C@_04HEJADOOB@CV?3?5@   00000001800490e8     libvcruntime:undname.obj
 0002:000030f0       ??_C@_02MOLJINC@?3?3@      00000001800490f0     libvcruntime:undname.obj
 0002:000030f8       ??_C@_0BE@JAEOCHPE@template?9parameter?9@ 00000001800490f8     libvcruntime:undname.obj
 0002:00003110       ??_C@_0BF@LNLGBBNL@?$GAtemplate?9parameter?9@ 0000000180049110     libvcruntime:undname.obj
 0002:00003128       ??_C@_0O@KHGCOMHP@generic?9type?9@ 0000000180049128     libvcruntime:undname.obj
 0002:00003138       ??_C@_0P@ODDENDLM@?$GAgeneric?9type?9@ 0000000180049138     libvcruntime:undname.obj
 0002:00003148       ??_C@_02OHHJMEON@?8?8@     0000000180049148     libvcruntime:undname.obj
 0002:00003150       ??_C@_0BN@IBLMMFAP@?$GAnon?9type?9template?9parameter@ 0000000180049150     libvcruntime:undname.obj
 0002:00003170       ??_C@_03DLDNIBIK@?$CFlf@   0000000180049170     libvcruntime:undname.obj
 0002:00003174       ??_C@_04OFALKAJ@?$DP?$DP_C@ 0000000180049174     libvcruntime:undname.obj
 0002:0000317c       ??_C@_03KHICJKCI@?4?4?4@   000000018004917c     libvcruntime:undname.obj
 0002:00003180       ??_C@_04HIBGFPH@NULL@      0000000180049180     libvcruntime:undname.obj
 0002:00003188       ??_C@_02DPKJAMEF@?$CFd@    0000000180049188     libvcruntime:undname.obj
 0002:00003190       ??_C@_0BK@IHCCFNEL@?$GAtemplate?9type?9parameter?9@ 0000000180049190     libvcruntime:undname.obj
 0002:000031b0       ??_C@_0BK@OFCNNNKO@?$GAgeneric?9class?9parameter?9@ 00000001800491b0     libvcruntime:undname.obj
 0002:000031d0       ??_C@_0BL@NGJBLFIL@?$GAgeneric?9method?9parameter?9@ 00000001800491d0     libvcruntime:undname.obj
 0002:000031f0       ??_C@_07OHNGEDJK@nullptr@  00000001800491f0     libvcruntime:undname.obj
 0002:000031f8       ??_C@_06COJIGPIB@lambda@   00000001800491f8     libvcruntime:undname.obj
 0002:00003200       ??_C@_04GKJNKENE@void@     0000000180049200     libvcruntime:undname.obj
 0002:00003208       ??_C@_0BE@EODMJLIF@?$GAtemplate?9parameter@ 0000000180049208     libvcruntime:undname.obj
 0002:0000321c       ??_C@_03OPGICMGF@?$HN?8?5@ 000000018004921c     libvcruntime:undname.obj
 0002:00003220       ??_C@_02IGFCGPIL@?$HN?8@   0000000180049220     libvcruntime:undname.obj
 0002:00003228       ??_C@_0N@CBHHHENL@?$GAvtordispex?$HL@ 0000000180049228     libvcruntime:undname.obj
 0002:00003238       ??_C@_0L@GHPFDFH@?$GAvtordisp?$HL@ 0000000180049238     libvcruntime:undname.obj
 0002:00003248       ??_C@_0L@HNGCOGAE@?$GAadjustor?$HL@ 0000000180049248     libvcruntime:undname.obj
 0002:00003258       ??_C@_0CB@KJDOOODE@?$GAlocal?5static?5destructor?5helper@ 0000000180049258     libvcruntime:undname.obj
 0002:00003280       ??_C@_0DB@ILEFOCIJ@?$GAtemplate?5static?5data?5member?5co@ 0000000180049280     libvcruntime:undname.obj
 0002:000032b8       ??_C@_0DA@HGFJFBBE@?$GAtemplate?5static?5data?5member?5de@ 00000001800492b8     libvcruntime:undname.obj
 0002:000032e8       ??_C@_07PGOEDBHP@static?5@ 00000001800492e8     libvcruntime:undname.obj
 0002:000032f0       ??_C@_08NIEOINHE@virtual?5@ 00000001800492f0     libvcruntime:undname.obj
 0002:00003300       ??_C@_09LAPHOOG@private?3?5@ 0000000180049300     libvcruntime:undname.obj
 0002:00003310       ??_C@_0M@GAIFPFIP@protected?3?5@ 0000000180049310     libvcruntime:undname.obj
 0002:00003320       ??_C@_08GPDDCMKI@public?3?5@ 0000000180049320     libvcruntime:undname.obj
 0002:00003330       ??_C@_08KJLFOPNE@?$FLthunk?$FN?3@ 0000000180049330     libvcruntime:undname.obj
 0002:00003340       ??_C@_0M@DHNBOJMP@extern?5?$CCC?$CC?5@ 0000000180049340     libvcruntime:undname.obj
 0002:0000334c       ??_C@_02KCKGHPCA@?$CJ?5@   000000018004934c     libvcruntime:undname.obj
 0002:00003350       ??_C@_05CIHEBHNO@char?5@   0000000180049350     libvcruntime:undname.obj
 0002:00003358       ??_C@_06EHJMALKF@short?5@  0000000180049358     libvcruntime:undname.obj
 0002:00003360       ??_C@_04LAHKHJMA@int?5@    0000000180049360     libvcruntime:undname.obj
 0002:00003368       ??_C@_05CJIMAING@long?5@   0000000180049368     libvcruntime:undname.obj
 0002:00003370       ??_C@_09EBBEKKIH@unsigned?5@ 0000000180049370     libvcruntime:undname.obj
 0002:0000337c       ??_C@_05BEFAKPML@void?5@   000000018004937c     libvcruntime:undname.obj
 0002:00003388       ??_C@_09GAIEOBLP@volatile?5@ 0000000180049388     libvcruntime:undname.obj
 0002:00003398       ??_C@_08PABEKFH@volatile@  0000000180049398     libvcruntime:undname.obj
 0002:000033a8       ??_C@_0BA@LKIJLKPP@std?3?3nullptr_t?5@ 00000001800493a8     libvcruntime:undname.obj
 0002:000033b8       ??_C@_0P@GCOCNKDM@std?3?3nullptr_t@ 00000001800493b8     libvcruntime:undname.obj
 0002:000033c8       ??_C@_0L@EGPHHEKN@?$DMellipsis?$DO@ 00000001800493c8     libvcruntime:undname.obj
 0002:000033d4       ??_C@_04EENFHACM@?0?4?4?4@ 00000001800493d4     libvcruntime:undname.obj
 0002:000033e0       ??_C@_0M@ELJOJFFH@?0?$DMellipsis?$DO@ 00000001800493e0     libvcruntime:undname.obj
 0002:000033f0       ??_C@_09DNHFEOJI@?5noexcept@ 00000001800493f0     libvcruntime:undname.obj
 0002:000033fc       ??_C@_03PBJBJNON@cpu@      00000001800493fc     libvcruntime:undname.obj
 0002:00003400       ??_C@_03DCBBJBAA@amp@      0000000180049400     libvcruntime:undname.obj
 0002:00003404       ??_C@_02KEGNLNML@?0?5@     0000000180049404     libvcruntime:undname.obj
 0002:00003408       ??_C@_04ENMBGAPA@char@     0000000180049408     libvcruntime:undname.obj
 0002:00003410       ??_C@_05BFKKPKCG@short@    0000000180049410     libvcruntime:undname.obj
 0002:00003418       ??_C@_03JBIPMCLC@int@      0000000180049418     libvcruntime:undname.obj
 0002:0000341c       ??_C@_04GOKPGOLB@long@     000000018004941c     libvcruntime:undname.obj
 0002:00003424       ??_C@_05KNFBNCOH@float@    0000000180049424     libvcruntime:undname.obj
 0002:0000342c       ??_C@_06BNJCAIGJ@double@   000000018004942c     libvcruntime:undname.obj
 0002:00003434       ??_C@_04DDKJGDCM@bool@     0000000180049434     libvcruntime:undname.obj
 0002:0000343c       ??_C@_06EBGKOKIG@__int8@   000000018004943c     libvcruntime:undname.obj
 0002:00003448       ??_C@_07ICFHOGAF@__int16@  0000000180049448     libvcruntime:undname.obj
 0002:00003450       ??_C@_07OFLPPHGP@__int32@  0000000180049450     libvcruntime:undname.obj
 0002:00003458       ??_C@_07LFCOJCAC@__int64@  0000000180049458     libvcruntime:undname.obj
 0002:00003460       ??_C@_08GAHOLHEO@__int128@ 0000000180049460     libvcruntime:undname.obj
 0002:00003470       ??_C@_09EEKGDCPH@?$DMunknown?$DO@ 0000000180049470     libvcruntime:undname.obj
 0002:00003480       ??_C@_07CFHGOPCN@char8_t@  0000000180049480     libvcruntime:undname.obj
 0002:00003488       ??_C@_08HBIPOFJB@char16_t@ 0000000180049488     libvcruntime:undname.obj
 0002:00003498       ??_C@_08IECNCBKG@char32_t@ 0000000180049498     libvcruntime:undname.obj
 0002:000034a8       ??_C@_07CLGGIAMF@wchar_t@  00000001800494a8     libvcruntime:undname.obj
 0002:000034b0       ??_C@_04HAPDLBFF@auto@     00000001800494b0     libvcruntime:undname.obj
 0002:000034b8       ??_C@_0P@LHCGKIGK@decltype?$CIauto?$CJ@ 00000001800494b8     libvcruntime:undname.obj
 0002:000034c8       ??_C@_05PCNBGHCF@this?5@   00000001800494c8     libvcruntime:undname.obj
 0002:000034d0       ??_C@_06GCICPBLB@__w64?5@  00000001800494d0     libvcruntime:undname.obj
 0002:000034d8       ??_C@_07NFANNNEC@UNKNOWN@  00000001800494d8     libvcruntime:undname.obj
 0002:000034e0       ??_C@_07EDHNAJHC@signed?5@ 00000001800494e0     libvcruntime:undname.obj
 0002:000034e8       ??_C@_05BNCCCJPP@const@    00000001800494e8     libvcruntime:undname.obj
 0002:000034f0       ??_C@_09EFNPDFFP@?5volatile@ 00000001800494f0     libvcruntime:undname.obj
 0002:00003500       ??_C@_0P@GCIFDJCJ@?$GAunknown?5ecsu?8@ 0000000180049500     libvcruntime:undname.obj
 0002:00003510       ??_C@_06MOJHIBMG@union?5@  0000000180049510     libvcruntime:undname.obj
 0002:00003518       ??_C@_07DIBCDNGL@struct?5@ 0000000180049518     libvcruntime:undname.obj
 0002:00003520       ??_C@_06LJBABKPM@class?5@  0000000180049520     libvcruntime:undname.obj
 0002:00003528       ??_C@_08KOFANOFK@coclass?5@ 0000000180049528     libvcruntime:undname.obj
 0002:00003538       ??_C@_0N@DLIEFKNA@cointerface?5@ 0000000180049538     libvcruntime:undname.obj
 0002:00003548       ??_C@_05LJGMCFOG@enum?5@   0000000180049548     libvcruntime:undname.obj
 0002:00003550       ??_C@_06LIJLOJAG@const?5@  0000000180049550     libvcruntime:undname.obj
 0002:00003558       ??_C@_02KJPKDIBN@?$CG?5@   0000000180049558     libvcruntime:undname.obj
 0002:0000355c       ??_C@_03PCKGMOPB@?$CG?$CG?5@ 000000018004955c     libvcruntime:undname.obj
 0002:00003560       ??_C@_0M@EALIELKG@cli?3?3array?$DM@ 0000000180049560     libvcruntime:undname.obj
 0002:00003570       ??_C@_0O@GKABPPIF@cli?3?3pin_ptr?$DM@ 0000000180049570     libvcruntime:undname.obj
 0002:00003580       ??_C@_02GOGNNPBN@?$CJ?$FL@ 0000000180049580     libvcruntime:undname.obj
 0002:00003584       ??_C@_06EEGAIFAK@?$HLflat?$HN@ 0000000180049584     libvcruntime:undname.obj
 0002:0000358c       ??_C@_05JIBOFOHK@?$HLfor?5@ 000000018004958c     libvcruntime:undname.obj
 0002:00003594       ??_C@_02MDINNEEG@s?5@      0000000180049594     libvcruntime:undname.obj
 0002:000035a0       ??_7charNode@@6B@          00000001800495a0     libvcruntime:undname.obj
 0002:000035c8       ??_7pcharNode@@6B@         00000001800495c8     libvcruntime:undname.obj
 0002:000035f0       ??_7pDNameNode@@6B@        00000001800495f0     libvcruntime:undname.obj
 0002:00003618       ??_7DNameStatusNode@@6B@   0000000180049618     libvcruntime:undname.obj
 0002:00003640       ??_7pairNode@@6B@          0000000180049640     libvcruntime:undname.obj
 0002:00003760       ??_C@_04OKOHEJBO@?5?$DP?$DP?5@ 0000000180049760     libvcruntime:undname.obj
 0002:00003770       ?nodes@?1??make@DNameStatusNode@@SAPEBV2@W4DNameStatus@@@Z@4QBV2@B 0000000180049770     libvcruntime:undname.obj
 0002:000037b0       ?s_negLengthTab@FH4@@3QBCB 00000001800497b0     libvcruntime:risctrnsctrl.obj
 0002:000037c0       ?s_shiftTab@FH4@@3QBEB     00000001800497c0     libvcruntime:risctrnsctrl.obj
 0002:00003880       ??_C@_1DM@KHCHBNEB@?$AAa?$AAp?$AAi?$AA?9?$AAm?$AAs?$AA?9?$AAw?$AAi?$AAn?$AA?9?$AAc?$AAo?$AAr?$AAe@ 0000000180049880     libvcruntime:winapi_downlevel.obj
 0002:000038c0       ??_C@_1DK@LPPGFMPP@?$AAa?$AAp?$AAi?$AA?9?$AAm?$AAs?$AA?9?$AAw?$AAi?$AAn?$AA?9?$AAc?$AAo?$AAr?$AAe@ 00000001800498c0     libvcruntime:winapi_downlevel.obj
 0002:00003900       ??_C@_1BC@GDMECMAK@?$AAk?$AAe?$AAr?$AAn?$AAe?$AAl?$AA3?$AA2@ 0000000180049900     libvcruntime:winapi_downlevel.obj
 0002:00003918       ??_C@_1BA@PFFKHIOG@?$AAa?$AAp?$AAi?$AA?9?$AAm?$AAs?$AA?9@ 0000000180049918     libvcruntime:winapi_downlevel.obj
 0002:00003930       ??_C@_08KNHFBNJ@FlsAlloc@  0000000180049930     libvcruntime:winapi_downlevel.obj
 0002:00003948       ??_C@_07PEJMOBNF@FlsFree@  0000000180049948     libvcruntime:winapi_downlevel.obj
 0002:00003958       ??_C@_0M@GDNOONDI@FlsGetValue@ 0000000180049958     libvcruntime:winapi_downlevel.obj
 0002:00003970       ??_C@_0M@JCPCPOEF@FlsSetValue@ 0000000180049970     libvcruntime:winapi_downlevel.obj
 0002:00003988       ??_C@_0BM@HCFOFFN@InitializeCriticalSectionEx@ 0000000180049988     libvcruntime:winapi_downlevel.obj
 0002:000039b0       ??_7exception@std@@6B@     00000001800499b0     libvcruntime:frame.obj
 0002:000039c0       ??_C@_0BC@EOODALEL@Unknown?5exception@ 00000001800499c0     libvcruntime:frame.obj
 0002:000039e0       ??_7bad_exception@std@@6B@ 00000001800499e0     libvcruntime:frame.obj
 0002:000039f0       ??_C@_0O@DPKOEFFH@bad?5exception@ 00000001800499f0     libvcruntime:frame.obj
 0002:00004188       __real@3f1a36e2eb1c432d    000000018004a188     libucrt:atan2f.obj
 0002:00004190       __real@3f490fdb            000000018004a190     libucrt:atan2f.obj
 0002:00004198       __real@3fb0000000000000    000000018004a198     libucrt:atan2f.obj
 0002:000041a0       __real@3fc2492482bd6be1    000000018004a1a0     libucrt:atan2f.obj
 0002:000041a8       __real@3fc90fdb            000000018004a1a8     libucrt:atan2f.obj
 0002:000041b0       __real@3fc99999999643a3    000000018004a1b0     libucrt:atan2f.obj
 0002:000041b8       __real@3fd5555555550877    000000018004a1b8     libucrt:atan2f.obj
 0002:000041c0       __real@3fd5555555555538    000000018004a1c0     libucrt:atan2f.obj
 0002:000041c8       __real@3ff921fb54442d18    000000018004a1c8     libucrt:atan2f.obj
 0002:000041d0       __real@400921fb54442d18    000000018004a1d0     libucrt:atan2f.obj
 0002:000041d8       __real@4016cbe4            000000018004a1d8     libucrt:atan2f.obj
 0002:000041dc       __real@40490fdb            000000018004a1dc     libucrt:atan2f.obj
 0002:000041e0       __real@4070000000000000    000000018004a1e0     libucrt:atan2f.obj
 0002:000041e8       __real@80000000            000000018004a1e8     libucrt:atan2f.obj
 0002:000041ec       __real@bf490fdb            000000018004a1ec     libucrt:atan2f.obj
 0002:000041f0       __real@bfc90fdb            000000018004a1f0     libucrt:atan2f.obj
 0002:000041f4       __real@c016cbe4            000000018004a1f4     libucrt:atan2f.obj
 0002:000041f8       __real@c0490fdb            000000018004a1f8     libucrt:atan2f.obj
 0002:00004450       __acrt_exception_action_table 000000018004a450     libucrt:exception_filter.obj
 0002:00004510       __acrt_signal_action_table_count 000000018004a510     libucrt:exception_filter.obj
 0002:00004518       __acrt_signal_action_first_fpe_index 000000018004a518     libucrt:exception_filter.obj
 0002:00004520       __acrt_signal_action_fpe_count 000000018004a520     libucrt:exception_filter.obj
 0002:00004528       ??_C@_1BI@BGOHAHKC@?$AAm?$AAs?$AAc?$AAo?$AAr?$AAe?$AAe?$AA?4?$AAd?$AAl?$AAl@ 000000018004a528     libucrt:exit.obj
 0002:00004540       ??_C@_0P@MIGLKIOC@CorExitProcess@ 000000018004a540     libucrt:exit.obj
 0002:00004650       ?standard_lookup_table_spectre@__crt_stdio_output@@3V?$spectre_mitigated_lookup_table@Ustate_transition_pair@__crt_stdio_output@@$0IA@@1@B 000000018004a650     libucrt:output.obj
 0002:00004a50       ?format_validation_lookup_table_spectre@__crt_stdio_output@@3V?$spectre_mitigated_lookup_table@Ustate_transition_pair@__crt_stdio_output@@$0IA@@1@B 000000018004aa50     libucrt:output.obj
 0002:00004e50       ??_C@_1O@CEDCILHN@?$AA?$CI?$AAn?$AAu?$AAl?$AAl?$AA?$CJ@ 000000018004ae50     libucrt:output.obj
 0002:00004e60       ??_C@_06OJHGLDPL@?$CInull?$CJ@ 000000018004ae60     libucrt:output.obj
 0002:00004fe0       ??_C@_04LAGPAAHP@sinf@     000000018004afe0     libucrt:sincos_special.obj
 0002:00004fe8       ??_C@_04OBBKPIAC@cosf@     000000018004afe8     libucrt:sincos_special.obj
 0002:00004ff0       __Lcosfarray               000000018004aff0     libucrt:lsincosf_array.obj
 0002:00005020       __Lsinfarray               000000018004b020     libucrt:lsincosf_array.obj
 0002:00005040       __L_2_by_pi_bits           000000018004b040     libucrt:l2_by_pi_bits.obj
 0002:00005318       ??_C@_1M@HPNHIDJI@?$AAj?$AAa?$AA?9?$AAJ?$AAP@ 000000018004b318     libucrt:mbctype.obj
 0002:00005328       ??_C@_1M@BIBDDEMK@?$AAz?$AAh?$AA?9?$AAC?$AAN@ 000000018004b328     libucrt:mbctype.obj
 0002:00005338       ??_C@_1M@JLOOOEGK@?$AAk?$AAo?$AA?9?$AAK?$AAR@ 000000018004b338     libucrt:mbctype.obj
 0002:00005348       ??_C@_1M@CLNBBOPM@?$AAz?$AAh?$AA?9?$AAT?$AAW@ 000000018004b348     libucrt:mbctype.obj
 0002:00005400       ??_C@_1EA@JGEFHKEI@?$AAa?$AAp?$AAi?$AA?9?$AAm?$AAs?$AA?9?$AAw?$AAi?$AAn?$AA?9?$AAc?$AAo?$AAr?$AAe@ 000000018004b400     libucrt:winapi_thunks.obj
 0002:00005440       ??_C@_1DI@IJCEHOCB@?$AAa?$AAp?$AAi?$AA?9?$AAm?$AAs?$AA?9?$AAw?$AAi?$AAn?$AA?9?$AAc?$AAo?$AAr?$AAe@ 000000018004b440     libucrt:winapi_thunks.obj
 0002:00005480       ??_C@_1EI@MPIAOHOC@?$AAa?$AAp?$AAi?$AA?9?$AAm?$AAs?$AA?9?$AAw?$AAi?$AAn?$AA?9?$AAc?$AAo?$AAr?$AAe@ 000000018004b480     libucrt:winapi_thunks.obj
 0002:000054d0       ??_C@_1FK@FPHCKFIE@?$AAa?$AAp?$AAi?$AA?9?$AAm?$AAs?$AA?9?$AAw?$AAi?$AAn?$AA?9?$AAc?$AAo?$AAr?$AAe@ 000000018004b4d0     libucrt:winapi_thunks.obj
 0002:00005530       ??_C@_1EM@DILCGIIO@?$AAa?$AAp?$AAi?$AA?9?$AAm?$AAs?$AA?9?$AAw?$AAi?$AAn?$AA?9?$AAc?$AAo?$AAr?$AAe@ 000000018004b530     libucrt:winapi_thunks.obj
 0002:00005580       ??_C@_1DM@LNCGDDPN@?$AAa?$AAp?$AAi?$AA?9?$AAm?$AAs?$AA?9?$AAw?$AAi?$AAn?$AA?9?$AAc?$AAo?$AAr?$AAe@ 000000018004b580     libucrt:winapi_thunks.obj
 0002:000055c0       ??_C@_1DO@FPAPJEMD@?$AAa?$AAp?$AAi?$AA?9?$AAm?$AAs?$AA?9?$AAw?$AAi?$AAn?$AA?9?$AAc?$AAo?$AAr?$AAe@ 000000018004b5c0     libucrt:winapi_thunks.obj
 0002:00005600       ??_C@_1DK@NDHNAHIO@?$AAa?$AAp?$AAi?$AA?9?$AAm?$AAs?$AA?9?$AAw?$AAi?$AAn?$AA?9?$AAc?$AAo?$AAr?$AAe@ 000000018004b600     libucrt:winapi_thunks.obj
 0002:00005640       ??_C@_1DM@KGHDGBCM@?$AAa?$AAp?$AAi?$AA?9?$AAm?$AAs?$AA?9?$AAw?$AAi?$AAn?$AA?9?$AAc?$AAo?$AAr?$AAe@ 000000018004b640     libucrt:winapi_thunks.obj
 0002:00005680       ??_C@_1EO@IJIOEFOH@?$AAa?$AAp?$AAi?$AA?9?$AAm?$AAs?$AA?9?$AAw?$AAi?$AAn?$AA?9?$AAr?$AAt?$AAc?$AAo@ 000000018004b680     libucrt:winapi_thunks.obj
 0002:000056d0       ??_C@_1FG@HHGEKANL@?$AAa?$AAp?$AAi?$AA?9?$AAm?$AAs?$AA?9?$AAw?$AAi?$AAn?$AA?9?$AAs?$AAe?$AAc?$AAu@ 000000018004b6d0     libucrt:winapi_thunks.obj
 0002:00005730       ??_C@_1EG@DBIOJECG@?$AAe?$AAx?$AAt?$AA?9?$AAm?$AAs?$AA?9?$AAw?$AAi?$AAn?$AA?9?$AAn?$AAt?$AAu?$AAs@ 000000018004b730     libucrt:winapi_thunks.obj
 0002:00005780       ??_C@_1EO@FIHMJCLF@?$AAe?$AAx?$AAt?$AA?9?$AAm?$AAs?$AA?9?$AAw?$AAi?$AAn?$AA?9?$AAn?$AAt?$AAu?$AAs@ 000000018004b780     libucrt:winapi_thunks.obj
 0002:000057d0       ??_C@_1BC@DNHGCMLG@?$AAa?$AAd?$AAv?$AAa?$AAp?$AAi?$AA3?$AA2@ 000000018004b7d0     libucrt:winapi_thunks.obj
 0002:000057e8       ??_C@_1M@OAIMIKLP@?$AAn?$AAt?$AAd?$AAl?$AAl@ 000000018004b7e8     libucrt:winapi_thunks.obj
 0002:00005800       ??_C@_1EG@DPGNFKGC@?$AAa?$AAp?$AAi?$AA?9?$AAm?$AAs?$AA?9?$AAw?$AAi?$AAn?$AA?9?$AAa?$AAp?$AAp?$AAm@ 000000018004b800     libucrt:winapi_thunks.obj
 0002:00005848       ??_C@_1O@BCCLBEOE@?$AAu?$AAs?$AAe?$AAr?$AA3?$AA2@ 000000018004b848     libucrt:winapi_thunks.obj
 0002:00005858       ??_C@_1BA@IAIFMGEF@?$AAe?$AAx?$AAt?$AA?9?$AAm?$AAs?$AA?9@ 000000018004b858     libucrt:winapi_thunks.obj
 0002:00005870       ??_C@_0BA@FHFNEAED@AreFileApisANSI@ 000000018004b870     libucrt:winapi_thunks.obj
 0002:000058b0       ??_C@_0O@KKBNKAPF@LCMapStringEx@ 000000018004b8b0     libucrt:winapi_thunks.obj
 0002:000058c8       ??_C@_0BB@HBDEELFH@LocaleNameToLCID@ 000000018004b8c8     libucrt:winapi_thunks.obj
 0002:000058e0       ??_C@_0CF@OJOFEIGO@AppPolicyGetProcessTerminationM@ 000000018004b8e0     libucrt:winapi_thunks.obj
 0002:00005910       __lc_time_c                000000018004b910     libucrt:nlsdata.obj
 0002:00005bd0       ??_C@_03KOEHGMDN@Sun@      000000018004bbd0     libucrt:nlsdata.obj
 0002:00005bd4       ??_C@_03PDAGKDH@Mon@       000000018004bbd4     libucrt:nlsdata.obj
 0002:00005bd8       ??_C@_03NAGEINEP@Tue@      000000018004bbd8     libucrt:nlsdata.obj
 0002:00005bdc       ??_C@_03MHOMLAJA@Wed@      000000018004bbdc     libucrt:nlsdata.obj
 0002:00005be0       ??_C@_03IOFIKPDN@Thu@      000000018004bbe0     libucrt:nlsdata.obj
 0002:00005be4       ??_C@_03IDIOELNC@Fri@      000000018004bbe4     libucrt:nlsdata.obj
 0002:00005be8       ??_C@_03FEFJNEK@Sat@       000000018004bbe8     libucrt:nlsdata.obj
 0002:00005bec       ??_C@_06OOPIFAJ@Sunday@    000000018004bbec     libucrt:nlsdata.obj
 0002:00005bf4       ??_C@_06JLEDEDGH@Monday@   000000018004bbf4     libucrt:nlsdata.obj
 0002:00005c00       ??_C@_07BAAGCFCM@Tuesday@  000000018004bc00     libucrt:nlsdata.obj
 0002:00005c08       ??_C@_09DLIGFAKA@Wednesday@ 000000018004bc08     libucrt:nlsdata.obj
 0002:00005c18       ??_C@_08HACCIKIA@Thursday@ 000000018004bc18     libucrt:nlsdata.obj
 0002:00005c24       ??_C@_06JECMNKMI@Friday@   000000018004bc24     libucrt:nlsdata.obj
 0002:00005c30       ??_C@_08INBOOONO@Saturday@ 000000018004bc30     libucrt:nlsdata.obj
 0002:00005c3c       ??_C@_03JIHJHPIE@Jan@      000000018004bc3c     libucrt:nlsdata.obj
 0002:00005c40       ??_C@_03HJBDCHOM@Feb@      000000018004bc40     libucrt:nlsdata.obj
 0002:00005c44       ??_C@_03ODNJBKGA@Mar@      000000018004bc44     libucrt:nlsdata.obj
 0002:00005c48       ??_C@_03LEOLGMJP@Apr@      000000018004bc48     libucrt:nlsdata.obj
 0002:00005c4c       ??_C@_03CNMDKL@May@        000000018004bc4c     libucrt:nlsdata.obj
 0002:00005c50       ??_C@_03IDFGHECI@Jun@      000000018004bc50     libucrt:nlsdata.obj
 0002:00005c54       ??_C@_03LBGABGKK@Jul@      000000018004bc54     libucrt:nlsdata.obj
 0002:00005c58       ??_C@_03IFJFEIGA@Aug@      000000018004bc58     libucrt:nlsdata.obj
 0002:00005c5c       ??_C@_03GGCAPAJC@Sep@      000000018004bc5c     libucrt:nlsdata.obj
 0002:00005c60       ??_C@_03BMAOKBAD@Oct@      000000018004bc60     libucrt:nlsdata.obj
 0002:00005c64       ??_C@_03JPJOFNIA@Nov@      000000018004bc64     libucrt:nlsdata.obj
 0002:00005c68       ??_C@_03MKABNOCG@Dec@      000000018004bc68     libucrt:nlsdata.obj
 0002:00005c70       ??_C@_07CGJPFGJA@January@  000000018004bc70     libucrt:nlsdata.obj
 0002:00005c78       ??_C@_08GNJGEPFN@February@ 000000018004bc78     libucrt:nlsdata.obj
 0002:00005c84       ??_C@_05HPCKOFNC@March@    000000018004bc84     libucrt:nlsdata.obj
 0002:00005c8c       ??_C@_05DMJDNLEJ@April@    000000018004bc8c     libucrt:nlsdata.obj
 0002:00005c94       ??_C@_04CNLMGBGM@June@     000000018004bc94     libucrt:nlsdata.obj
 0002:00005c9c       ??_C@_04MIEPOIFP@July@     000000018004bc9c     libucrt:nlsdata.obj
 0002:00005ca4       ??_C@_06LBBHFDDG@August@   000000018004bca4     libucrt:nlsdata.obj
 0002:00005cb0       ??_C@_09BHHEALKD@September@ 000000018004bcb0     libucrt:nlsdata.obj
 0002:00005cc0       ??_C@_07JJNFCEND@October@  000000018004bcc0     libucrt:nlsdata.obj
 0002:00005cc8       ??_C@_08HCHEGEOA@November@ 000000018004bcc8     libucrt:nlsdata.obj
 0002:00005cd8       ??_C@_08EDHMEBNP@December@ 000000018004bcd8     libucrt:nlsdata.obj
 0002:00005ce4       ??_C@_02DEDBPAFC@AM@       000000018004bce4     libucrt:nlsdata.obj
 0002:00005ce8       ??_C@_02CJNFDJBF@PM@       000000018004bce8     libucrt:nlsdata.obj
 0002:00005cf0       ??_C@_08BPBNCDIB@MM?1dd?1yy@ 000000018004bcf0     libucrt:nlsdata.obj
 0002:00005d00       ??_C@_0BE@CKGJFCPC@dddd?0?5MMMM?5dd?0?5yyyy@ 000000018004bd00     libucrt:nlsdata.obj
 0002:00005d18       ??_C@_08JCCMCCIL@HH?3mm?3ss@ 000000018004bd18     libucrt:nlsdata.obj
 0002:00005d28       ??_C@_17MBGCMIPB@?$AAS?$AAu?$AAn@ 000000018004bd28     libucrt:nlsdata.obj
 0002:00005d30       ??_C@_17KBOMKBF@?$AAM?$AAo?$AAn@ 000000018004bd30     libucrt:nlsdata.obj
 0002:00005d38       ??_C@_17BMKGEGOJ@?$AAT?$AAu?$AAe@ 000000018004bd38     libucrt:nlsdata.obj
 0002:00005d40       ??_C@_17CJEDCEPE@?$AAW?$AAe?$AAd@ 000000018004bd40     libucrt:nlsdata.obj
 0002:00005d48       ??_C@_17PDPHAADD@?$AAT?$AAh?$AAu@ 000000018004bd48     libucrt:nlsdata.obj
 0002:00005d50       ??_C@_17HFOLPPLP@?$AAF?$AAr?$AAi@ 000000018004bd50     libucrt:nlsdata.obj
 0002:00005d58       ??_C@_17GGIBDPIH@?$AAS?$AAa?$AAt@ 000000018004bd58     libucrt:nlsdata.obj
 0002:00005d60       ??_C@_1O@IHNHDHPB@?$AAS?$AAu?$AAn?$AAd?$AAa?$AAy@ 000000018004bd60     libucrt:nlsdata.obj
 0002:00005d70       ??_C@_1O@MMNBFLIA@?$AAM?$AAo?$AAn?$AAd?$AAa?$AAy@ 000000018004bd70     libucrt:nlsdata.obj
 0002:00005d80       ??_C@_1BA@ENFBFFEK@?$AAT?$AAu?$AAe?$AAs?$AAd?$AAa?$AAy@ 000000018004bd80     libucrt:nlsdata.obj
 0002:00005d90       ??_C@_1BE@EBOGMDOH@?$AAW?$AAe?$AAd?$AAn?$AAe?$AAs?$AAd?$AAa?$AAy@ 000000018004bd90     libucrt:nlsdata.obj
 0002:00005da8       ??_C@_1BC@HHMNLIHE@?$AAT?$AAh?$AAu?$AAr?$AAs?$AAd?$AAa?$AAy@ 000000018004bda8     libucrt:nlsdata.obj
 0002:00005dc0       ??_C@_1O@PDICJHAG@?$AAF?$AAr?$AAi?$AAd?$AAa?$AAy@ 000000018004bdc0     libucrt:nlsdata.obj
 0002:00005dd0       ??_C@_1BC@ENMNNPAJ@?$AAS?$AAa?$AAt?$AAu?$AAr?$AAd?$AAa?$AAy@ 000000018004bdd0     libucrt:nlsdata.obj
 0002:00005de8       ??_C@_17DKNBKCHM@?$AAJ?$AAa?$AAn@ 000000018004bde8     libucrt:nlsdata.obj
 0002:00005df0       ??_C@_17LMDJEKJN@?$AAF?$AAe?$AAb@ 000000018004bdf0     libucrt:nlsdata.obj
 0002:00005df8       ??_C@_17CKNLEDEC@?$AAM?$AAa?$AAr@ 000000018004bdf8     libucrt:nlsdata.obj
 0002:00005e00       ??_C@_17LFPOIHDD@?$AAA?$AAp?$AAr@ 000000018004be00     libucrt:nlsdata.obj
 0002:00005e08       ??_C@_17PNNKMEED@?$AAM?$AAa?$AAy@ 000000018004be08     libucrt:nlsdata.obj
 0002:00005e10       ??_C@_17KCJGOCPB@?$AAJ?$AAu?$AAn@ 000000018004be10     libucrt:nlsdata.obj
 0002:00005e18       ??_C@_17IJPCKHK@?$AAJ?$AAu?$AAl@ 000000018004be18     libucrt:nlsdata.obj
 0002:00005e20       ??_C@_17ICPELBCN@?$AAA?$AAu?$AAg@ 000000018004be20     libucrt:nlsdata.obj
 0002:00005e28       ??_C@_17HCHCOKMG@?$AAS?$AAe?$AAp@ 000000018004be28     libucrt:nlsdata.obj
 0002:00005e30       ??_C@_17FNLKOI@?$AAO?$AAc?$AAt@ 000000018004be30     libucrt:nlsdata.obj
 0002:00005e38       ??_C@_17BBDMLCIG@?$AAN?$AAo?$AAv@ 000000018004be38     libucrt:nlsdata.obj
 0002:00005e40       ??_C@_17EGKACKIF@?$AAD?$AAe?$AAc@ 000000018004be40     libucrt:nlsdata.obj
 0002:00005e48       ??_C@_1BA@EFMEIEBA@?$AAJ?$AAa?$AAn?$AAu?$AAa?$AAr?$AAy@ 000000018004be48     libucrt:nlsdata.obj
 0002:00005e58       ??_C@_1BC@JGDDFFAM@?$AAF?$AAe?$AAb?$AAr?$AAu?$AAa?$AAr?$AAy@ 000000018004be58     libucrt:nlsdata.obj
 0002:00005e70       ??_C@_1M@IKEENEDF@?$AAM?$AAa?$AAr?$AAc?$AAh@ 000000018004be70     libucrt:nlsdata.obj
 0002:00005e80       ??_C@_1M@GJNLMHFD@?$AAA?$AAp?$AAr?$AAi?$AAl@ 000000018004be80     libucrt:nlsdata.obj
 0002:00005e90       ??_C@_19EPFLPGAP@?$AAJ?$AAu?$AAn?$AAe@ 000000018004be90     libucrt:nlsdata.obj
 0002:00005ea0       ??_C@_19BIFMLPCD@?$AAJ?$AAu?$AAl?$AAy@ 000000018004bea0     libucrt:nlsdata.obj
 0002:00005eb0       ??_C@_1O@PAHLKOAC@?$AAA?$AAu?$AAg?$AAu?$AAs?$AAt@ 000000018004beb0     libucrt:nlsdata.obj
 0002:00005ec0       ??_C@_1BE@DKAAMBJL@?$AAS?$AAe?$AAp?$AAt?$AAe?$AAm?$AAb?$AAe?$AAr@ 000000018004bec0     libucrt:nlsdata.obj
 0002:00005ed8       ??_C@_1BA@EPANDLNG@?$AAO?$AAc?$AAt?$AAo?$AAb?$AAe?$AAr@ 000000018004bed8     libucrt:nlsdata.obj
 0002:00005ee8       ??_C@_1BC@BGLIFPF@?$AAN?$AAo?$AAv?$AAe?$AAm?$AAb?$AAe?$AAr@ 000000018004bee8     libucrt:nlsdata.obj
 0002:00005f00       ??_C@_1BC@FEMKIFH@?$AAD?$AAe?$AAc?$AAe?$AAm?$AAb?$AAe?$AAr@ 000000018004bf00     libucrt:nlsdata.obj
 0002:00005f14       ??_C@_15ODEHAHHF@?$AAA?$AAM@ 000000018004bf14     libucrt:nlsdata.obj
 0002:00005f1c       ??_C@_15CLMNNGEL@?$AAP?$AAM@ 000000018004bf1c     libucrt:nlsdata.obj
 0002:00005f28       ??_C@_1BC@IEBCMHCM@?$AAM?$AAM?$AA?1?$AAd?$AAd?$AA?1?$AAy?$AAy@ 000000018004bf28     libucrt:nlsdata.obj
 0002:00005f40       ??_C@_1CI@KNAKOEBC@?$AAd?$AAd?$AAd?$AAd?$AA?0?$AA?5?$AAM?$AAM?$AAM?$AAM?$AA?5?$AAd?$AAd?$AA?0?$AA?5@ 000000018004bf40     libucrt:nlsdata.obj
 0002:00005f68       ??_C@_1BC@GDGBMEMK@?$AAH?$AAH?$AA?3?$AAm?$AAm?$AA?3?$AAs?$AAs@ 000000018004bf68     libucrt:nlsdata.obj
 0002:00005f80       ??_C@_1M@BMHNFIME@?$AAe?$AAn?$AA?9?$AAU?$AAS@ 000000018004bf80     libucrt:nlsdata.obj
 0002:00006010       ??_C@_03OEIAHPBN@INF@      000000018004c010     libucrt:cvt.obj
 0002:00006014       ??_C@_03OJHLLCGB@inf@      000000018004c014     libucrt:cvt.obj
 0002:00006018       ??_C@_03LKNCIKJB@NAN@      000000018004c018     libucrt:cvt.obj
 0002:0000601c       ??_C@_03LHCJEHON@nan@      000000018004c01c     libucrt:cvt.obj
 0002:00006020       ??_C@_09OFJJIMPC@NAN?$CISNAN?$CJ@ 000000018004c020     libucrt:cvt.obj
 0002:00006030       ??_C@_09IPFBKMDL@nan?$CIsnan?$CJ@ 000000018004c030     libucrt:cvt.obj
 0002:00006040       ??_C@_08IKHNHAJ@NAN?$CIIND?$CJ@ 000000018004c040     libucrt:cvt.obj
 0002:00006050       ??_C@_08OFCDMILK@nan?$CIind?$CJ@ 000000018004c050     libucrt:cvt.obj
 0002:0000605c       ??_C@_05KLBDPFGC@e?$CL000@ 000000018004c05c     libucrt:cvt.obj
 0002:00006070       __newctype                 000000018004c070     libucrt:ctype.obj
 0002:00006370       __newclmap                 000000018004c370     libucrt:ctype.obj
 0002:000064f0       __newcumap                 000000018004c4f0     libucrt:ctype.obj
 0002:00006680       ??_C@_05HGHHAHAP@log10@    000000018004c680     libucrt:fpexcept.obj
 0002:000074d0       ??_C@_15EMKDOKLE@?$AAa?$AAr@ 000000018004d4d0     libucrt:lcidtoname_downlevel.obj
 0002:000074d8       ??_C@_15KNPADPLH@?$AAb?$AAg@ 000000018004d4d8     libucrt:lcidtoname_downlevel.obj
 0002:000074e0       ??_C@_15EDMHLDMO@?$AAc?$AAa@ 000000018004d4e0     libucrt:lcidtoname_downlevel.obj
 0002:000074e8       ??_C@_1O@BPEAJADD@?$AAz?$AAh?$AA?9?$AAC?$AAH?$AAS@ 000000018004d4e8     libucrt:lcidtoname_downlevel.obj
 0002:000074f8       ??_C@_15LJNHCMNK@?$AAc?$AAs@ 000000018004d4f8     libucrt:lcidtoname_downlevel.obj
 0002:00007500       ??_C@_15FOMCIDHG@?$AAd?$AAa@ 000000018004d500     libucrt:lcidtoname_downlevel.obj
 0002:00007508       ??_C@_15NBKABECB@?$AAd?$AAe@ 000000018004d508     libucrt:lcidtoname_downlevel.obj
 0002:00007510       ??_C@_15GHPEIIAO@?$AAe?$AAl@ 000000018004d510     libucrt:lcidtoname_downlevel.obj
 0002:00007518       ??_C@_15MNPNEAIF@?$AAe?$AAn@ 000000018004d518     libucrt:lcidtoname_downlevel.obj
 0002:00007520       ??_C@_15GPIOMPMH@?$AAe?$AAs@ 000000018004d520     libucrt:lcidtoname_downlevel.obj
 0002:00007528       ??_C@_15NGLOAKJC@?$AAf?$AAi@ 000000018004d528     libucrt:lcidtoname_downlevel.obj
 0002:00007530       ??_C@_15FBKGNKAM@?$AAf?$AAr@ 000000018004d530     libucrt:lcidtoname_downlevel.obj
 0002:00007538       ??_C@_15KGGCNEFK@?$AAh?$AAe@ 000000018004d538     libucrt:lcidtoname_downlevel.obj
 0002:00007540       ??_C@_15PGHLIDMF@?$AAh?$AAu@ 000000018004d540     libucrt:lcidtoname_downlevel.obj
 0002:00007548       ??_C@_15BIEMAPLM@?$AAi?$AAs@ 000000018004d548     libucrt:lcidtoname_downlevel.obj
 0002:00007550       ??_C@_15IFJLDHAF@?$AAi?$AAt@ 000000018004d550     libucrt:lcidtoname_downlevel.obj
 0002:00007558       ??_C@_15GEMIOCAG@?$AAj?$AAa@ 000000018004d558     libucrt:lcidtoname_downlevel.obj
 0002:00007560       ??_C@_15EPELEGJA@?$AAk?$AAo@ 000000018004d560     libucrt:lcidtoname_downlevel.obj
 0002:00007568       ??_C@_15NDDHIMN@?$AAn?$AAl@ 000000018004d568     libucrt:lcidtoname_downlevel.obj
 0002:00007570       ??_C@_15BPIGNHCD@?$AAn?$AAo@ 000000018004d570     libucrt:lcidtoname_downlevel.obj
 0002:00007578       ??_C@_15DEOPBLCG@?$AAp?$AAl@ 000000018004d578     libucrt:lcidtoname_downlevel.obj
 0002:00007580       ??_C@_15KBECGEFG@?$AAp?$AAt@ 000000018004d580     libucrt:lcidtoname_downlevel.obj
 0002:00007588       ??_C@_15GLJCBFMD@?$AAr?$AAo@ 000000018004d588     libucrt:lcidtoname_downlevel.obj
 0002:00007590       ??_C@_15FEDGKCDI@?$AAr?$AAu@ 000000018004d590     libucrt:lcidtoname_downlevel.obj
 0002:00007598       ??_C@_15GLKMLLHM@?$AAh?$AAr@ 000000018004d598     libucrt:lcidtoname_downlevel.obj
 0002:000075a0       ??_C@_15CPKMFBDB@?$AAs?$AAk@ 000000018004d5a0     libucrt:lcidtoname_downlevel.obj
 0002:000075a8       ??_C@_15BAAIOGMK@?$AAs?$AAq@ 000000018004d5a8     libucrt:lcidtoname_downlevel.obj
 0002:000075b0       ??_C@_15INNPNOHD@?$AAs?$AAv@ 000000018004d5b0     libucrt:lcidtoname_downlevel.obj
 0002:000075b8       ??_C@_15CABMMOGH@?$AAt?$AAh@ 000000018004d5b8     libucrt:lcidtoname_downlevel.obj
 0002:000075c0       ??_C@_15BPLIHJJM@?$AAt?$AAr@ 000000018004d5c0     libucrt:lcidtoname_downlevel.obj
 0002:000075c8       ??_C@_15NEOEKKDJ@?$AAu?$AAr@ 000000018004d5c8     libucrt:lcidtoname_downlevel.obj
 0002:000075d0       ??_C@_15NFICGAJK@?$AAi?$AAd@ 000000018004d5d0     libucrt:lcidtoname_downlevel.obj
 0002:000075d8       ??_C@_15PJPFLCCM@?$AAu?$AAk@ 000000018004d5d8     libucrt:lcidtoname_downlevel.obj
 0002:000075e0       ??_C@_15HPJPHDM@?$AAb?$AAe@ 000000018004d5e0     libucrt:lcidtoname_downlevel.obj
 0002:000075e8       ??_C@_15LCHLGJII@?$AAs?$AAl@ 000000018004d5e8     libucrt:lcidtoname_downlevel.obj
 0002:000075f0       ??_C@_15PCFJPHHO@?$AAe?$AAt@ 000000018004d5f0     libucrt:lcidtoname_downlevel.obj
 0002:000075f8       ??_C@_15HPFPGODN@?$AAl?$AAv@ 000000018004d5f8     libucrt:lcidtoname_downlevel.obj
 0002:00007600       ??_C@_15NFFGKGLG@?$AAl?$AAt@ 000000018004d600     libucrt:lcidtoname_downlevel.obj
 0002:00007608       ??_C@_15BDAKCCHN@?$AAf?$AAa@ 000000018004d608     libucrt:lcidtoname_downlevel.obj
 0002:00007610       ??_C@_15NFGIAIAJ@?$AAv?$AAi@ 000000018004d610     libucrt:lcidtoname_downlevel.obj
 0002:00007618       ??_C@_15LMKNDMHN@?$AAh?$AAy@ 000000018004d618     libucrt:lcidtoname_downlevel.obj
 0002:00007620       ??_C@_15IJBHMCFL@?$AAa?$AAz@ 000000018004d620     libucrt:lcidtoname_downlevel.obj
 0002:00007628       ??_C@_15EKOFJABL@?$AAe?$AAu@ 000000018004d628     libucrt:lcidtoname_downlevel.obj
 0002:00007630       ??_C@_15BGHADCNK@?$AAm?$AAk@ 000000018004d630     libucrt:lcidtoname_downlevel.obj
 0002:00007638       ??_C@_15JDNICKHM@?$AAa?$AAf@ 000000018004d638     libucrt:lcidtoname_downlevel.obj
 0002:00007640       ??_C@_15KPJEDBKD@?$AAk?$AAa@ 000000018004d640     libucrt:lcidtoname_downlevel.obj
 0002:00007648       ??_C@_15PDNFFFEO@?$AAf?$AAo@ 000000018004d648     libucrt:lcidtoname_downlevel.obj
 0002:00007650       ??_C@_15OMLEGLOC@?$AAh?$AAi@ 000000018004d650     libucrt:lcidtoname_downlevel.obj
 0002:00007658       ??_C@_15IDNNENKK@?$AAm?$AAs@ 000000018004d658     libucrt:lcidtoname_downlevel.obj
 0002:00007660       ??_C@_15MACJNBMH@?$AAk?$AAk@ 000000018004d660     libucrt:lcidtoname_downlevel.obj
 0002:00007668       ??_C@_15DKDJEOND@?$AAk?$AAy@ 000000018004d668     libucrt:lcidtoname_downlevel.obj
 0002:00007670       ??_C@_15DFGDLJBG@?$AAs?$AAw@ 000000018004d670     libucrt:lcidtoname_downlevel.obj
 0002:00007678       ??_C@_15BBFAICNG@?$AAu?$AAz@ 000000018004d678     libucrt:lcidtoname_downlevel.obj
 0002:00007680       ??_C@_15DKNDCGEA@?$AAt?$AAt@ 000000018004d680     libucrt:lcidtoname_downlevel.obj
 0002:00007688       ??_C@_15MGIFMDPL@?$AAp?$AAa@ 000000018004d688     libucrt:lcidtoname_downlevel.obj
 0002:00007690       ??_C@_15HCNDBBA@?$AAg?$AAu@ 000000018004d690     libucrt:lcidtoname_downlevel.obj
 0002:00007698       ??_C@_15FNBEIBON@?$AAt?$AAa@ 000000018004d698     libucrt:lcidtoname_downlevel.obj
 0002:000076a0       ??_C@_15NCHGBGLK@?$AAt?$AAe@ 000000018004d6a0     libucrt:lcidtoname_downlevel.obj
 0002:000076a8       ??_C@_15PHPHCBPF@?$AAk?$AAn@ 000000018004d6a8     libucrt:lcidtoname_downlevel.obj
 0002:000076b0       ??_C@_15DLGBCKMP@?$AAm?$AAr@ 000000018004d6b0     libucrt:lcidtoname_downlevel.obj
 0002:000076b8       ??_C@_15EABBLBFF@?$AAs?$AAa@ 000000018004d6b8     libucrt:lcidtoname_downlevel.obj
 0002:000076c0       ??_C@_15CBKOMCOI@?$AAm?$AAn@ 000000018004d6c0     libucrt:lcidtoname_downlevel.obj
 0002:000076c8       ??_C@_15CKDMCJAF@?$AAg?$AAl@ 000000018004d6c8     libucrt:lcidtoname_downlevel.obj
 0002:000076d0       ??_C@_17CNJFBPG@?$AAk?$AAo?$AAk@ 000000018004d6d0     libucrt:lcidtoname_downlevel.obj
 0002:000076d8       ??_C@_17FFBJICPL@?$AAs?$AAy?$AAr@ 000000018004d6d8     libucrt:lcidtoname_downlevel.obj
 0002:000076e0       ??_C@_17KPNDCPAF@?$AAd?$AAi?$AAv@ 000000018004d6e0     libucrt:lcidtoname_downlevel.obj
 0002:000076e8       ??_C@_11LOCGONAA@@         000000018004d6e8     libucrt:lcidtoname_downlevel.obj
 0002:000076f0       ??_C@_1M@OKAHONE@?$AAa?$AAr?$AA?9?$AAS?$AAA@ 000000018004d6f0     libucrt:lcidtoname_downlevel.obj
 0002:00007700       ??_C@_1M@FFFIGIGK@?$AAb?$AAg?$AA?9?$AAB?$AAG@ 000000018004d700     libucrt:lcidtoname_downlevel.obj
 0002:00007710       ??_C@_1M@BJNKEDC@?$AAc?$AAa?$AA?9?$AAE?$AAS@ 000000018004d710     libucrt:lcidtoname_downlevel.obj
 0002:00007720       ??_C@_1M@IJJHFJHA@?$AAc?$AAs?$AA?9?$AAC?$AAZ@ 000000018004d720     libucrt:lcidtoname_downlevel.obj
 0002:00007730       ??_C@_1M@CLPEOBGI@?$AAd?$AAa?$AA?9?$AAD?$AAK@ 000000018004d730     libucrt:lcidtoname_downlevel.obj
 0002:00007740       ??_C@_1M@MCMADGCB@?$AAd?$AAe?$AA?9?$AAD?$AAE@ 000000018004d740     libucrt:lcidtoname_downlevel.obj
 0002:00007750       ??_C@_1M@OOCKEMAM@?$AAe?$AAl?$AA?9?$AAG?$AAR@ 000000018004d750     libucrt:lcidtoname_downlevel.obj
 0002:00007760       ??_C@_1M@DDNJFGID@?$AAf?$AAi?$AA?9?$AAF?$AAI@ 000000018004d760     libucrt:lcidtoname_downlevel.obj
 0002:00007770       ??_C@_1M@GLIPPMAC@?$AAf?$AAr?$AA?9?$AAF?$AAR@ 000000018004d770     libucrt:lcidtoname_downlevel.obj
 0002:00007780       ??_C@_1M@GFMCHPE@?$AAh?$AAe?$AA?9?$AAI?$AAL@ 000000018004d780     libucrt:lcidtoname_downlevel.obj
 0002:00007790       ??_C@_1M@MHLPGNKM@?$AAh?$AAu?$AA?9?$AAH?$AAU@ 000000018004d790     libucrt:lcidtoname_downlevel.obj
 0002:000077a0       ??_C@_1M@LPDDNNPN@?$AAi?$AAs?$AA?9?$AAI?$AAS@ 000000018004d7a0     libucrt:lcidtoname_downlevel.obj
 0002:000077b0       ??_C@_1M@MADIPODN@?$AAi?$AAt?$AA?9?$AAI?$AAT@ 000000018004d7b0     libucrt:lcidtoname_downlevel.obj
 0002:000077c0       ??_C@_1M@IHBJJGG@?$AAn?$AAl?$AA?9?$AAN?$AAL@ 000000018004d7c0     libucrt:lcidtoname_downlevel.obj
 0002:000077d0       ??_C@_1M@EANAGDL@?$AAn?$AAb?$AA?9?$AAN?$AAO@ 000000018004d7d0     libucrt:lcidtoname_downlevel.obj
 0002:000077e0       ??_C@_1M@NEIEMEGP@?$AAp?$AAl?$AA?9?$AAP?$AAL@ 000000018004d7e0     libucrt:lcidtoname_downlevel.obj
 0002:000077f0       ??_C@_1M@BOCFIGEP@?$AAp?$AAt?$AA?9?$AAB?$AAR@ 000000018004d7f0     libucrt:lcidtoname_downlevel.obj
 0002:00007800       ??_C@_1M@IMPFOPBG@?$AAr?$AAo?$AA?9?$AAR?$AAO@ 000000018004d800     libucrt:lcidtoname_downlevel.obj
 0002:00007810       ??_C@_1M@IDNNEJMM@?$AAr?$AAu?$AA?9?$AAR?$AAU@ 000000018004d810     libucrt:lcidtoname_downlevel.obj
 0002:00007820       ??_C@_1M@LILEEOGM@?$AAh?$AAr?$AA?9?$AAH?$AAR@ 000000018004d820     libucrt:lcidtoname_downlevel.obj
 0002:00007830       ??_C@_1M@FKIFEHPB@?$AAs?$AAk?$AA?9?$AAS?$AAK@ 000000018004d830     libucrt:lcidtoname_downlevel.obj
 0002:00007840       ??_C@_1M@LJMAMNPJ@?$AAs?$AAq?$AA?9?$AAA?$AAL@ 000000018004d840     libucrt:lcidtoname_downlevel.obj
 0002:00007850       ??_C@_1M@GIAKDKJK@?$AAs?$AAv?$AA?9?$AAS?$AAE@ 000000018004d850     libucrt:lcidtoname_downlevel.obj
 0002:00007860       ??_C@_1M@MKJKIKCL@?$AAt?$AAh?$AA?9?$AAT?$AAH@ 000000018004d860     libucrt:lcidtoname_downlevel.obj
 0002:00007870       ??_C@_1M@MFLCCMPB@?$AAt?$AAr?$AA?9?$AAT?$AAR@ 000000018004d870     libucrt:lcidtoname_downlevel.obj
 0002:00007880       ??_C@_1M@OIJHDKJN@?$AAu?$AAr?$AA?9?$AAP?$AAK@ 000000018004d880     libucrt:lcidtoname_downlevel.obj
 0002:00007890       ??_C@_1M@LHIPCIEK@?$AAi?$AAd?$AA?9?$AAI?$AAD@ 000000018004d890     libucrt:lcidtoname_downlevel.obj
 0002:000078a0       ??_C@_1M@MFMOBGI@?$AAu?$AAk?$AA?9?$AAU?$AAA@ 000000018004d8a0     libucrt:lcidtoname_downlevel.obj
 0002:000078b0       ??_C@_1M@OBGLJIPL@?$AAb?$AAe?$AA?9?$AAB?$AAY@ 000000018004d8b0     libucrt:lcidtoname_downlevel.obj
 0002:000078c0       ??_C@_1M@BCFAJEAD@?$AAs?$AAl?$AA?9?$AAS?$AAI@ 000000018004d8c0     libucrt:lcidtoname_downlevel.obj
 0002:000078d0       ??_C@_1M@FKFFEDDN@?$AAe?$AAt?$AA?9?$AAE?$AAE@ 000000018004d8d0     libucrt:lcidtoname_downlevel.obj
 0002:000078e0       ??_C@_1M@KGKKAACI@?$AAl?$AAv?$AA?9?$AAL?$AAV@ 000000018004d8e0     libucrt:lcidtoname_downlevel.obj
 0002:000078f0       ??_C@_1M@IFGBIJO@?$AAl?$AAt?$AA?9?$AAL?$AAT@ 000000018004d8f0     libucrt:lcidtoname_downlevel.obj
 0002:00007900       ??_C@_1M@FGEAHEDM@?$AAf?$AAa?$AA?9?$AAI?$AAR@ 000000018004d900     libucrt:lcidtoname_downlevel.obj
 0002:00007910       ??_C@_1M@KBMAIBFN@?$AAv?$AAi?$AA?9?$AAV?$AAN@ 000000018004d910     libucrt:lcidtoname_downlevel.obj
 0002:00007920       ??_C@_1M@GPCBKDJK@?$AAh?$AAy?$AA?9?$AAA?$AAM@ 000000018004d920     libucrt:lcidtoname_downlevel.obj
 0002:00007930       ??_C@_1BG@BECMDDJB@?$AAa?$AAz?$AA?9?$AAA?$AAZ?$AA?9?$AAL?$AAa?$AAt?$AAn@ 000000018004d930     libucrt:lcidtoname_downlevel.obj
 0002:00007948       ??_C@_1M@MAOFCAEA@?$AAe?$AAu?$AA?9?$AAE?$AAS@ 000000018004d948     libucrt:lcidtoname_downlevel.obj
 0002:00007958       ??_C@_1M@IGHABKPI@?$AAm?$AAk?$AA?9?$AAM?$AAK@ 000000018004d958     libucrt:lcidtoname_downlevel.obj
 0002:00007968       ??_C@_1M@IAIGNEJG@?$AAt?$AAn?$AA?9?$AAZ?$AAA@ 000000018004d968     libucrt:lcidtoname_downlevel.obj
 0002:00007978       ??_C@_1M@IIJCOJFA@?$AAx?$AAh?$AA?9?$AAZ?$AAA@ 000000018004d978     libucrt:lcidtoname_downlevel.obj
 0002:00007988       ??_C@_1M@LGPJHNJH@?$AAz?$AAu?$AA?9?$AAZ?$AAA@ 000000018004d988     libucrt:lcidtoname_downlevel.obj
 0002:00007998       ??_C@_1M@HOKAOIO@?$AAa?$AAf?$AA?9?$AAZ?$AAA@ 000000018004d998     libucrt:lcidtoname_downlevel.obj
 0002:000079a8       ??_C@_1M@DPCLHLIE@?$AAk?$AAa?$AA?9?$AAG?$AAE@ 000000018004d9a8     libucrt:lcidtoname_downlevel.obj
 0002:000079b8       ??_C@_1M@BLKMHJBI@?$AAf?$AAo?$AA?9?$AAF?$AAO@ 000000018004d9b8     libucrt:lcidtoname_downlevel.obj
 0002:000079c8       ??_C@_1M@LGGJAPPB@?$AAh?$AAi?$AA?9?$AAI?$AAN@ 000000018004d9c8     libucrt:lcidtoname_downlevel.obj
 0002:000079d8       ??_C@_1M@FIKPIHFE@?$AAm?$AAt?$AA?9?$AAM?$AAT@ 000000018004d9d8     libucrt:lcidtoname_downlevel.obj
 0002:000079e8       ??_C@_1M@HEGGPBFA@?$AAs?$AAe?$AA?9?$AAN?$AAO@ 000000018004d9e8     libucrt:lcidtoname_downlevel.obj
 0002:000079f8       ??_C@_1M@EIBJEEPA@?$AAm?$AAs?$AA?9?$AAM?$AAY@ 000000018004d9f8     libucrt:lcidtoname_downlevel.obj
 0002:00007a08       ??_C@_1M@FHLBGMPP@?$AAk?$AAk?$AA?9?$AAK?$AAZ@ 000000018004da08     libucrt:lcidtoname_downlevel.obj
 0002:00007a18       ??_C@_1M@NGJJLCGI@?$AAk?$AAy?$AA?9?$AAK?$AAG@ 000000018004da18     libucrt:lcidtoname_downlevel.obj
 0002:00007a28       ??_C@_1M@GIENNBFC@?$AAs?$AAw?$AA?9?$AAK?$AAE@ 000000018004da28     libucrt:lcidtoname_downlevel.obj
 0002:00007a38       ??_C@_1BG@NDGMJIMJ@?$AAu?$AAz?$AA?9?$AAU?$AAZ?$AA?9?$AAL?$AAa?$AAt?$AAn@ 000000018004da38     libucrt:lcidtoname_downlevel.obj
 0002:00007a50       ??_C@_1M@IDCCIHBC@?$AAt?$AAt?$AA?9?$AAR?$AAU@ 000000018004da50     libucrt:lcidtoname_downlevel.obj
 0002:00007a60       ??_C@_1M@LOICPMOJ@?$AAb?$AAn?$AA?9?$AAI?$AAN@ 000000018004da60     libucrt:lcidtoname_downlevel.obj
 0002:00007a70       ??_C@_1M@KPKKNEAH@?$AAp?$AAa?$AA?9?$AAI?$AAN@ 000000018004da70     libucrt:lcidtoname_downlevel.obj
 0002:00007a80       ??_C@_1M@PJGPPBOG@?$AAg?$AAu?$AA?9?$AAI?$AAN@ 000000018004da80     libucrt:lcidtoname_downlevel.obj
 0002:00007a90       ??_C@_1M@KMKMOPHI@?$AAt?$AAa?$AA?9?$AAI?$AAN@ 000000018004da90     libucrt:lcidtoname_downlevel.obj
 0002:00007aa0       ??_C@_1M@KFEHEPAC@?$AAt?$AAe?$AA?9?$AAI?$AAN@ 000000018004daa0     libucrt:lcidtoname_downlevel.obj
 0002:00007ab0       ??_C@_1M@CDCLMGHI@?$AAk?$AAn?$AA?9?$AAI?$AAN@ 000000018004dab0     libucrt:lcidtoname_downlevel.obj
 0002:00007ac0       ??_C@_1M@MIODLDKF@?$AAm?$AAl?$AA?9?$AAI?$AAN@ 000000018004dac0     libucrt:lcidtoname_downlevel.obj
 0002:00007ad0       ??_C@_1M@PBIEACPO@?$AAm?$AAr?$AA?9?$AAI?$AAN@ 000000018004dad0     libucrt:lcidtoname_downlevel.obj
 0002:00007ae0       ??_C@_1M@NIDEAGPH@?$AAs?$AAa?$AA?9?$AAI?$AAN@ 000000018004dae0     libucrt:lcidtoname_downlevel.obj
 0002:00007af0       ??_C@_1M@FHIHCBIO@?$AAm?$AAn?$AA?9?$AAM?$AAN@ 000000018004daf0     libucrt:lcidtoname_downlevel.obj
 0002:00007b00       ??_C@_1M@JAIJPENP@?$AAc?$AAy?$AA?9?$AAG?$AAB@ 000000018004db00     libucrt:lcidtoname_downlevel.obj
 0002:00007b10       ??_C@_1M@PHGFBEPN@?$AAg?$AAl?$AA?9?$AAE?$AAS@ 000000018004db10     libucrt:lcidtoname_downlevel.obj
 0002:00007b20       ??_C@_1O@KPIPDNCP@?$AAk?$AAo?$AAk?$AA?9?$AAI?$AAN@ 000000018004db20     libucrt:lcidtoname_downlevel.obj
 0002:00007b30       ??_C@_1O@KNHJLDJA@?$AAs?$AAy?$AAr?$AA?9?$AAS?$AAY@ 000000018004db30     libucrt:lcidtoname_downlevel.obj
 0002:00007b40       ??_C@_1O@MKEKBLAH@?$AAd?$AAi?$AAv?$AA?9?$AAM?$AAV@ 000000018004db40     libucrt:lcidtoname_downlevel.obj
 0002:00007b50       ??_C@_1O@OHDCKDDF@?$AAq?$AAu?$AAz?$AA?9?$AAB?$AAO@ 000000018004db50     libucrt:lcidtoname_downlevel.obj
 0002:00007b60       ??_C@_1M@LEPJNLFD@?$AAn?$AAs?$AA?9?$AAZ?$AAA@ 000000018004db60     libucrt:lcidtoname_downlevel.obj
 0002:00007b70       ??_C@_1M@OMLEIIJB@?$AAm?$AAi?$AA?9?$AAN?$AAZ@ 000000018004db70     libucrt:lcidtoname_downlevel.obj
 0002:00007b80       ??_C@_1M@PMPEAILG@?$AAa?$AAr?$AA?9?$AAI?$AAQ@ 000000018004db80     libucrt:lcidtoname_downlevel.obj
 0002:00007b90       ??_C@_1M@CNKPNOEE@?$AAd?$AAe?$AA?9?$AAC?$AAH@ 000000018004db90     libucrt:lcidtoname_downlevel.obj
 0002:00007ba0       ??_C@_1M@LKMGMLKO@?$AAe?$AAn?$AA?9?$AAG?$AAB@ 000000018004dba0     libucrt:lcidtoname_downlevel.obj
 0002:00007bb0       ??_C@_1M@PGKJFFGL@?$AAe?$AAs?$AA?9?$AAM?$AAX@ 000000018004dbb0     libucrt:lcidtoname_downlevel.obj
 0002:00007bc0       ??_C@_1M@DNNANBDC@?$AAf?$AAr?$AA?9?$AAB?$AAE@ 000000018004dbc0     libucrt:lcidtoname_downlevel.obj
 0002:00007bd0       ??_C@_1M@HLGMDFHM@?$AAi?$AAt?$AA?9?$AAC?$AAH@ 000000018004dbd0     libucrt:lcidtoname_downlevel.obj
 0002:00007be0       ??_C@_1M@CLLBGJH@?$AAn?$AAl?$AA?9?$AAB?$AAE@ 000000018004dbe0     libucrt:lcidtoname_downlevel.obj
 0002:00007bf0       ??_C@_1M@BODBOGLF@?$AAn?$AAn?$AA?9?$AAN?$AAO@ 000000018004dbf0     libucrt:lcidtoname_downlevel.obj
 0002:00007c00       ??_C@_1M@HFFAHKAD@?$AAp?$AAt?$AA?9?$AAP?$AAT@ 000000018004dc00     libucrt:lcidtoname_downlevel.obj
 0002:00007c10       ??_C@_1BG@LNOAKHIE@?$AAs?$AAr?$AA?9?$AAS?$AAP?$AA?9?$AAL?$AAa?$AAt?$AAn@ 000000018004dc10     libucrt:lcidtoname_downlevel.obj
 0002:00007c28       ??_C@_1M@HBMHBGAK@?$AAs?$AAv?$AA?9?$AAF?$AAI@ 000000018004dc28     libucrt:lcidtoname_downlevel.obj
 0002:00007c38       ??_C@_1BG@DGCJGJBE@?$AAa?$AAz?$AA?9?$AAA?$AAZ?$AA?9?$AAC?$AAy?$AAr?$AAl@ 000000018004dc38     libucrt:lcidtoname_downlevel.obj
 0002:00007c50       ??_C@_1M@KEJDAAHB@?$AAs?$AAe?$AA?9?$AAS?$AAE@ 000000018004dc50     libucrt:lcidtoname_downlevel.obj
 0002:00007c60       ??_C@_1M@HEIBJJAD@?$AAm?$AAs?$AA?9?$AAB?$AAN@ 000000018004dc60     libucrt:lcidtoname_downlevel.obj
 0002:00007c70       ??_C@_1BG@PBGJMCEM@?$AAu?$AAz?$AA?9?$AAU?$AAZ?$AA?9?$AAC?$AAy?$AAr?$AAl@ 000000018004dc70     libucrt:lcidtoname_downlevel.obj
 0002:00007c88       ??_C@_1O@LAOBCMDF@?$AAq?$AAu?$AAz?$AA?9?$AAE?$AAC@ 000000018004dc88     libucrt:lcidtoname_downlevel.obj
 0002:00007c98       ??_C@_1M@POEEMAIO@?$AAa?$AAr?$AA?9?$AAE?$AAG@ 000000018004dc98     libucrt:lcidtoname_downlevel.obj
 0002:00007ca8       ??_C@_1M@EFAKDEDL@?$AAz?$AAh?$AA?9?$AAH?$AAK@ 000000018004dca8     libucrt:lcidtoname_downlevel.obj
 0002:00007cb8       ??_C@_1M@HKKIJHGI@?$AAd?$AAe?$AA?9?$AAA?$AAT@ 000000018004dcb8     libucrt:lcidtoname_downlevel.obj
 0002:00007cc8       ??_C@_1M@KBFBEHJF@?$AAe?$AAn?$AA?9?$AAA?$AAU@ 000000018004dcc8     libucrt:lcidtoname_downlevel.obj
 0002:00007cd8       ??_C@_1M@MNPLFAAH@?$AAe?$AAs?$AA?9?$AAE?$AAS@ 000000018004dcd8     libucrt:lcidtoname_downlevel.obj
 0002:00007ce8       ??_C@_1M@HJOOJFMA@?$AAf?$AAr?$AA?9?$AAC?$AAA@ 000000018004dce8     libucrt:lcidtoname_downlevel.obj
 0002:00007cf8       ??_C@_1BG@JPOFPNAB@?$AAs?$AAr?$AA?9?$AAS?$AAP?$AA?9?$AAC?$AAy?$AAr?$AAl@ 000000018004dcf8     libucrt:lcidtoname_downlevel.obj
 0002:00007d10       ??_C@_1M@LNFOCMOB@?$AAs?$AAe?$AA?9?$AAF?$AAI@ 000000018004dd10     libucrt:lcidtoname_downlevel.obj
 0002:00007d20       ??_C@_1O@MGJBOAMB@?$AAq?$AAu?$AAz?$AA?9?$AAP?$AAE@ 000000018004dd20     libucrt:lcidtoname_downlevel.obj
 0002:00007d30       ??_C@_1M@GJINLBOK@?$AAa?$AAr?$AA?9?$AAL?$AAY@ 000000018004dd30     libucrt:lcidtoname_downlevel.obj
 0002:00007d40       ??_C@_1M@GGMNHJNL@?$AAz?$AAh?$AA?9?$AAS?$AAG@ 000000018004dd40     libucrt:lcidtoname_downlevel.obj
 0002:00007d50       ??_C@_1M@HOIKODND@?$AAd?$AAe?$AA?9?$AAL?$AAU@ 000000018004dd50     libucrt:lcidtoname_downlevel.obj
 0002:00007d60       ??_C@_1M@DDOCCGFG@?$AAe?$AAn?$AA?9?$AAC?$AAA@ 000000018004dd60     libucrt:lcidtoname_downlevel.obj
 0002:00007d70       ??_C@_1M@BNOEMJLF@?$AAe?$AAs?$AA?9?$AAG?$AAT@ 000000018004dd70     libucrt:lcidtoname_downlevel.obj
 0002:00007d80       ??_C@_1M@EOGNKEK@?$AAf?$AAr?$AA?9?$AAC?$AAH@ 000000018004dd80     libucrt:lcidtoname_downlevel.obj
 0002:00007d90       ??_C@_1M@FLIDJFHL@?$AAh?$AAr?$AA?9?$AAB?$AAA@ 000000018004dd90     libucrt:lcidtoname_downlevel.obj
 0002:00007da0       ??_C@_1O@FMCELNAJ@?$AAs?$AAm?$AAj?$AA?9?$AAN?$AAO@ 000000018004dda0     libucrt:lcidtoname_downlevel.obj
 0002:00007db0       ??_C@_1M@JHGLJMGJ@?$AAa?$AAr?$AA?9?$AAD?$AAZ@ 000000018004ddb0     libucrt:lcidtoname_downlevel.obj
 0002:00007dc0       ??_C@_1M@JKKFDCNP@?$AAz?$AAh?$AA?9?$AAM?$AAO@ 000000018004ddc0     libucrt:lcidtoname_downlevel.obj
 0002:00007dd0       ??_C@_1M@GEEFALPE@?$AAd?$AAe?$AA?9?$AAL?$AAI@ 000000018004ddd0     libucrt:lcidtoname_downlevel.obj
 0002:00007de0       ??_C@_1M@IGEOFBG@?$AAe?$AAn?$AA?9?$AAN?$AAZ@ 000000018004dde0     libucrt:lcidtoname_downlevel.obj
 0002:00007df0       ??_C@_1M@KDBONEHP@?$AAe?$AAs?$AA?9?$AAC?$AAR@ 000000018004ddf0     libucrt:lcidtoname_downlevel.obj
 0002:00007e00       ??_C@_1M@FHMDOHNN@?$AAf?$AAr?$AA?9?$AAL?$AAU@ 000000018004de00     libucrt:lcidtoname_downlevel.obj
 0002:00007e10       ??_C@_1BG@NFKKMAFG@?$AAb?$AAs?$AA?9?$AAB?$AAA?$AA?9?$AAL?$AAa?$AAt?$AAn@ 000000018004de10     libucrt:lcidtoname_downlevel.obj
 0002:00007e28       ??_C@_1O@IMNBEMCI@?$AAs?$AAm?$AAj?$AA?9?$AAS?$AAE@ 000000018004de28     libucrt:lcidtoname_downlevel.obj
 0002:00007e38       ??_C@_1M@DHHMBNDP@?$AAa?$AAr?$AA?9?$AAM?$AAA@ 000000018004de38     libucrt:lcidtoname_downlevel.obj
 0002:00007e48       ??_C@_1M@BNBLJCGH@?$AAe?$AAn?$AA?9?$AAI?$AAE@ 000000018004de48     libucrt:lcidtoname_downlevel.obj
 0002:00007e58       ??_C@_1M@GEPAFMDL@?$AAe?$AAs?$AA?9?$AAP?$AAA@ 000000018004de58     libucrt:lcidtoname_downlevel.obj
 0002:00007e68       ??_C@_1M@OJONDMDL@?$AAf?$AAr?$AA?9?$AAM?$AAC@ 000000018004de68     libucrt:lcidtoname_downlevel.obj
 0002:00007e78       ??_C@_1BG@OBCNFJB@?$AAs?$AAr?$AA?9?$AAB?$AAA?$AA?9?$AAL?$AAa?$AAt?$AAn@ 000000018004de78     libucrt:lcidtoname_downlevel.obj
 0002:00007e90       ??_C@_1O@KEMEEGPO@?$AAs?$AAm?$AAa?$AA?9?$AAN?$AAO@ 000000018004de90     libucrt:lcidtoname_downlevel.obj
 0002:00007ea0       ??_C@_1M@ELMGFODK@?$AAa?$AAr?$AA?9?$AAT?$AAN@ 000000018004dea0     libucrt:lcidtoname_downlevel.obj
 0002:00007eb0       ??_C@_1M@BHDLHFAF@?$AAe?$AAn?$AA?9?$AAZ?$AAA@ 000000018004deb0     libucrt:lcidtoname_downlevel.obj
 0002:00007ec0       ??_C@_1M@BMGIGLIF@?$AAe?$AAs?$AA?9?$AAD?$AAO@ 000000018004dec0     libucrt:lcidtoname_downlevel.obj
 0002:00007ed0       ??_C@_1BG@CMBHIPBE@?$AAs?$AAr?$AA?9?$AAB?$AAA?$AA?9?$AAC?$AAy?$AAr?$AAl@ 000000018004ded0     libucrt:lcidtoname_downlevel.obj
 0002:00007ee8       ??_C@_1O@HEDBLHNP@?$AAs?$AAm?$AAa?$AA?9?$AAS?$AAE@ 000000018004dee8     libucrt:lcidtoname_downlevel.obj
 0002:00007ef8       ??_C@_1M@DAGCADIM@?$AAa?$AAr?$AA?9?$AAO?$AAM@ 000000018004def8     libucrt:lcidtoname_downlevel.obj
 0002:00007f08       ??_C@_1M@FODLMICG@?$AAe?$AAn?$AA?9?$AAJ?$AAM@ 000000018004df08     libucrt:lcidtoname_downlevel.obj
 0002:00007f18       ??_C@_1M@DNMLCIHB@?$AAe?$AAs?$AA?9?$AAV?$AAE@ 000000018004df18     libucrt:lcidtoname_downlevel.obj
 0002:00007f28       ??_C@_1O@EOKHMKJK@?$AAs?$AAm?$AAs?$AA?9?$AAF?$AAI@ 000000018004df28     libucrt:lcidtoname_downlevel.obj
 0002:00007f38       ??_C@_1M@CAFJMKOF@?$AAa?$AAr?$AA?9?$AAY?$AAE@ 000000018004df38     libucrt:lcidtoname_downlevel.obj
 0002:00007f48       ??_C@_1M@CBFHIJLI@?$AAe?$AAn?$AA?9?$AAC?$AAB@ 000000018004df48     libucrt:lcidtoname_downlevel.obj
 0002:00007f58       ??_C@_1M@BGNFLDN@?$AAe?$AAs?$AA?9?$AAC?$AAO@ 000000018004df58     libucrt:lcidtoname_downlevel.obj
 0002:00007f68       ??_C@_1O@JMPHMAMC@?$AAs?$AAm?$AAn?$AA?9?$AAF?$AAI@ 000000018004df68     libucrt:lcidtoname_downlevel.obj
 0002:00007f78       ??_C@_1M@JLANABKE@?$AAa?$AAr?$AA?9?$AAS?$AAY@ 000000018004df78     libucrt:lcidtoname_downlevel.obj
 0002:00007f88       ??_C@_1M@HPKGCFGN@?$AAe?$AAn?$AA?9?$AAB?$AAZ@ 000000018004df88     libucrt:lcidtoname_downlevel.obj
 0002:00007f98       ??_C@_1M@OLJCMLGM@?$AAe?$AAs?$AA?9?$AAP?$AAE@ 000000018004df98     libucrt:lcidtoname_downlevel.obj
 0002:00007fa8       ??_C@_1M@MKKGFKLE@?$AAa?$AAr?$AA?9?$AAJ?$AAO@ 000000018004dfa8     libucrt:lcidtoname_downlevel.obj
 0002:00007fb8       ??_C@_1M@EKPGLDNI@?$AAe?$AAn?$AA?9?$AAT?$AAT@ 000000018004dfb8     libucrt:lcidtoname_downlevel.obj
 0002:00007fc8       ??_C@_1M@OONGHFHE@?$AAe?$AAs?$AA?9?$AAA?$AAR@ 000000018004dfc8     libucrt:lcidtoname_downlevel.obj
 0002:00007fd8       ??_C@_1M@OOJFGBHE@?$AAa?$AAr?$AA?9?$AAL?$AAB@ 000000018004dfd8     libucrt:lcidtoname_downlevel.obj
 0002:00007fe8       ??_C@_1M@GCEJHNEG@?$AAe?$AAn?$AA?9?$AAZ?$AAW@ 000000018004dfe8     libucrt:lcidtoname_downlevel.obj
 0002:00007ff8       ??_C@_1M@JNOCAHJI@?$AAe?$AAs?$AA?9?$AAE?$AAC@ 000000018004dff8     libucrt:lcidtoname_downlevel.obj
 0002:00008008       ??_C@_1M@JEFHPGGB@?$AAa?$AAr?$AA?9?$AAK?$AAW@ 000000018004e008     libucrt:lcidtoname_downlevel.obj
 0002:00008018       ??_C@_1M@MLKIBJOJ@?$AAe?$AAn?$AA?9?$AAP?$AAH@ 000000018004e018     libucrt:lcidtoname_downlevel.obj
 0002:00008028       ??_C@_1M@BDNIPEND@?$AAe?$AAs?$AA?9?$AAC?$AAL@ 000000018004e028     libucrt:lcidtoname_downlevel.obj
 0002:00008038       ??_C@_1M@MPNMEKBD@?$AAa?$AAr?$AA?9?$AAA?$AAE@ 000000018004e038     libucrt:lcidtoname_downlevel.obj
 0002:00008048       ??_C@_1M@KBJALCPI@?$AAe?$AAs?$AA?9?$AAU?$AAY@ 000000018004e048     libucrt:lcidtoname_downlevel.obj
 0002:00008058       ??_C@_1M@LLCCOAGA@?$AAa?$AAr?$AA?9?$AAB?$AAH@ 000000018004e058     libucrt:lcidtoname_downlevel.obj
 0002:00008068       ??_C@_1M@PBFNCDEL@?$AAe?$AAs?$AA?9?$AAP?$AAY@ 000000018004e068     libucrt:lcidtoname_downlevel.obj
 0002:00008078       ??_C@_1M@EDGINPNP@?$AAa?$AAr?$AA?9?$AAQ?$AAA@ 000000018004e078     libucrt:lcidtoname_downlevel.obj
 0002:00008088       ??_C@_1M@MKDBIIJI@?$AAe?$AAs?$AA?9?$AAB?$AAO@ 000000018004e088     libucrt:lcidtoname_downlevel.obj
 0002:00008098       ??_C@_1M@CPKKEBLD@?$AAe?$AAs?$AA?9?$AAS?$AAV@ 000000018004e098     libucrt:lcidtoname_downlevel.obj
 0002:000080a8       ??_C@_1M@NDBGMMJL@?$AAe?$AAs?$AA?9?$AAH?$AAN@ 000000018004e0a8     libucrt:lcidtoname_downlevel.obj
 0002:000080b8       ??_C@_1M@JIJIBHDP@?$AAe?$AAs?$AA?9?$AAN?$AAI@ 000000018004e0b8     libucrt:lcidtoname_downlevel.obj
 0002:000080c8       ??_C@_1M@CGFMKEEK@?$AAe?$AAs?$AA?9?$AAP?$AAR@ 000000018004e0c8     libucrt:lcidtoname_downlevel.obj
 0002:000080d8       ??_C@_1O@ICJHKIIK@?$AAz?$AAh?$AA?9?$AAC?$AAH?$AAT@ 000000018004e0d8     libucrt:lcidtoname_downlevel.obj
 0002:000080e8       ??_C@_15CLNEJCE@?$AAs?$AAr@ 000000018004e0e8     libucrt:lcidtoname_downlevel.obj
 0002:00008f30       ??_C@_1M@KAHEKEIG@?$AAa?$AAf?$AA?9?$AAz?$AAa@ 000000018004ef30     libucrt:lcidtoname_downlevel.obj
 0002:00008f40       ??_C@_1M@GIECOABL@?$AAa?$AAr?$AA?9?$AAa?$AAe@ 000000018004ef40     libucrt:lcidtoname_downlevel.obj
 0002:00008f50       ??_C@_1M@BMLMEKGI@?$AAa?$AAr?$AA?9?$AAb?$AAh@ 000000018004ef50     libucrt:lcidtoname_downlevel.obj
 0002:00008f60       ??_C@_1M@DAPFDGGB@?$AAa?$AAr?$AA?9?$AAd?$AAz@ 000000018004ef60     libucrt:lcidtoname_downlevel.obj
 0002:00008f70       ??_C@_1M@FJNKGKIG@?$AAa?$AAr?$AA?9?$AAe?$AAg@ 000000018004ef70     libucrt:lcidtoname_downlevel.obj
 0002:00008f80       ??_C@_1M@FLGKKCLO@?$AAa?$AAr?$AA?9?$AAi?$AAq@ 000000018004ef80     libucrt:lcidtoname_downlevel.obj
 0002:00008f90       ??_C@_1M@GNDIPALM@?$AAa?$AAr?$AA?9?$AAj?$AAo@ 000000018004ef90     libucrt:lcidtoname_downlevel.obj
 0002:00008fa0       ??_C@_1M@DDMJFMGJ@?$AAa?$AAr?$AA?9?$AAk?$AAw@ 000000018004efa0     libucrt:lcidtoname_downlevel.obj
 0002:00008fb0       ??_C@_1M@EJALMLHM@?$AAa?$AAr?$AA?9?$AAl?$AAb@ 000000018004efb0     libucrt:lcidtoname_downlevel.obj
 0002:00008fc0       ??_C@_1M@MOBDBLOC@?$AAa?$AAr?$AA?9?$AAl?$AAy@ 000000018004efc0     libucrt:lcidtoname_downlevel.obj
 0002:00008fd0       ??_C@_1M@JAOCLHDH@?$AAa?$AAr?$AA?9?$AAm?$AAa@ 000000018004efd0     libucrt:lcidtoname_downlevel.obj
 0002:00008fe0       ??_C@_1M@JHPMKJIE@?$AAa?$AAr?$AA?9?$AAo?$AAm@ 000000018004efe0     libucrt:lcidtoname_downlevel.obj
 0002:00008ff0       ??_C@_1M@OEPGHFNH@?$AAa?$AAr?$AA?9?$AAq?$AAa@ 000000018004eff0     libucrt:lcidtoname_downlevel.obj
 0002:00009000       ??_C@_1M@KJDONENM@?$AAa?$AAr?$AA?9?$AAs?$AAa@ 000000018004f000     libucrt:lcidtoname_downlevel.obj
 0002:00009010       ??_C@_1M@DMJDKLKM@?$AAa?$AAr?$AA?9?$AAs?$AAy@ 000000018004f010     libucrt:lcidtoname_downlevel.obj
 0002:00009020       ??_C@_1M@OMFIPEDC@?$AAa?$AAr?$AA?9?$AAt?$AAn@ 000000018004f020     libucrt:lcidtoname_downlevel.obj
 0002:00009030       ??_C@_1M@IHMHGAON@?$AAa?$AAr?$AA?9?$AAy?$AAe@ 000000018004f030     libucrt:lcidtoname_downlevel.obj
 0002:00009040       ??_C@_1BG@KDCPGJGB@?$AAa?$AAz?$AA?9?$AAa?$AAz?$AA?9?$AAc?$AAy?$AAr?$AAl@ 000000018004f040     libucrt:lcidtoname_downlevel.obj
 0002:00009058       ??_C@_1BG@IBCKDDOE@?$AAa?$AAz?$AA?9?$AAa?$AAz?$AA?9?$AAl?$AAa?$AAt?$AAn@ 000000018004f058     libucrt:lcidtoname_downlevel.obj
 0002:00009070       ??_C@_1M@EGPFDCPD@?$AAb?$AAe?$AA?9?$AAb?$AAy@ 000000018004f070     libucrt:lcidtoname_downlevel.obj
 0002:00009080       ??_C@_1M@PCMGMCGC@?$AAb?$AAg?$AA?9?$AAb?$AAg@ 000000018004f080     libucrt:lcidtoname_downlevel.obj
 0002:00009090       ??_C@_1M@BJBMFGOB@?$AAb?$AAn?$AA?9?$AAi?$AAn@ 000000018004f090     libucrt:lcidtoname_downlevel.obj
 0002:000090a0       ??_C@_1BG@EAKMMACD@?$AAb?$AAs?$AA?9?$AAb?$AAa?$AA?9?$AAl?$AAa?$AAt?$AAn@ 000000018004f0a0     libucrt:lcidtoname_downlevel.obj
 0002:000090b8       ??_C@_1M@KGADAODK@?$AAc?$AAa?$AA?9?$AAe?$AAs@ 000000018004f0b8     libucrt:lcidtoname_downlevel.obj
 0002:000090c8       ??_C@_1M@COAJPDHI@?$AAc?$AAs?$AA?9?$AAc?$AAz@ 000000018004f0c8     libucrt:lcidtoname_downlevel.obj
 0002:000090d8       ??_C@_1M@DHBHFONH@?$AAc?$AAy?$AA?9?$AAg?$AAb@ 000000018004f0d8     libucrt:lcidtoname_downlevel.obj
 0002:000090e8       ??_C@_1M@IMGKELGA@?$AAd?$AAa?$AA?9?$AAd?$AAk@ 000000018004f0e8     libucrt:lcidtoname_downlevel.obj
 0002:000090f8       ??_C@_1M@NNDGDNGA@?$AAd?$AAe?$AA?9?$AAa?$AAt@ 000000018004f0f8     libucrt:lcidtoname_downlevel.obj
 0002:00009108       ??_C@_1M@IKDBHEEM@?$AAd?$AAe?$AA?9?$AAc?$AAh@ 000000018004f108     libucrt:lcidtoname_downlevel.obj
 0002:00009118       ??_C@_1M@GFFOJMCJ@?$AAd?$AAe?$AA?9?$AAd?$AAe@ 000000018004f118     libucrt:lcidtoname_downlevel.obj
 0002:00009128       ??_C@_1M@MDNLKBPM@?$AAd?$AAe?$AA?9?$AAl?$AAi@ 000000018004f128     libucrt:lcidtoname_downlevel.obj
 0002:00009138       ??_C@_1M@NJBEEJNL@?$AAd?$AAe?$AA?9?$AAl?$AAu@ 000000018004f138     libucrt:lcidtoname_downlevel.obj
 0002:00009148       ??_C@_1O@GNNELBAP@?$AAd?$AAi?$AAv?$AA?9?$AAm?$AAv@ 000000018004f148     libucrt:lcidtoname_downlevel.obj
 0002:00009158       ??_C@_1M@EJLEOGAE@?$AAe?$AAl?$AA?9?$AAg?$AAr@ 000000018004f158     libucrt:lcidtoname_downlevel.obj
 0002:00009168       ??_C@_1M@GMPONJN@?$AAe?$AAn?$AA?9?$AAa?$AAu@ 000000018004f168     libucrt:lcidtoname_downlevel.obj
 0002:00009178       ??_C@_1M@NIDIIPGF@?$AAe?$AAn?$AA?9?$AAb?$AAz@ 000000018004f178     libucrt:lcidtoname_downlevel.obj
 0002:00009188       ??_C@_1M@JEHMIMFO@?$AAe?$AAn?$AA?9?$AAc?$AAa@ 000000018004f188     libucrt:lcidtoname_downlevel.obj
 0002:00009198       ??_C@_1M@IGMJCDLA@?$AAe?$AAn?$AA?9?$AAc?$AAb@ 000000018004f198     libucrt:lcidtoname_downlevel.obj
 0002:000091a8       ??_C@_1M@BNFIGBKG@?$AAe?$AAn?$AA?9?$AAg?$AAb@ 000000018004f1a8     libucrt:lcidtoname_downlevel.obj
 0002:000091b8       ??_C@_1M@LKIFDIGP@?$AAe?$AAn?$AA?9?$AAi?$AAe@ 000000018004f1b8     libucrt:lcidtoname_downlevel.obj
 0002:000091c8       ??_C@_1M@PJKFGCCO@?$AAe?$AAn?$AA?9?$AAj?$AAm@ 000000018004f1c8     libucrt:lcidtoname_downlevel.obj
 0002:000091d8       ??_C@_1M@KPPKEPBO@?$AAe?$AAn?$AA?9?$AAn?$AAz@ 000000018004f1d8     libucrt:lcidtoname_downlevel.obj
 0002:000091e8       ??_C@_1M@GMDGLDOB@?$AAe?$AAn?$AA?9?$AAp?$AAh@ 000000018004f1e8     libucrt:lcidtoname_downlevel.obj
 0002:000091f8       ??_C@_1M@ONGIBJNA@?$AAe?$AAn?$AA?9?$AAt?$AAt@ 000000018004f1f8     libucrt:lcidtoname_downlevel.obj
 0002:00009208       ??_C@_1M@LLODPCMM@?$AAe?$AAn?$AA?9?$AAu?$AAs@ 000000018004f208     libucrt:lcidtoname_downlevel.obj
 0002:00009218       ??_C@_1M@LAKFNPAN@?$AAe?$AAn?$AA?9?$AAz?$AAa@ 000000018004f218     libucrt:lcidtoname_downlevel.obj
 0002:00009228       ??_C@_1M@MFNHNHEO@?$AAe?$AAn?$AA?9?$AAz?$AAw@ 000000018004f228     libucrt:lcidtoname_downlevel.obj
 0002:00009238       ??_C@_1M@EJEINPHM@?$AAe?$AAs?$AA?9?$AAa?$AAr@ 000000018004f238     libucrt:lcidtoname_downlevel.obj
 0002:00009248       ??_C@_1M@GNKPCCJA@?$AAe?$AAs?$AA?9?$AAb?$AAo@ 000000018004f248     libucrt:lcidtoname_downlevel.obj
 0002:00009258       ??_C@_1M@LEEGFONL@?$AAe?$AAs?$AA?9?$AAc?$AAl@ 000000018004f258     libucrt:lcidtoname_downlevel.obj
 0002:00009268       ??_C@_1M@KGPDPBDF@?$AAe?$AAs?$AA?9?$AAc?$AAo@ 000000018004f268     libucrt:lcidtoname_downlevel.obj
 0002:00009278       ??_C@_1M@EIAHOHH@?$AAe?$AAs?$AA?9?$AAc?$AAr@ 000000018004f278     libucrt:lcidtoname_downlevel.obj
 0002:00009288       ??_C@_1M@LLPGMBIN@?$AAe?$AAs?$AA?9?$AAd?$AAo@ 000000018004f288     libucrt:lcidtoname_downlevel.obj
 0002:00009298       ??_C@_1M@DKHMKNJA@?$AAe?$AAs?$AA?9?$AAe?$AAc@ 000000018004f298     libucrt:lcidtoname_downlevel.obj
 0002:000092a8       ??_C@_1M@GKGFPKAP@?$AAe?$AAs?$AA?9?$AAe?$AAs@ 000000018004f2a8     libucrt:lcidtoname_downlevel.obj
 0002:000092b8       ??_C@_1M@LKHKGDLN@?$AAe?$AAs?$AA?9?$AAg?$AAt@ 000000018004f2b8     libucrt:lcidtoname_downlevel.obj
 0002:000092c8       ??_C@_1M@HEIIGGJD@?$AAe?$AAs?$AA?9?$AAh?$AAn@ 000000018004f2c8     libucrt:lcidtoname_downlevel.obj
 0002:000092d8       ??_C@_1M@FBDHPPGD@?$AAe?$AAs?$AA?9?$AAm?$AAx@ 000000018004f2d8     libucrt:lcidtoname_downlevel.obj
 0002:000092e8       ??_C@_1M@DPAGLNDH@?$AAe?$AAs?$AA?9?$AAn?$AAi@ 000000018004f2e8     libucrt:lcidtoname_downlevel.obj
 0002:000092f8       ??_C@_1M@MDGOPGDD@?$AAe?$AAs?$AA?9?$AAp?$AAa@ 000000018004f2f8     libucrt:lcidtoname_downlevel.obj
 0002:00009308       ??_C@_1M@EMAMGBGE@?$AAe?$AAs?$AA?9?$AAp?$AAe@ 000000018004f308     libucrt:lcidtoname_downlevel.obj
 0002:00009318       ??_C@_1M@IBMCAOEC@?$AAe?$AAs?$AA?9?$AAp?$AAr@ 000000018004f318     libucrt:lcidtoname_downlevel.obj
 0002:00009328       ??_C@_1M@FGMDIJED@?$AAe?$AAs?$AA?9?$AAp?$AAy@ 000000018004f328     libucrt:lcidtoname_downlevel.obj
 0002:00009338       ??_C@_1M@IIDEOLLL@?$AAe?$AAs?$AA?9?$AAs?$AAv@ 000000018004f338     libucrt:lcidtoname_downlevel.obj
 0002:00009348       ??_C@_1M@GAOBIPA@?$AAe?$AAs?$AA?9?$AAu?$AAy@ 000000018004f348     libucrt:lcidtoname_downlevel.obj
 0002:00009358       ??_C@_1M@JKFFICHJ@?$AAe?$AAs?$AA?9?$AAv?$AAe@ 000000018004f358     libucrt:lcidtoname_downlevel.obj
 0002:00009368       ??_C@_1M@PNMLOJDF@?$AAe?$AAt?$AA?9?$AAe?$AAe@ 000000018004f368     libucrt:lcidtoname_downlevel.obj
 0002:00009378       ??_C@_1M@GHHLIKEI@?$AAe?$AAu?$AA?9?$AAe?$AAs@ 000000018004f378     libucrt:lcidtoname_downlevel.obj
 0002:00009388       ??_C@_1M@PBNONODE@?$AAf?$AAa?$AA?9?$AAi?$AAr@ 000000018004f388     libucrt:lcidtoname_downlevel.obj
 0002:00009398       ??_C@_1M@JEEHPMIL@?$AAf?$AAi?$AA?9?$AAf?$AAi@ 000000018004f398     libucrt:lcidtoname_downlevel.obj
 0002:000093a8       ??_C@_1M@LMDCNDBA@?$AAf?$AAo?$AA?9?$AAf?$AAo@ 000000018004f3a8     libucrt:lcidtoname_downlevel.obj
 0002:000093b8       ??_C@_1M@JKEOHLDK@?$AAf?$AAr?$AA?9?$AAb?$AAe@ 000000018004f3b8     libucrt:lcidtoname_downlevel.obj
 0002:000093c8       ??_C@_1M@NOHADPMI@?$AAf?$AAr?$AA?9?$AAc?$AAa@ 000000018004f3c8     libucrt:lcidtoname_downlevel.obj
 0002:000093d8       ??_C@_1M@KDHIHAEC@?$AAf?$AAr?$AA?9?$AAc?$AAh@ 000000018004f3d8     libucrt:lcidtoname_downlevel.obj
 0002:000093e8       ??_C@_1M@MMBBFGAK@?$AAf?$AAr?$AA?9?$AAf?$AAr@ 000000018004f3e8     libucrt:lcidtoname_downlevel.obj
 0002:000093f8       ??_C@_1M@PAFNENNF@?$AAf?$AAr?$AA?9?$AAl?$AAu@ 000000018004f3f8     libucrt:lcidtoname_downlevel.obj
 0002:00009408       ??_C@_1M@EOHDJGDD@?$AAf?$AAr?$AA?9?$AAm?$AAc@ 000000018004f408     libucrt:lcidtoname_downlevel.obj
 0002:00009418       ??_C@_1M@FAPLLOPF@?$AAg?$AAl?$AA?9?$AAe?$AAs@ 000000018004f418     libucrt:lcidtoname_downlevel.obj
 0002:00009428       ??_C@_1M@FOPBFLOO@?$AAg?$AAu?$AA?9?$AAi?$AAn@ 000000018004f428     libucrt:lcidtoname_downlevel.obj
 0002:00009438       ??_C@_1M@KBMCINPM@?$AAh?$AAe?$AA?9?$AAi?$AAl@ 000000018004f438     libucrt:lcidtoname_downlevel.obj
 0002:00009448       ??_C@_1M@BBPHKFPJ@?$AAh?$AAi?$AA?9?$AAi?$AAn@ 000000018004f448     libucrt:lcidtoname_downlevel.obj
 0002:00009458       ??_C@_1M@PMBNDPHD@?$AAh?$AAr?$AA?9?$AAb?$AAa@ 000000018004f458     libucrt:lcidtoname_downlevel.obj
 0002:00009468       ??_C@_1M@BPCKOEGE@?$AAh?$AAr?$AA?9?$AAh?$AAr@ 000000018004f468     libucrt:lcidtoname_downlevel.obj
 0002:00009478       ??_C@_1M@GACBMHKE@?$AAh?$AAu?$AA?9?$AAh?$AAu@ 000000018004f478     libucrt:lcidtoname_downlevel.obj
 0002:00009488       ??_C@_1M@MILPAJJC@?$AAh?$AAy?$AA?9?$AAa?$AAm@ 000000018004f488     libucrt:lcidtoname_downlevel.obj
 0002:00009498       ??_C@_1M@BABBICEC@?$AAi?$AAd?$AA?9?$AAi?$AAd@ 000000018004f498     libucrt:lcidtoname_downlevel.obj
 0002:000094a8       ??_C@_1M@BIKNHHPF@?$AAi?$AAs?$AA?9?$AAi?$AAs@ 000000018004f4a8     libucrt:lcidtoname_downlevel.obj
 0002:000094b8       ??_C@_1M@NMPCJPHE@?$AAi?$AAt?$AA?9?$AAc?$AAh@ 000000018004f4b8     libucrt:lcidtoname_downlevel.obj
 0002:000094c8       ??_C@_1M@GHKGFEDF@?$AAi?$AAt?$AA?9?$AAi?$AAt@ 000000018004f4c8     libucrt:lcidtoname_downlevel.obj
 0002:000094d8       ??_C@_1M@NIEJCJJA@?$AAj?$AAa?$AA?9?$AAj?$AAp@ 000000018004f4d8     libucrt:lcidtoname_downlevel.obj
 0002:000094e8       ??_C@_1M@JILFNBIM@?$AAk?$AAa?$AA?9?$AAg?$AAe@ 000000018004f4e8     libucrt:lcidtoname_downlevel.obj
 0002:000094f8       ??_C@_1M@PACPMGPH@?$AAk?$AAk?$AA?9?$AAk?$AAz@ 000000018004f4f8     libucrt:lcidtoname_downlevel.obj
 0002:00009508       ??_C@_1M@IELFGMHA@?$AAk?$AAn?$AA?9?$AAi?$AAn@ 000000018004f508     libucrt:lcidtoname_downlevel.obj
 0002:00009518       ??_C@_1O@IBBJHCH@?$AAk?$AAo?$AAk?$AA?9?$AAi?$AAn@ 000000018004f518     libucrt:lcidtoname_downlevel.obj
 0002:00009528       ??_C@_1M@DMHAEOGC@?$AAk?$AAo?$AA?9?$AAk?$AAr@ 000000018004f528     libucrt:lcidtoname_downlevel.obj
 0002:00009538       ??_C@_1M@HBAHBIGA@?$AAk?$AAy?$AA?9?$AAk?$AAg@ 000000018004f538     libucrt:lcidtoname_downlevel.obj
 0002:00009548       ??_C@_1M@KPMILCJG@?$AAl?$AAt?$AA?9?$AAl?$AAt@ 000000018004f548     libucrt:lcidtoname_downlevel.obj
 0002:00009558       ??_C@_1M@BDEKKCA@?$AAl?$AAv?$AA?9?$AAl?$AAv@ 000000018004f558     libucrt:lcidtoname_downlevel.obj
 0002:00009568       ??_C@_1M@ELCKCCJJ@?$AAm?$AAi?$AA?9?$AAn?$AAz@ 000000018004f568     libucrt:lcidtoname_downlevel.obj
 0002:00009578       ??_C@_1M@CBOOLAPA@?$AAm?$AAk?$AA?9?$AAm?$AAk@ 000000018004f578     libucrt:lcidtoname_downlevel.obj
 0002:00009588       ??_C@_1M@GPHNBJKN@?$AAm?$AAl?$AA?9?$AAi?$AAn@ 000000018004f588     libucrt:lcidtoname_downlevel.obj
 0002:00009598       ??_C@_1M@PABJILIG@?$AAm?$AAn?$AA?9?$AAm?$AAn@ 000000018004f598     libucrt:lcidtoname_downlevel.obj
 0002:000095a8       ??_C@_1M@FGBKKIPG@?$AAm?$AAr?$AA?9?$AAi?$AAn@ 000000018004f5a8     libucrt:lcidtoname_downlevel.obj
 0002:000095b8       ??_C@_1M@NDBPDDAL@?$AAm?$AAs?$AA?9?$AAb?$AAn@ 000000018004f5b8     libucrt:lcidtoname_downlevel.obj
 0002:000095c8       ??_C@_1M@OPIHOOPI@?$AAm?$AAs?$AA?9?$AAm?$AAy@ 000000018004f5c8     libucrt:lcidtoname_downlevel.obj
 0002:000095d8       ??_C@_1M@PPDBCNFM@?$AAm?$AAt?$AA?9?$AAm?$AAt@ 000000018004f5d8     libucrt:lcidtoname_downlevel.obj
 0002:000095e8       ??_C@_1M@KDJDKMDD@?$AAn?$AAb?$AA?9?$AAn?$AAo@ 000000018004f5e8     libucrt:lcidtoname_downlevel.obj
 0002:000095f8       ??_C@_1M@KFCFLMJP@?$AAn?$AAl?$AA?9?$AAb?$AAe@ 000000018004f5f8     libucrt:lcidtoname_downlevel.obj
 0002:00009608       ??_C@_1M@KPOPDDGO@?$AAn?$AAl?$AA?9?$AAn?$AAl@ 000000018004f608     libucrt:lcidtoname_downlevel.obj
 0002:00009618       ??_C@_1M@LJKPEMLN@?$AAn?$AAn?$AA?9?$AAn?$AAo@ 000000018004f618     libucrt:lcidtoname_downlevel.obj
 0002:00009628       ??_C@_1M@BDGHHBFL@?$AAn?$AAs?$AA?9?$AAz?$AAa@ 000000018004f628     libucrt:lcidtoname_downlevel.obj
 0002:00009638       ??_C@_1M@IDEHOAP@?$AAp?$AAa?$AA?9?$AAi?$AAn@ 000000018004f638     libucrt:lcidtoname_downlevel.obj
 0002:00009648       ??_C@_1M@HDBKGOGH@?$AAp?$AAl?$AA?9?$AAp?$AAl@ 000000018004f648     libucrt:lcidtoname_downlevel.obj
 0002:00009658       ??_C@_1M@LJLLCMEH@?$AAp?$AAt?$AA?9?$AAb?$AAr@ 000000018004f658     libucrt:lcidtoname_downlevel.obj
 0002:00009668       ??_C@_1M@NCMONAAL@?$AAp?$AAt?$AA?9?$AAp?$AAt@ 000000018004f668     libucrt:lcidtoname_downlevel.obj
 0002:00009678       ??_C@_1O@EAKMAJDN@?$AAq?$AAu?$AAz?$AA?9?$AAb?$AAo@ 000000018004f678     libucrt:lcidtoname_downlevel.obj
 0002:00009688       ??_C@_1O@BHHPIGDN@?$AAq?$AAu?$AAz?$AA?9?$AAe?$AAc@ 000000018004f688     libucrt:lcidtoname_downlevel.obj
 0002:00009698       ??_C@_1O@GBAPEKMJ@?$AAq?$AAu?$AAz?$AA?9?$AAp?$AAe@ 000000018004f698     libucrt:lcidtoname_downlevel.obj
 0002:000096a8       ??_C@_1M@CLGLEFBO@?$AAr?$AAo?$AA?9?$AAr?$AAo@ 000000018004f6a8     libucrt:lcidtoname_downlevel.obj
 0002:000096b8       ??_C@_1M@CEEDODME@?$AAr?$AAu?$AA?9?$AAr?$AAu@ 000000018004f6b8     libucrt:lcidtoname_downlevel.obj
 0002:000096c8       ??_C@_1M@HPKKKMPP@?$AAs?$AAa?$AA?9?$AAi?$AAn@ 000000018004f6c8     libucrt:lcidtoname_downlevel.obj
 0002:000096d8       ??_C@_1M@BKMAIGOJ@?$AAs?$AAe?$AA?9?$AAf?$AAi@ 000000018004f6d8     libucrt:lcidtoname_downlevel.obj
 0002:000096e8       ??_C@_1M@NDPIFLFI@?$AAs?$AAe?$AA?9?$AAn?$AAo@ 000000018004f6e8     libucrt:lcidtoname_downlevel.obj
 0002:000096f8       ??_C@_1M@DANKKHJ@?$AAs?$AAe?$AA?9?$AAs?$AAe@ 000000018004f6f8     libucrt:lcidtoname_downlevel.obj
 0002:00009708       ??_C@_1M@PNBLONPJ@?$AAs?$AAk?$AA?9?$AAs?$AAk@ 000000018004f708     libucrt:lcidtoname_downlevel.obj
 0002:00009718       ??_C@_1M@LFMODOAL@?$AAs?$AAl?$AA?9?$AAs?$AAi@ 000000018004f718     libucrt:lcidtoname_downlevel.obj
 0002:00009728       ??_C@_1O@DFKOMPG@?$AAs?$AAm?$AAa?$AA?9?$AAn?$AAo@ 000000018004f728     libucrt:lcidtoname_downlevel.obj
 0002:00009738       ??_C@_1O@NDKPBNNH@?$AAs?$AAm?$AAa?$AA?9?$AAs?$AAe@ 000000018004f738     libucrt:lcidtoname_downlevel.obj
 0002:00009748       ??_C@_1O@PLLKBHAB@?$AAs?$AAm?$AAj?$AA?9?$AAn?$AAo@ 000000018004f748     libucrt:lcidtoname_downlevel.obj
 0002:00009758       ??_C@_1O@CLEPOGCA@?$AAs?$AAm?$AAj?$AA?9?$AAs?$AAe@ 000000018004f758     libucrt:lcidtoname_downlevel.obj
 0002:00009768       ??_C@_1O@DLGJGKMK@?$AAs?$AAm?$AAn?$AA?9?$AAf?$AAi@ 000000018004f768     libucrt:lcidtoname_downlevel.obj
 0002:00009778       ??_C@_1O@OJDJGAJC@?$AAs?$AAm?$AAs?$AA?9?$AAf?$AAi@ 000000018004f778     libucrt:lcidtoname_downlevel.obj
 0002:00009788       ??_C@_1M@BOFOGHPB@?$AAs?$AAq?$AA?9?$AAa?$AAl@ 000000018004f788     libucrt:lcidtoname_downlevel.obj
 0002:00009798       ??_C@_1BG@LJBBIPGB@?$AAs?$AAr?$AA?9?$AAb?$AAa?$AA?9?$AAc?$AAy?$AAr?$AAl@ 000000018004f798     libucrt:lcidtoname_downlevel.obj
 0002:000097b0       ??_C@_1BG@JLBENFOE@?$AAs?$AAr?$AA?9?$AAb?$AAa?$AA?9?$AAl?$AAa?$AAt?$AAn@ 000000018004f7b0     libucrt:lcidtoname_downlevel.obj
 0002:000097c8       ??_C@_1BG@KODPNHE@?$AAs?$AAr?$AA?9?$AAs?$AAp?$AA?9?$AAc?$AAy?$AAr?$AAl@ 000000018004f7c8     libucrt:lcidtoname_downlevel.obj
 0002:000097e0       ??_C@_1BG@CIOGKHPB@?$AAs?$AAr?$AA?9?$AAs?$AAp?$AA?9?$AAl?$AAa?$AAt?$AAn@ 000000018004f7e0     libucrt:lcidtoname_downlevel.obj
 0002:000097f8       ??_C@_1M@NGFJLMAC@?$AAs?$AAv?$AA?9?$AAf?$AAi@ 000000018004f7f8     libucrt:lcidtoname_downlevel.obj
 0002:00009808       ??_C@_1M@MPJEJAJC@?$AAs?$AAv?$AA?9?$AAs?$AAe@ 000000018004f808     libucrt:lcidtoname_downlevel.obj
 0002:00009818       ??_C@_1M@MPNDHLFK@?$AAs?$AAw?$AA?9?$AAk?$AAe@ 000000018004f818     libucrt:lcidtoname_downlevel.obj
 0002:00009828       ??_C@_1O@KOHBJJI@?$AAs?$AAy?$AAr?$AA?9?$AAs?$AAy@ 000000018004f828     libucrt:lcidtoname_downlevel.obj
 0002:00009838       ??_C@_1M@LDCEFHA@?$AAt?$AAa?$AA?9?$AAi?$AAn@ 000000018004f838     libucrt:lcidtoname_downlevel.obj
 0002:00009848       ??_C@_1M@CNJOFAK@?$AAt?$AAe?$AA?9?$AAi?$AAn@ 000000018004f848     libucrt:lcidtoname_downlevel.obj
 0002:00009858       ??_C@_1M@GNAECACD@?$AAt?$AAh?$AA?9?$AAt?$AAh@ 000000018004f858     libucrt:lcidtoname_downlevel.obj
 0002:00009868       ??_C@_1M@CHBIHOJO@?$AAt?$AAn?$AA?9?$AAz?$AAa@ 000000018004f868     libucrt:lcidtoname_downlevel.obj
 0002:00009878       ??_C@_1M@GCCMIGPJ@?$AAt?$AAr?$AA?9?$AAt?$AAr@ 000000018004f878     libucrt:lcidtoname_downlevel.obj
 0002:00009888       ??_C@_1M@CELMCNBK@?$AAt?$AAt?$AA?9?$AAr?$AAu@ 000000018004f888     libucrt:lcidtoname_downlevel.obj
 0002:00009898       ??_C@_1M@KLMCELGA@?$AAu?$AAk?$AA?9?$AAu?$AAa@ 000000018004f898     libucrt:lcidtoname_downlevel.obj
 0002:000098a8       ??_C@_1M@EPAJJAJF@?$AAu?$AAr?$AA?9?$AAp?$AAk@ 000000018004f8a8     libucrt:lcidtoname_downlevel.obj
 0002:000098b8       ??_C@_1BG@GEGPMCDJ@?$AAu?$AAz?$AA?9?$AAu?$AAz?$AA?9?$AAc?$AAy?$AAr?$AAl@ 000000018004f8b8     libucrt:lcidtoname_downlevel.obj
 0002:000098d0       ??_C@_1BG@EGGKJILM@?$AAu?$AAz?$AA?9?$AAu?$AAz?$AA?9?$AAl?$AAa?$AAt?$AAn@ 000000018004f8d0     libucrt:lcidtoname_downlevel.obj
 0002:000098e8       ??_C@_1M@GFOCLFF@?$AAv?$AAi?$AA?9?$AAv?$AAn@ 000000018004f8e8     libucrt:lcidtoname_downlevel.obj
 0002:000098f8       ??_C@_1M@CPAMEDFI@?$AAx?$AAh?$AA?9?$AAz?$AAa@ 000000018004f8f8     libucrt:lcidtoname_downlevel.obj
 0002:00009908       ??_C@_1O@EBKIFIGN@?$AAz?$AAh?$AA?9?$AAc?$AAh?$AAs@ 000000018004f908     libucrt:lcidtoname_downlevel.obj
 0002:00009918       ??_C@_1O@NMHPGANE@?$AAz?$AAh?$AA?9?$AAc?$AAh?$AAt@ 000000018004f918     libucrt:lcidtoname_downlevel.obj
 0002:00009928       ??_C@_1M@LPINJOMC@?$AAz?$AAh?$AA?9?$AAc?$AAn@ 000000018004f928     libucrt:lcidtoname_downlevel.obj
 0002:00009938       ??_C@_1M@OCJEJODD@?$AAz?$AAh?$AA?9?$AAh?$AAk@ 000000018004f938     libucrt:lcidtoname_downlevel.obj
 0002:00009948       ??_C@_1M@DNDLJINH@?$AAz?$AAh?$AA?9?$AAm?$AAo@ 000000018004f948     libucrt:lcidtoname_downlevel.obj
 0002:00009958       ??_C@_1M@MBFDNDND@?$AAz?$AAh?$AA?9?$AAs?$AAg@ 000000018004f958     libucrt:lcidtoname_downlevel.obj
 0002:00009968       ??_C@_1M@IMEPLEPE@?$AAz?$AAh?$AA?9?$AAt?$AAw@ 000000018004f968     libucrt:lcidtoname_downlevel.obj
 0002:00009978       ??_C@_1M@BBGHNHJP@?$AAz?$AAu?$AA?9?$AAz?$AAa@ 000000018004f978     libucrt:lcidtoname_downlevel.obj
 0002:00009990       ?large_power_data@?1??multiply_by_power_of_ten@__crt_strtox@@YA_NAEAUbig_integer@2@I@Z@4QBIB 000000018004f990     libucrt:cfout.obj
 0002:0000a2a0       ?large_power_indices@?1??multiply_by_power_of_ten@__crt_strtox@@YA_NAEAUbig_integer@2@I@Z@4QBUunpack_index@?1??12@YA_N0I@Z@B 00000001800502a0     libucrt:cfout.obj
 0002:0000a338       ?small_powers_of_ten@?1??multiply_by_power_of_ten@__crt_strtox@@YA_NAEAUbig_integer@2@I@Z@4QBIB 0000000180050338     libucrt:cfout.obj
 0002:0000a35c       ??_C@_01GBGANLPD@0@        000000018005035c     libucrt:cfout.obj
 0002:0000a360       ??_C@_05DNEBIAHO@1?$CDINF@ 0000000180050360     libucrt:cfout.obj
 0002:0000a368       ??_C@_06IMKFLFPG@1?$CDQNAN@ 0000000180050368     libucrt:cfout.obj
 0002:0000a370       ??_C@_06PGGFOGJG@1?$CDSNAN@ 0000000180050370     libucrt:cfout.obj
 0002:0000a378       ??_C@_05PHHOCPM@1?$CDIND@  0000000180050378     libucrt:cfout.obj
 0002:0000a5d0       ??_C@_1BA@BALFACEM@?$AAC?$AAO?$AAN?$AAO?$AAU?$AAT?$AA$@ 00000001800505d0     libucrt:initcon.obj
 0002:0000a5e0       __log10_256_lead           00000001800505e0     libucrt:log10_256_lead_tail_table.obj
 0002:0000adf0       __log10_256_tail           0000000180050df0     libucrt:log10_256_lead_tail_table.obj
 0002:0000b600       __log_F_inv_qword          0000000180051600     libucrt:log_f_inv_qword_table.obj
 0002:0000be80       ??_R4type_info@@6B@        0000000180051e80     LIBCMT:std_type_info_static.obj
 0002:0000bea8       ??_R3type_info@@8          0000000180051ea8     LIBCMT:std_type_info_static.obj
 0002:0000bec0       ??_R2type_info@@8          0000000180051ec0     LIBCMT:std_type_info_static.obj
 0002:0000bed0       ??_R1A@?0A@EA@type_info@@8 0000000180051ed0     LIBCMT:std_type_info_static.obj
 0002:0000bef8       ??_R3DNameNode@@8          0000000180051ef8     libvcruntime:undname.obj
 0002:0000bf10       ??_R2DNameNode@@8          0000000180051f10     libvcruntime:undname.obj
 0002:0000bf20       ??_R1A@?0A@EA@DNameNode@@8 0000000180051f20     libvcruntime:undname.obj
 0002:0000bf48       ??_R4charNode@@6B@         0000000180051f48     libvcruntime:undname.obj
 0002:0000bf70       ??_R3charNode@@8           0000000180051f70     libvcruntime:undname.obj
 0002:0000bf88       ??_R2charNode@@8           0000000180051f88     libvcruntime:undname.obj
 0002:0000bfa0       ??_R1A@?0A@EA@charNode@@8  0000000180051fa0     libvcruntime:undname.obj
 0002:0000bfc8       ??_R4pcharNode@@6B@        0000000180051fc8     libvcruntime:undname.obj
 0002:0000bff0       ??_R3pcharNode@@8          0000000180051ff0     libvcruntime:undname.obj
 0002:0000c008       ??_R2pcharNode@@8          0000000180052008     libvcruntime:undname.obj
 0002:0000c020       ??_R1A@?0A@EA@pcharNode@@8 0000000180052020     libvcruntime:undname.obj
 0002:0000c048       ??_R4pDNameNode@@6B@       0000000180052048     libvcruntime:undname.obj
 0002:0000c070       ??_R3pDNameNode@@8         0000000180052070     libvcruntime:undname.obj
 0002:0000c088       ??_R2pDNameNode@@8         0000000180052088     libvcruntime:undname.obj
 0002:0000c0a0       ??_R1A@?0A@EA@pDNameNode@@8 00000001800520a0     libvcruntime:undname.obj
 0002:0000c0c8       ??_R4DNameStatusNode@@6B@  00000001800520c8     libvcruntime:undname.obj
 0002:0000c0f0       ??_R3DNameStatusNode@@8    00000001800520f0     libvcruntime:undname.obj
 0002:0000c108       ??_R2DNameStatusNode@@8    0000000180052108     libvcruntime:undname.obj
 0002:0000c120       ??_R1A@?0A@EA@DNameStatusNode@@8 0000000180052120     libvcruntime:undname.obj
 0002:0000c148       ??_R4pairNode@@6B@         0000000180052148     libvcruntime:undname.obj
 0002:0000c170       ??_R3pairNode@@8           0000000180052170     libvcruntime:undname.obj
 0002:0000c188       ??_R2pairNode@@8           0000000180052188     libvcruntime:undname.obj
 0002:0000c1a0       ??_R1A@?0A@EA@pairNode@@8  00000001800521a0     libvcruntime:undname.obj
 0002:0000c1c8       ??_R4exception@std@@6B@    00000001800521c8     libvcruntime:frame.obj
 0002:0000c1f0       ??_R3exception@std@@8      00000001800521f0     libvcruntime:frame.obj
 0002:0000c208       ??_R2exception@std@@8      0000000180052208     libvcruntime:frame.obj
 0002:0000c218       ??_R1A@?0A@EA@exception@std@@8 0000000180052218     libvcruntime:frame.obj
 0002:0000c240       ??_R4bad_exception@std@@6B@ 0000000180052240     libvcruntime:frame.obj
 0002:0000c268       ??_R3bad_exception@std@@8  0000000180052268     libvcruntime:frame.obj
 0002:0000c280       ??_R2bad_exception@std@@8  0000000180052280     libvcruntime:frame.obj
 0002:0000c298       ??_R1A@?0A@EA@bad_exception@std@@8 0000000180052298     libvcruntime:frame.obj
 0002:0000c2bc       __volatile_metadata        00000001800522bc     <linker-defined>
 0002:0000c828       __rtc_iaa                  0000000180052828     LIBCMT:initsect.obj
 0002:0000c830       __rtc_izz                  0000000180052830     LIBCMT:initsect.obj
 0002:0000c838       __rtc_taa                  0000000180052838     LIBCMT:initsect.obj
 0002:0000c840       __rtc_tzz                  0000000180052840     LIBCMT:initsect.obj
 0002:000107e0       _TI2?AVbad_exception@std@@ 00000001800567e0     libvcruntime:frame.obj
 0002:00010800       _CTA2?AVbad_exception@std@@ 0000000180056800     libvcruntime:frame.obj
 0002:00010818       _CT??_R0?AVbad_exception@std@@@8??0bad_exception@std@@QEAA@AEBV01@@Z24 0000000180056818     libvcruntime:frame.obj
 0002:00010840       _CT??_R0?AVexception@std@@@8??0exception@std@@QEAA@AEBV01@@Z24 0000000180056840     libvcruntime:frame.obj
 0002:00010864       __DELAY_IMPORT_DESCRIPTOR_physxcommon_64_dll 0000000180056864     PhysXCommon_64:PhysXCommon_64.dll
 0002:00010884       __DELAY_IMPORT_DESCRIPTOR_physxfoundation_64_dll 0000000180056884     PhysXFoundation_64:PhysXFoundation_64.dll
 0002:000108a4       __NULL_DELAY_IMPORT_DESCRIPTOR 00000001800568a4     PhysXCommon_64:PhysXCommon_64.dll
 0002:000109e8       \177PhysXCommon_64_NULL_THUNK_DATA_DLN 00000001800569e8     PhysXCommon_64:PhysXCommon_64.dll
 0002:00010a48       \177PhysXFoundation_64_NULL_THUNK_DATA_DLN 0000000180056a48     PhysXFoundation_64:PhysXFoundation_64.dll
 0002:000113a8       \177PhysXCommon_64_NULL_THUNK_DATA_DLB 00000001800573a8     PhysXCommon_64:PhysXCommon_64.dll
 0002:000114d0       \177PhysXFoundation_64_NULL_THUNK_DATA_DLB 00000001800574d0     PhysXFoundation_64:PhysXFoundation_64.dll
 0002:00013230       __IMPORT_DESCRIPTOR_KERNEL32 0000000180059230     kernel32:KERNEL32.dll
 0002:00013244       __NULL_IMPORT_DESCRIPTOR   0000000180059244     kernel32:KERNEL32.dll
 0003:00000008       __pfnDliNotifyHook2        000000018005a008     WindowsCookingDelayLoadHook.obj
 0003:00000010       _fltused                   000000018005a010     LIBCMT:fltused.obj
 0003:00000020       __isa_available            000000018005a020     LIBCMT:cpu_disp.obj
 0003:00000024       __isa_enabled              000000018005a024     LIBCMT:cpu_disp.obj
 0003:00000028       __memset_fast_string_threshold 000000018005a028     LIBCMT:cpu_disp.obj
 0003:00000030       __memset_nt_threshold      000000018005a030     LIBCMT:cpu_disp.obj
 0003:00000040       __scrt_native_dllmain_reason 000000018005a040     LIBCMT:utility.obj
 0003:00000048       __security_cookie_complement 000000018005a048     LIBCMT:gs_cookie.obj
 0003:00000050       __security_cookie          000000018005a050     LIBCMT:gs_cookie.obj
 0003:00000080       __abort_behavior           000000018005a080     libucrt:abort.obj
 0003:000000b0       __acrt_initial_multibyte_data 000000018005a0b0     libucrt:mbctype.obj
 0003:000005f0       __acrt_initial_locale_data 000000018005a5f0     libucrt:nlsdata.obj
 0003:00000748       __acrt_initial_locale_pointers 000000018005a748     libucrt:nlsdata.obj
 0003:00000758       __acrt_wide_c_locale_string 000000018005a758     libucrt:nlsdata.obj
 0003:00000760       _iob                       000000018005a760     libucrt:_file.obj
 0003:00000870       __globallocalestatus       000000018005a870     libucrt:glstatus.obj
 0003:00000880       __acrt_lconv_c             000000018005a880     libucrt:localeconv.obj
 0003:00000918       __acrt_lconv_static_decimal 000000018005a918     libucrt:localeconv.obj
 0003:0000091c       __acrt_lconv_static_W_decimal 000000018005a91c     libucrt:localeconv.obj
 0003:00000920       _lookuptrailbytes          000000018005a920     libucrt:read.obj
 0003:00000a30       ??_R0?AVAdjEdge@@@8        000000018005aa30     Adjacencies.obj
 0003:00000a50       ??_R0I@8                   000000018005aa50     Adjacencies.obj
 0003:00000a68       ??_R0?AVAdjTriangle@physx@@@8 000000018005aa68     Adjacencies.obj
 0003:00000a90       ??_R0?AVCooking@physx@@@8  000000018005aa90     Cooking.obj
 0003:00000ab8       ??_R0?AVHeightField@Gu@physx@@@8 000000018005aab8     Cooking.obj
 0003:00000ae8       ??_R0?AVQuickHullConvexHullLib@physx@@@8 000000018005aae8     Cooking.obj
 0003:00000b20       ??_R0?AUPxDebugLine@physx@@@8 000000018005ab20     Cooking.obj
 0003:00000b48       ??_R0M@8                   000000018005ab48     CookingUtils.obj
 0003:00000b60       ??_R0?AUEdgeData@Gu@physx@@@8 000000018005ab60     EdgeList.obj
 0003:00000b88       ??_R0?AUEdgeTriangleData@Gu@physx@@@8 000000018005ab88     EdgeList.obj
 0003:00000bb8       ??_R0?AVQuantizerImpl@@@8  000000018005abb8     Quantizer.obj
 0003:00000be0       ??_R0?AVPxVec3@physx@@@8   000000018005abe0     Quantizer.obj
 0003:00000c08       ??_R0?AUSlab@NodeAllocator@Gu@physx@@@8 000000018005ac08     BVHStructureBuilder.obj
 0003:00000c40       ??_R0?AUInterval@physx@@@8 000000018005ac40     RTreeCooking.obj
 0003:00000c68       ??_R0?AURTreeNodeQ@Gu@physx@@@8 000000018005ac68     RTreeCooking.obj
 0003:00000c98       ??_R0?AURTreeNodeNQ@physx@@@8 000000018005ac98     RTreeCooking.obj
 0003:00000cc0       ??_R0?AUPxBounds3V@physx@@@8 000000018005acc0     RTreeCooking.obj
 0003:00000ce8       ??_R0?AVEdgeListBuilder@Gu@physx@@@8 000000018005ace8     TriangleMeshBuilder.obj
 0003:00000d18       ??_R0?AVBV32Tree@Gu@physx@@@8 000000018005ad18     TriangleMeshBuilder.obj
 0003:00000d40       ??_R0E@8                   000000018005ad40     TriangleMeshBuilder.obj
 0003:00000d58       ??_R0G@8                   000000018005ad58     TriangleMeshBuilder.obj
 0003:00000d70       ??_R0?AUEdgeTriLookup@physx@@@8 000000018005ad70     TriangleMeshBuilder.obj
 0003:00000da0       ??_R0?AUEdgeDescData@Gu@physx@@@8 000000018005ada0     ConvexHullBuilder.obj
 0003:00000dd0       ??_R0_N@8                  000000018005add0     ConvexHullBuilder.obj
 0003:00000de8       ??_R0?AVConvexHull@physx@@@8 000000018005ade8     ConvexHullUtils.obj
 0003:00000e10       ??_R0?AVPxPlane@physx@@@8  000000018005ae10     ConvexHullUtils.obj
 0003:00000e38       ??_R0?AVHalfEdge@ConvexHull@physx@@@8 000000018005ae38     ConvexHullUtils.obj
 0003:00000e68       ??_R0?AVBigConvexData@physx@@@8 000000018005ae68     ConvexMeshBuilder.obj
 0003:00000e98       ??_R0?AUHullTriangleData@physx@@@8 000000018005ae98     ConvexPolygonsBuilder.obj
 0003:00000ec8       ??_R0?AVPair@@@8           000000018005aec8     ConvexPolygonsBuilder.obj
 0003:00000ee8       ??_R0?AVQuickHull@local@@@8 000000018005aee8     QuickHullConvexHullLib.obj
 0003:00000f10       ??_R0?AUExpandPoint@local@@@8 000000018005af10     QuickHullConvexHullLib.obj
 0003:00000f38       ??_R0PEAUQuickHullVertex@local@@@8 000000018005af38     QuickHullConvexHullLib.obj
 0003:00000f68       ??_R0PEAUQuickHullFace@local@@@8 000000018005af68     QuickHullConvexHullLib.obj
 0003:00000f98       ??_R0PEAUQuickHullHalfEdge@local@@@8 000000018005af98     QuickHullConvexHullLib.obj
 0003:00000fc8       ??_R0?AVbad_exception@std@@@8 000000018005afc8     libvcruntime:frame.obj
 0003:00000ff0       ??_R0?AVexception@std@@@8  000000018005aff0     libvcruntime:frame.obj
 0003:00001018       ??_R0?AVtype_info@@@8      000000018005b018     LIBCMT:std_type_info_static.obj
 0003:00001038       ??_R0?AVDNameNode@@@8      000000018005b038     libvcruntime:undname.obj
 0003:00001058       ??_R0?AVcharNode@@@8       000000018005b058     libvcruntime:undname.obj
 0003:00001078       ??_R0?AVpcharNode@@@8      000000018005b078     libvcruntime:undname.obj
 0003:00001098       ??_R0?AVpDNameNode@@@8     000000018005b098     libvcruntime:undname.obj
 0003:000010c0       ??_R0?AVDNameStatusNode@@@8 000000018005b0c0     libvcruntime:undname.obj
 0003:000010e8       ??_R0?AVpairNode@@@8       000000018005b0e8     libvcruntime:undname.obj
 0003:00001108       __imp_??0RadixSortBuffered@Cm@physx@@QEAA@XZ 000000018005b108     PhysXCommon_64:PhysXCommon_64.dll
 0003:00001110       __imp_??1BigConvexData@physx@@QEAA@XZ 000000018005b110     PhysXCommon_64:PhysXCommon_64.dll
 0003:00001118       __imp_??1RadixSortBuffered@Cm@physx@@UEAA@XZ 000000018005b118     PhysXCommon_64:PhysXCommon_64.dll
 0003:00001120       __imp_?Sort@RadixSortBuffered@Cm@physx@@QEAAAEAV123@PEBIIW4RadixHint@23@@Z 000000018005b120     PhysXCommon_64:PhysXCommon_64.dll
 0003:00001128       __imp_??0HeightField@Gu@physx@@QEAA@PEAVGuMeshFactory@2@@Z 000000018005b128     PhysXCommon_64:PhysXCommon_64.dll
 0003:00001130       __imp_?loadFromDesc@HeightField@Gu@physx@@QEAA_NAEBVPxHeightFieldDesc@3@@Z 000000018005b130     PhysXCommon_64:PhysXCommon_64.dll
 0003:00001138       __imp_?computeCellCoordinates@HeightField@Gu@physx@@QEBAIMMAEAM0@Z 000000018005b138     PhysXCommon_64:PhysXCommon_64.dll
 0003:00001140       __imp_?releaseMemory@HeightField@Gu@physx@@QEAAXXZ 000000018005b140     PhysXCommon_64:PhysXCommon_64.dll
 0003:00001148       __imp_??1HeightField@Gu@physx@@UEAA@XZ 000000018005b148     PhysXCommon_64:PhysXCommon_64.dll
 0003:00001150       __imp_??0NodeAllocator@Gu@physx@@QEAA@XZ 000000018005b150     PhysXCommon_64:PhysXCommon_64.dll
 0003:00001158       __imp_??1NodeAllocator@Gu@physx@@QEAA@XZ 000000018005b158     PhysXCommon_64:PhysXCommon_64.dll
 0003:00001160       __imp_?release@NodeAllocator@Gu@physx@@QEAAXXZ 000000018005b160     PhysXCommon_64:PhysXCommon_64.dll
 0003:00001168       __imp_?buildAABBTree@Gu@physx@@YA_NAEAVAABBTreeBuildParams@12@AEAVNodeAllocator@12@AEAUBuildStats@12@AEAPEAI@Z 000000018005b168     PhysXCommon_64:PhysXCommon_64.dll
 0003:00001170       __imp_?writeDword@physx@@YAXI_NAEAVPxOutputStream@1@@Z 000000018005b170     PhysXCommon_64:PhysXCommon_64.dll
 0003:00001178       __imp_?writeFloatBuffer@physx@@YAXPEBMI_NAEAVPxOutputStream@1@@Z 000000018005b178     PhysXCommon_64:PhysXCommon_64.dll
 0003:00001180       __imp_?writeHeader@physx@@YA_NCCCCI_NAEAVPxOutputStream@1@@Z 000000018005b180     PhysXCommon_64:PhysXCommon_64.dll
 0003:00001188       __imp_?writeWord@physx@@YAXG_NAEAVPxOutputStream@1@@Z 000000018005b188     PhysXCommon_64:PhysXCommon_64.dll
 0003:00001190       __imp_?writeFloat@physx@@YAXM_NAEAVPxOutputStream@1@@Z 000000018005b190     PhysXCommon_64:PhysXCommon_64.dll
 0003:00001198       __imp_?computeBoundsAroundVertices@Gu@physx@@YAXAEAVPxBounds3@2@IPEIBVPxVec3@2@@Z 000000018005b198     PhysXCommon_64:PhysXCommon_64.dll
 0003:000011a0       __imp_??0SourceMesh@Gu@physx@@QEAA@XZ 000000018005b1a0     PhysXCommon_64:PhysXCommon_64.dll
 0003:000011a8       __imp_??1SourceMesh@Gu@physx@@QEAA@XZ 000000018005b1a8     PhysXCommon_64:PhysXCommon_64.dll
 0003:000011b0       __imp_??0BV4Tree@Gu@physx@@QEAA@XZ 000000018005b1b0     PhysXCommon_64:PhysXCommon_64.dll
 0003:000011b8       __imp_??1BV4Tree@Gu@physx@@QEAA@XZ 000000018005b1b8     PhysXCommon_64:PhysXCommon_64.dll
 0003:000011c0       __imp_??0BV32Tree@Gu@physx@@QEAA@XZ 000000018005b1c0     PhysXCommon_64:PhysXCommon_64.dll
 0003:000011c8       __imp_??1BV32Tree@Gu@physx@@QEAA@XZ 000000018005b1c8     PhysXCommon_64:PhysXCommon_64.dll
 0003:000011d0       __imp_?writeWordBuffer@physx@@YAXPEBGI_NAEAVPxOutputStream@1@@Z 000000018005b1d0     PhysXCommon_64:PhysXCommon_64.dll
 0003:000011d8       __imp_?computeMaxIndex@physx@@YAIPEBII@Z 000000018005b1d8     PhysXCommon_64:PhysXCommon_64.dll
 0003:000011e0       __imp_?storeIndices@physx@@YAXIIPEBIAEAVPxOutputStream@1@_N@Z 000000018005b1e0     PhysXCommon_64:PhysXCommon_64.dll
 0003:000011e8       __imp_?BuildBV4Ex@Gu@physx@@YA_NAEAVBV4Tree@12@AEAVSourceMesh@12@MI@Z 000000018005b1e8     PhysXCommon_64:PhysXCommon_64.dll
 0003:000011f0       __imp_?BuildBV32Ex@Gu@physx@@YA_NAEAVBV32Tree@12@AEAVSourceMesh@12@MI@Z 000000018005b1f0     PhysXCommon_64:PhysXCommon_64.dll
 0003:000011f8       __imp_?computeMaxIndex@physx@@YAGPEBGI@Z 000000018005b1f8     PhysXCommon_64:PhysXCommon_64.dll
 0003:00001200       __imp_?WriteHeader@Gu@physx@@YA_NEEEEI_NAEAVPxOutputStream@2@@Z 000000018005b200     PhysXCommon_64:PhysXCommon_64.dll
 0003:00001208       __imp_?StoreIndices@Gu@physx@@YAXGIPEBGAEAVPxOutputStream@2@_N@Z 000000018005b208     PhysXCommon_64:PhysXCommon_64.dll
 0003:00001210       __imp_?CreateOffsets@BigConvexData@physx@@IEAAXXZ 000000018005b210     PhysXCommon_64:PhysXCommon_64.dll
 0003:00001218       __imp_?computeOBBPoints@Gu@physx@@YAXPEIAVPxVec3@2@AEBV32@1111@Z 000000018005b218     PhysXCommon_64:PhysXCommon_64.dll
 0003:00001220       __imp_??0BigConvexData@physx@@QEAA@XZ 000000018005b220     PhysXCommon_64:PhysXCommon_64.dll
 0003:00001228       \177PhysXCommon_64_NULL_THUNK_DATA_DLA 000000018005b228     PhysXCommon_64:PhysXCommon_64.dll
 0003:00001230       __imp_PxGetFoundation      000000018005b230     PhysXFoundation_64:PhysXFoundation_64.dll
 0003:00001238       __imp_?deallocate@TempAllocator@shdfnd@physx@@QEAAXPEAX@Z 000000018005b238     PhysXFoundation_64:PhysXFoundation_64.dll
 0003:00001240       __imp_?getAllocator@shdfnd@physx@@YAAEAVPxAllocatorCallback@2@XZ 000000018005b240     PhysXFoundation_64:PhysXFoundation_64.dll
 0003:00001248       __imp_?getInstance@Foundation@shdfnd@physx@@SAAEAV123@XZ 000000018005b248     PhysXFoundation_64:PhysXFoundation_64.dll
 0003:00001250       __imp_?error@Foundation@shdfnd@physx@@QEAAXW4Enum@PxErrorCode@3@PEBDH1ZZ 000000018005b250     PhysXFoundation_64:PhysXFoundation_64.dll
 0003:00001258       __imp_?incRefCount@Foundation@shdfnd@physx@@SAXXZ 000000018005b258     PhysXFoundation_64:PhysXFoundation_64.dll
 0003:00001260       __imp_?decRefCount@Foundation@shdfnd@physx@@SAXXZ 000000018005b260     PhysXFoundation_64:PhysXFoundation_64.dll
 0003:00001268       __imp_??0FPUGuard@shdfnd@physx@@QEAA@XZ 000000018005b268     PhysXFoundation_64:PhysXFoundation_64.dll
 0003:00001270       __imp_??1FPUGuard@shdfnd@physx@@QEAA@XZ 000000018005b270     PhysXFoundation_64:PhysXFoundation_64.dll
 0003:00001278       __imp_?allocate@TempAllocator@shdfnd@physx@@QEAAPEAX_KPEBDH@Z 000000018005b278     PhysXFoundation_64:PhysXFoundation_64.dll
 0003:00001280       __imp_?PxDiagonalize@physx@@YA?AVPxVec3@1@AEBVPxMat33@1@AEAVPxQuat@1@@Z 000000018005b280     PhysXFoundation_64:PhysXFoundation_64.dll
 0003:00001288       \177PhysXFoundation_64_NULL_THUNK_DATA_DLA 000000018005b288     PhysXFoundation_64:PhysXFoundation_64.dll
 0003:00001658       __hmod__PhysXCommon_64_dll 000000018005b658     PhysXCommon_64:PhysXCommon_64.dll
 0003:00001660       __hmod__PhysXFoundation_64_dll 000000018005b660     PhysXFoundation_64:PhysXFoundation_64.dll
 0003:00001668       ?DloadKernel32@@3PEAUHINSTANCE__@@EA 000000018005b668     Delayimp:delayhlp.obj
 0003:00001670       ?DloadAcquireSRWLockExclusive@@3P6AXPEA_K@ZEA 000000018005b670     Delayimp:delayhlp.obj
 0003:00001678       ?DloadReleaseSRWLockExclusive@@3P6AXPEA_K@ZEA 000000018005b678     Delayimp:delayhlp.obj
 0003:00001680       ?DloadSrwLock@@3_KA        000000018005b680     Delayimp:delayhlp.obj
 0003:00001688       ?DloadSectionLockCount@@3KA 000000018005b688     Delayimp:delayhlp.obj
 0003:0000168c       ?DloadSectionOldProtection@@3KA 000000018005b68c     Delayimp:delayhlp.obj
 0003:00001690       ?DloadSectionCommitPermanent@@3KA 000000018005b690     Delayimp:delayhlp.obj
 0003:000016a0       ?__type_info_root_node@@3U__type_info_node@@A 000000018005b6a0     LIBCMT:tncleanup.obj
 0003:000016b4       __favor                    000000018005b6b4     LIBCMT:cpu_disp.obj
 0003:000016b8       ?_OptionsStorage@?1??__local_stdio_printf_options@@9@4_KA 000000018005b6b8     LIBCMT:default_local_stdio_options.obj
 0003:000016c0       ?_OptionsStorage@?1??__local_stdio_scanf_options@@9@4_KA 000000018005b6c0     LIBCMT:default_local_stdio_options.obj
 0003:000016c8       __scrt_current_native_startup_state 000000018005b6c8     LIBCMT:utility.obj
 0003:000016d0       __scrt_native_startup_lock 000000018005b6d0     LIBCMT:utility.obj
 0003:00001710       __scrt_debugger_hook_flag  000000018005b710     LIBCMT:utility_desktop.obj
 0003:00001718       ?__WinRTOutOfMemoryExceptionCallback@@3P6APEAXXZEA 000000018005b718     libvcruntime:ehhelpers.obj
 0003:00001720       __pPurecall                000000018005b720     libvcruntime:purevirt_data.obj
 0003:00001728       ?pArgList@UnDecorator@@0PEAVReplicator@@EA 000000018005b728     libvcruntime:undname.obj
 0003:00001730       ?pZNameList@UnDecorator@@0PEAVReplicator@@EA 000000018005b730     libvcruntime:undname.obj
 0003:00001738       ?pTemplateArgList@UnDecorator@@0PEAVReplicator@@EA 000000018005b738     libvcruntime:undname.obj
 0003:00001740       ?gName@UnDecorator@@0PEBDEB 000000018005b740     libvcruntime:undname.obj
 0003:00001748       ?name@UnDecorator@@0PEBDEB 000000018005b748     libvcruntime:undname.obj
 0003:00001750       ?disableFlags@UnDecorator@@0KA 000000018005b750     libvcruntime:undname.obj
 0003:00001754       ?fExplicitTemplateParams@UnDecorator@@0_NA 000000018005b754     libvcruntime:undname.obj
 0003:00001755       ?fGetTemplateArgumentList@UnDecorator@@0_NA 000000018005b755     libvcruntime:undname.obj
 0003:00001758       ?m_pGetParameter@UnDecorator@@0P6APEADJ@ZEA 000000018005b758     libvcruntime:undname.obj
 0003:00001760       ?m_CHPENameOffset@UnDecorator@@0KA 000000018005b760     libvcruntime:undname.obj
 0003:00001764       ?m_recursionLevel@UnDecorator@@0KA 000000018005b764     libvcruntime:undname.obj
 0003:00001890       ?c_exit_complete@?1???R<lambda_6e4b09c48022b2350581041d5f6b0c4c>@@QEBA@XZ@4_NA 000000018005b890     libucrt:exit.obj
 0003:000019a8       _environ_table             000000018005b9a8     libucrt:environment_initialization.obj
 0003:000019b0       _wenviron_table            000000018005b9b0     libucrt:environment_initialization.obj
 0003:000019b8       __dcrt_initial_wide_environment 000000018005b9b8     libucrt:environment_initialization.obj
 0003:000019c0       __dcrt_initial_narrow_environment 000000018005b9c0     libucrt:environment_initialization.obj
 0003:000019c8       __acrt_atexit_table        000000018005b9c8     libucrt:onexit.obj
 0003:000019e0       __acrt_at_quick_exit_table 000000018005b9e0     libucrt:onexit.obj
 0003:000019f8       __fma3_is_available        000000018005b9f8     libucrt:fma3_available.obj
 0003:000019fc       __use_fma3_lib             000000018005b9fc     libucrt:fma3_available.obj
 0003:00001c40       _mbctype                   000000018005bc40     libucrt:mbctype.obj
 0003:00001c48       _mbcasemap                 000000018005bc48     libucrt:mbctype.obj
 0003:00001c50       __acrt_current_multibyte_data 000000018005bc50     libucrt:mbctype.obj
 0003:00001c60       _pgmptr                    000000018005bc60     libucrt:argv_data.obj
 0003:00001c68       __argc                     000000018005bc68     libucrt:argv_data.obj
 0003:00001c70       __argv                     000000018005bc70     libucrt:argv_data.obj
 0003:00001c78       __wargv                    000000018005bc78     libucrt:argv_data.obj
 0003:00001c80       _acmdln                    000000018005bc80     libucrt:argv_data.obj
 0003:00001c88       _wcmdln                    000000018005bc88     libucrt:argv_data.obj
 0003:00001e40       __acrt_heap                000000018005be40     libucrt:heap_handle.obj
 0003:00001e50       __pioinfo                  000000018005be50     libucrt:ioinit.obj
 0003:00002250       _nhandle                   000000018005c250     libucrt:ioinit.obj
 0003:00002288       __acrt_current_locale_data 000000018005c288     libucrt:nlsdata.obj
 0003:00002290       _nstream                   000000018005c290     libucrt:_file.obj
 0003:00002298       __piob                     000000018005c298     libucrt:_file.obj
 0003:000022a0       __acrt_stdout_buffer       000000018005c2a0     libucrt:_sftbuf.obj
 0003:000022a8       __acrt_stderr_buffer       000000018005c2a8     libucrt:_sftbuf.obj
 0003:000022c0       __acrt_locale_changed_data 000000018005c2c0     libucrt:wsetlocale.obj
 0003:000022c8       __acrt_lconv_static_null   000000018005c2c8     libucrt:localeconv.obj
 0003:000022cc       __acrt_lconv_static_W_null 000000018005c2cc     libucrt:localeconv.obj
 0003:00002850       __scrt_ucrt_dll_is_in_use  000000018005c850     <common>
 0003:00002858       __dyn_tls_init_callback    000000018005c858     <common>
 0005:00000100       __common_ssin_reduction_data 0000000180061100     LIBCMT:svml_s_sin_data.obj
 0005:00000d00       __common_ssin_data         0000000180061d00     LIBCMT:svml_s_sin_data.obj

 entry point at        0001:000276d0

 Static symbols

 0000:fff9a000       .debug$S                   0000000180000000     PhysXCooking_64.exp
 0000:fff9a000       .debug$S                   0000000180000000     kernel32:KERNEL32.dll
 0000:fff9a000       .debug$S                   0000000180000000     kernel32:KERNEL32.dll
 0000:fff9a000       .debug$S                   0000000180000000     kernel32:KERNEL32.dll
 0000:fff9a000       .debug$S                   0000000180000000     kernel32:KERNEL32.dll
 0000:fff9a000       .debug$S                   0000000180000000     kernel32:KERNEL32.dll
 0000:fff9a000       .debug$S                   0000000180000000     kernel32:KERNEL32.dll
 0000:fff9a000       .debug$S                   0000000180000000     kernel32:KERNEL32.dll
 0000:fff9a000       .debug$S                   0000000180000000     kernel32:KERNEL32.dll
 0000:fff9a000       .debug$S                   0000000180000000     kernel32:KERNEL32.dll
 0000:fff9a000       .debug$S                   0000000180000000     kernel32:KERNEL32.dll
 0000:fff9a000       .debug$S                   0000000180000000     kernel32:KERNEL32.dll
 0000:fff9a000       .debug$S                   0000000180000000     kernel32:KERNEL32.dll
 0000:fff9a000       .debug$S                   0000000180000000     kernel32:KERNEL32.dll
 0000:fff9a000       .debug$S                   0000000180000000     kernel32:KERNEL32.dll
 0000:fff9a000       .debug$S                   0000000180000000     kernel32:KERNEL32.dll
 0000:fff9a000       .debug$S                   0000000180000000     kernel32:KERNEL32.dll
 0000:fff9a000       .debug$S                   0000000180000000     kernel32:KERNEL32.dll
 0000:fff9a000       .debug$S                   0000000180000000     kernel32:KERNEL32.dll
 0000:fff9a000       .debug$S                   0000000180000000     kernel32:KERNEL32.dll
 0000:fff9a000       .debug$S                   0000000180000000     kernel32:KERNEL32.dll
 0000:fff9a000       .debug$S                   0000000180000000     kernel32:KERNEL32.dll
 0000:fff9a000       .debug$S                   0000000180000000     kernel32:KERNEL32.dll
 0000:fff9a000       .debug$S                   0000000180000000     kernel32:KERNEL32.dll
 0000:fff9a000       .debug$S                   0000000180000000     kernel32:KERNEL32.dll
 0000:fff9a000       .debug$S                   0000000180000000     kernel32:KERNEL32.dll
 0000:fff9a000       .debug$S                   0000000180000000     kernel32:KERNEL32.dll
 0000:fff9a000       .debug$S                   0000000180000000     kernel32:KERNEL32.dll
 0000:fff9a000       .debug$S                   0000000180000000     kernel32:KERNEL32.dll
 0000:fff9a000       .debug$S                   0000000180000000     kernel32:KERNEL32.dll
 0000:fff9a000       .debug$S                   0000000180000000     kernel32:KERNEL32.dll
 0000:fff9a000       .debug$S                   0000000180000000     kernel32:KERNEL32.dll
 0000:fff9a000       .debug$S                   0000000180000000     kernel32:KERNEL32.dll
 0000:fff9a000       .debug$S                   0000000180000000     kernel32:KERNEL32.dll
 0000:fff9a000       .debug$S                   0000000180000000     kernel32:KERNEL32.dll
 0000:fff9a000       .debug$S                   0000000180000000     kernel32:KERNEL32.dll
 0000:fff9a000       .debug$S                   0000000180000000     kernel32:KERNEL32.dll
 0000:fff9a000       .debug$S                   0000000180000000     kernel32:KERNEL32.dll
 0000:fff9a000       .debug$S                   0000000180000000     kernel32:KERNEL32.dll
 0000:fff9a000       .debug$S                   0000000180000000     kernel32:KERNEL32.dll
 0000:fff9a000       .debug$S                   0000000180000000     kernel32:KERNEL32.dll
 0000:fff9a000       .debug$S                   0000000180000000     kernel32:KERNEL32.dll
 0000:fff9a000       .debug$S                   0000000180000000     kernel32:KERNEL32.dll
 0000:fff9a000       .debug$S                   0000000180000000     kernel32:KERNEL32.dll
 0000:fff9a000       .debug$S                   0000000180000000     kernel32:KERNEL32.dll
 0000:fff9a000       .debug$S                   0000000180000000     kernel32:KERNEL32.dll
 0000:fff9a000       .debug$S                   0000000180000000     kernel32:KERNEL32.dll
 0000:fff9a000       .debug$S                   0000000180000000     kernel32:KERNEL32.dll
 0000:fff9a000       .debug$S                   0000000180000000     kernel32:KERNEL32.dll
 0000:fff9a000       .debug$S                   0000000180000000     kernel32:KERNEL32.dll
 0000:fff9a000       .debug$S                   0000000180000000     kernel32:KERNEL32.dll
 0000:fff9a000       .debug$S                   0000000180000000     kernel32:KERNEL32.dll
 0000:fff9a000       .debug$S                   0000000180000000     kernel32:KERNEL32.dll
 0000:fff9a000       .debug$S                   0000000180000000     kernel32:KERNEL32.dll
 0000:fff9a000       .debug$S                   0000000180000000     kernel32:KERNEL32.dll
 0000:fff9a000       .debug$S                   0000000180000000     kernel32:KERNEL32.dll
 0000:fff9a000       .debug$S                   0000000180000000     kernel32:KERNEL32.dll
 0000:fff9a000       .debug$S                   0000000180000000     kernel32:KERNEL32.dll
 0000:fff9a000       .debug$S                   0000000180000000     kernel32:KERNEL32.dll
 0000:fff9a000       .debug$S                   0000000180000000     kernel32:KERNEL32.dll
 0000:fff9a000       .debug$S                   0000000180000000     kernel32:KERNEL32.dll
 0000:fff9a000       .debug$S                   0000000180000000     kernel32:KERNEL32.dll
 0000:fff9a000       .debug$S                   0000000180000000     kernel32:KERNEL32.dll
 0000:fff9a000       .debug$S                   0000000180000000     kernel32:KERNEL32.dll
 0000:fff9a000       .debug$S                   0000000180000000     kernel32:KERNEL32.dll
 0000:fff9a000       .debug$S                   0000000180000000     kernel32:KERNEL32.dll
 0000:fff9a000       .debug$S                   0000000180000000     kernel32:KERNEL32.dll
 0000:fff9a000       .debug$S                   0000000180000000     kernel32:KERNEL32.dll
 0000:fff9a000       .debug$S                   0000000180000000     kernel32:KERNEL32.dll
 0000:fff9a000       .debug$S                   0000000180000000     kernel32:KERNEL32.dll
 0000:fff9a000       .debug$S                   0000000180000000     kernel32:KERNEL32.dll
 0000:fff9a000       .debug$S                   0000000180000000     kernel32:KERNEL32.dll
 0000:fff9a000       .debug$S                   0000000180000000     kernel32:KERNEL32.dll
 0000:fff9a000       .debug$S                   0000000180000000     kernel32:KERNEL32.dll
 0000:fff9a000       .debug$S                   0000000180000000     kernel32:KERNEL32.dll
 0000:fff9a000       .debug$S                   0000000180000000     kernel32:KERNEL32.dll
 0000:fff9a000       .debug$S                   0000000180000000     kernel32:KERNEL32.dll
 0000:fff9a000       .debug$S                   0000000180000000     kernel32:KERNEL32.dll
 0000:fff9a000       .debug$S                   0000000180000000     kernel32:KERNEL32.dll
 0000:fff9a000       .debug$S                   0000000180000000     kernel32:KERNEL32.dll
 0000:fff9a000       .debug$S                   0000000180000000     kernel32:KERNEL32.dll
 0000:fff9a000       .debug$S                   0000000180000000     kernel32:KERNEL32.dll
 0000:fff9a000       .debug$S                   0000000180000000     kernel32:KERNEL32.dll
 0000:fff9a000       .debug$S                   0000000180000000     kernel32:KERNEL32.dll
 0000:fff9a000       .debug$S                   0000000180000000     kernel32:KERNEL32.dll
 0000:fff9a000       .debug$S                   0000000180000000     kernel32:KERNEL32.dll
 0000:fff9a000       .debug$S                   0000000180000000     kernel32:KERNEL32.dll
 0000:fff9a000       .debug$S                   0000000180000000     kernel32:KERNEL32.dll
 0000:fff9a000       .debug$S                   0000000180000000     kernel32:KERNEL32.dll
 0000:fff9a000       .debug$S                   0000000180000000     kernel32:KERNEL32.dll
 0000:fff9a000       .debug$S                   0000000180000000     PhysXCommon_64:PhysXCommon_64.dll
 0000:fff9a000       .debug$S                   0000000180000000     PhysXCommon_64:PhysXCommon_64.dll
 0000:fff9a000       .debug$S                   0000000180000000     PhysXCommon_64:PhysXCommon_64.dll
 0000:fff9a000       .debug$S                   0000000180000000     PhysXCommon_64:PhysXCommon_64.dll
 0000:fff9a000       .debug$S                   0000000180000000     PhysXCommon_64:PhysXCommon_64.dll
 0000:fff9a000       .debug$S                   0000000180000000     PhysXCommon_64:PhysXCommon_64.dll
 0000:fff9a000       .debug$S                   0000000180000000     PhysXCommon_64:PhysXCommon_64.dll
 0000:fff9a000       .debug$S                   0000000180000000     PhysXCommon_64:PhysXCommon_64.dll
 0000:fff9a000       .debug$S                   0000000180000000     PhysXCommon_64:PhysXCommon_64.dll
 0000:fff9a000       .debug$S                   0000000180000000     PhysXCommon_64:PhysXCommon_64.dll
 0000:fff9a000       .debug$S                   0000000180000000     PhysXCommon_64:PhysXCommon_64.dll
 0000:fff9a000       .debug$S                   0000000180000000     PhysXCommon_64:PhysXCommon_64.dll
 0000:fff9a000       .debug$S                   0000000180000000     PhysXCommon_64:PhysXCommon_64.dll
 0000:fff9a000       .debug$S                   0000000180000000     PhysXCommon_64:PhysXCommon_64.dll
 0000:fff9a000       .debug$S                   0000000180000000     PhysXCommon_64:PhysXCommon_64.dll
 0000:fff9a000       .debug$S                   0000000180000000     PhysXCommon_64:PhysXCommon_64.dll
 0000:fff9a000       .debug$S                   0000000180000000     PhysXCommon_64:PhysXCommon_64.dll
 0000:fff9a000       .debug$S                   0000000180000000     PhysXCommon_64:PhysXCommon_64.dll
 0000:fff9a000       .debug$S                   0000000180000000     PhysXCommon_64:PhysXCommon_64.dll
 0000:fff9a000       .debug$S                   0000000180000000     PhysXCommon_64:PhysXCommon_64.dll
 0000:fff9a000       .debug$S                   0000000180000000     PhysXCommon_64:PhysXCommon_64.dll
 0000:fff9a000       .debug$S                   0000000180000000     PhysXCommon_64:PhysXCommon_64.dll
 0000:fff9a000       .debug$S                   0000000180000000     PhysXCommon_64:PhysXCommon_64.dll
 0000:fff9a000       .debug$S                   0000000180000000     PhysXCommon_64:PhysXCommon_64.dll
 0000:fff9a000       .debug$S                   0000000180000000     PhysXCommon_64:PhysXCommon_64.dll
 0000:fff9a000       .debug$S                   0000000180000000     PhysXCommon_64:PhysXCommon_64.dll
 0000:fff9a000       .debug$S                   0000000180000000     PhysXCommon_64:PhysXCommon_64.dll
 0000:fff9a000       .debug$S                   0000000180000000     PhysXCommon_64:PhysXCommon_64.dll
 0000:fff9a000       .debug$S                   0000000180000000     PhysXCommon_64:PhysXCommon_64.dll
 0000:fff9a000       .debug$S                   0000000180000000     PhysXCommon_64:PhysXCommon_64.dll
 0000:fff9a000       .debug$S                   0000000180000000     PhysXCommon_64:PhysXCommon_64.dll
 0000:fff9a000       .debug$S                   0000000180000000     PhysXCommon_64:PhysXCommon_64.dll
 0000:fff9a000       .debug$S                   0000000180000000     PhysXCommon_64:PhysXCommon_64.dll
 0000:fff9a000       .debug$S                   0000000180000000     PhysXCommon_64:PhysXCommon_64.dll
 0000:fff9a000       .debug$S                   0000000180000000     PhysXCommon_64:PhysXCommon_64.dll
 0000:fff9a000       .debug$S                   0000000180000000     PhysXCommon_64:PhysXCommon_64.dll
 0000:fff9a000       .debug$S                   0000000180000000     PhysXCommon_64:PhysXCommon_64.dll
 0000:fff9a000       .debug$S                   0000000180000000     PhysXCommon_64:PhysXCommon_64.dll
 0000:fff9a000       .debug$S                   0000000180000000     PhysXFoundation_64:PhysXFoundation_64.dll
 0000:fff9a000       .debug$S                   0000000180000000     PhysXFoundation_64:PhysXFoundation_64.dll
 0000:fff9a000       .debug$S                   0000000180000000     PhysXFoundation_64:PhysXFoundation_64.dll
 0000:fff9a000       .debug$S                   0000000180000000     PhysXFoundation_64:PhysXFoundation_64.dll
 0000:fff9a000       .debug$S                   0000000180000000     PhysXFoundation_64:PhysXFoundation_64.dll
 0000:fff9a000       .debug$S                   0000000180000000     PhysXFoundation_64:PhysXFoundation_64.dll
 0000:fff9a000       .debug$S                   0000000180000000     PhysXFoundation_64:PhysXFoundation_64.dll
 0000:fff9a000       .debug$S                   0000000180000000     PhysXFoundation_64:PhysXFoundation_64.dll
 0000:fff9a000       .debug$S                   0000000180000000     PhysXFoundation_64:PhysXFoundation_64.dll
 0000:fff9a000       .debug$S                   0000000180000000     PhysXFoundation_64:PhysXFoundation_64.dll
 0000:fff9a000       .debug$S                   0000000180000000     PhysXFoundation_64:PhysXFoundation_64.dll
 0001:00000000       ??__EmaxFError@_VecMathTests@aos@shdfnd@physx@@YAXXZ 0000000180001000 f   Cooking.obj
 0001:00000010       ??__EmaxV3Error@_VecMathTests@aos@shdfnd@physx@@YAXXZ 0000000180001010 f   Cooking.obj
 0001:00000020       ??__EmaxV4Error@_VecMathTests@aos@shdfnd@physx@@YAXXZ 0000000180001020 f   Cooking.obj
 0001:00000030       ??__EminFError@_VecMathTests@aos@shdfnd@physx@@YAXXZ 0000000180001030 f   Cooking.obj
 0001:00000040       ??__EminV3Error@_VecMathTests@aos@shdfnd@physx@@YAXXZ 0000000180001040 f   Cooking.obj
 0001:00000050       ??__EminV4Error@_VecMathTests@aos@shdfnd@physx@@YAXXZ 0000000180001050 f   Cooking.obj
 0001:00000060       ??__EmaxFError@_VecMathTests@aos@shdfnd@physx@@YAXXZ 0000000180001060 f   BVHStructureBuilder.obj
 0001:00000070       ??__EmaxV3Error@_VecMathTests@aos@shdfnd@physx@@YAXXZ 0000000180001070 f   BVHStructureBuilder.obj
 0001:00000080       ??__EmaxV4Error@_VecMathTests@aos@shdfnd@physx@@YAXXZ 0000000180001080 f   BVHStructureBuilder.obj
 0001:00000090       ??__EminFError@_VecMathTests@aos@shdfnd@physx@@YAXXZ 0000000180001090 f   BVHStructureBuilder.obj
 0001:000000a0       ??__EminV3Error@_VecMathTests@aos@shdfnd@physx@@YAXXZ 00000001800010a0 f   BVHStructureBuilder.obj
 0001:000000b0       ??__EminV4Error@_VecMathTests@aos@shdfnd@physx@@YAXXZ 00000001800010b0 f   BVHStructureBuilder.obj
 0001:000000c0       ??__EmaxFError@_VecMathTests@aos@shdfnd@physx@@YAXXZ 00000001800010c0 f   RTreeCooking.obj
 0001:000000d0       ??__EmaxV3Error@_VecMathTests@aos@shdfnd@physx@@YAXXZ 00000001800010d0 f   RTreeCooking.obj
 0001:000000e0       ??__EmaxV4Error@_VecMathTests@aos@shdfnd@physx@@YAXXZ 00000001800010e0 f   RTreeCooking.obj
 0001:000000f0       ??__EminFError@_VecMathTests@aos@shdfnd@physx@@YAXXZ 00000001800010f0 f   RTreeCooking.obj
 0001:00000100       ??__EminV3Error@_VecMathTests@aos@shdfnd@physx@@YAXXZ 0000000180001100 f   RTreeCooking.obj
 0001:00000110       ??__EminV4Error@_VecMathTests@aos@shdfnd@physx@@YAXXZ 0000000180001110 f   RTreeCooking.obj
 0001:00000120       ??__EmaxFError@_VecMathTests@aos@shdfnd@physx@@YAXXZ 0000000180001120 f   MeshBuilder.obj
 0001:00000130       ??__EmaxV3Error@_VecMathTests@aos@shdfnd@physx@@YAXXZ 0000000180001130 f   MeshBuilder.obj
 0001:00000140       ??__EmaxV4Error@_VecMathTests@aos@shdfnd@physx@@YAXXZ 0000000180001140 f   MeshBuilder.obj
 0001:00000150       ??__EminFError@_VecMathTests@aos@shdfnd@physx@@YAXXZ 0000000180001150 f   MeshBuilder.obj
 0001:00000160       ??__EminV3Error@_VecMathTests@aos@shdfnd@physx@@YAXXZ 0000000180001160 f   MeshBuilder.obj
 0001:00000170       ??__EminV4Error@_VecMathTests@aos@shdfnd@physx@@YAXXZ 0000000180001170 f   MeshBuilder.obj
 0001:00000180       ??__EmaxFError@_VecMathTests@aos@shdfnd@physx@@YAXXZ 0000000180001180 f   TriangleMeshBuilder.obj
 0001:00000190       ??__EmaxV3Error@_VecMathTests@aos@shdfnd@physx@@YAXXZ 0000000180001190 f   TriangleMeshBuilder.obj
 0001:000001a0       ??__EmaxV4Error@_VecMathTests@aos@shdfnd@physx@@YAXXZ 00000001800011a0 f   TriangleMeshBuilder.obj
 0001:000001b0       ??__EminFError@_VecMathTests@aos@shdfnd@physx@@YAXXZ 00000001800011b0 f   TriangleMeshBuilder.obj
 0001:000001c0       ??__EminV3Error@_VecMathTests@aos@shdfnd@physx@@YAXXZ 00000001800011c0 f   TriangleMeshBuilder.obj
 0001:000001d0       ??__EminV4Error@_VecMathTests@aos@shdfnd@physx@@YAXXZ 00000001800011d0 f   TriangleMeshBuilder.obj
 0001:000001e0       ??__EmaxFError@_VecMathTests@aos@shdfnd@physx@@YAXXZ 00000001800011e0 f   BigConvexDataBuilder.obj
 0001:000001f0       ??__EmaxV3Error@_VecMathTests@aos@shdfnd@physx@@YAXXZ 00000001800011f0 f   BigConvexDataBuilder.obj
 0001:00000200       ??__EmaxV4Error@_VecMathTests@aos@shdfnd@physx@@YAXXZ 0000000180001200 f   BigConvexDataBuilder.obj
 0001:00000210       ??__EminFError@_VecMathTests@aos@shdfnd@physx@@YAXXZ 0000000180001210 f   BigConvexDataBuilder.obj
 0001:00000220       ??__EminV3Error@_VecMathTests@aos@shdfnd@physx@@YAXXZ 0000000180001220 f   BigConvexDataBuilder.obj
 0001:00000230       ??__EminV4Error@_VecMathTests@aos@shdfnd@physx@@YAXXZ 0000000180001230 f   BigConvexDataBuilder.obj
 0001:00000240       ??__EmaxFError@_VecMathTests@aos@shdfnd@physx@@YAXXZ 0000000180001240 f   ConvexHullBuilder.obj
 0001:00000250       ??__EmaxV3Error@_VecMathTests@aos@shdfnd@physx@@YAXXZ 0000000180001250 f   ConvexHullBuilder.obj
 0001:00000260       ??__EmaxV4Error@_VecMathTests@aos@shdfnd@physx@@YAXXZ 0000000180001260 f   ConvexHullBuilder.obj
 0001:00000270       ??__EminFError@_VecMathTests@aos@shdfnd@physx@@YAXXZ 0000000180001270 f   ConvexHullBuilder.obj
 0001:00000280       ??__EminV3Error@_VecMathTests@aos@shdfnd@physx@@YAXXZ 0000000180001280 f   ConvexHullBuilder.obj
 0001:00000290       ??__EminV4Error@_VecMathTests@aos@shdfnd@physx@@YAXXZ 0000000180001290 f   ConvexHullBuilder.obj
 0001:000002a0       ??__EmaxFError@_VecMathTests@aos@shdfnd@physx@@YAXXZ 00000001800012a0 f   ConvexHullUtils.obj
 0001:000002b0       ??__EmaxV3Error@_VecMathTests@aos@shdfnd@physx@@YAXXZ 00000001800012b0 f   ConvexHullUtils.obj
 0001:000002c0       ??__EmaxV4Error@_VecMathTests@aos@shdfnd@physx@@YAXXZ 00000001800012c0 f   ConvexHullUtils.obj
 0001:000002d0       ??__EminFError@_VecMathTests@aos@shdfnd@physx@@YAXXZ 00000001800012d0 f   ConvexHullUtils.obj
 0001:000002e0       ??__EminV3Error@_VecMathTests@aos@shdfnd@physx@@YAXXZ 00000001800012e0 f   ConvexHullUtils.obj
 0001:000002f0       ??__EminV4Error@_VecMathTests@aos@shdfnd@physx@@YAXXZ 00000001800012f0 f   ConvexHullUtils.obj
 0001:00000300       ??__EmaxFError@_VecMathTests@aos@shdfnd@physx@@YAXXZ 0000000180001300 f   ConvexMeshBuilder.obj
 0001:00000310       ??__EmaxV3Error@_VecMathTests@aos@shdfnd@physx@@YAXXZ 0000000180001310 f   ConvexMeshBuilder.obj
 0001:00000320       ??__EmaxV4Error@_VecMathTests@aos@shdfnd@physx@@YAXXZ 0000000180001320 f   ConvexMeshBuilder.obj
 0001:00000330       ??__EminFError@_VecMathTests@aos@shdfnd@physx@@YAXXZ 0000000180001330 f   ConvexMeshBuilder.obj
 0001:00000340       ??__EminV3Error@_VecMathTests@aos@shdfnd@physx@@YAXXZ 0000000180001340 f   ConvexMeshBuilder.obj
 0001:00000350       ??__EminV4Error@_VecMathTests@aos@shdfnd@physx@@YAXXZ 0000000180001350 f   ConvexMeshBuilder.obj
 0001:00000360       ??__EmaxFError@_VecMathTests@aos@shdfnd@physx@@YAXXZ 0000000180001360 f   VolumeIntegration.obj
 0001:00000370       ??__EmaxV3Error@_VecMathTests@aos@shdfnd@physx@@YAXXZ 0000000180001370 f   VolumeIntegration.obj
 0001:00000380       ??__EmaxV4Error@_VecMathTests@aos@shdfnd@physx@@YAXXZ 0000000180001380 f   VolumeIntegration.obj
 0001:00000390       ??__EminFError@_VecMathTests@aos@shdfnd@physx@@YAXXZ 0000000180001390 f   VolumeIntegration.obj
 0001:000003a0       ??__EminV3Error@_VecMathTests@aos@shdfnd@physx@@YAXXZ 00000001800013a0 f   VolumeIntegration.obj
 0001:000003b0       ??__EminV4Error@_VecMathTests@aos@shdfnd@physx@@YAXXZ 00000001800013b0 f   VolumeIntegration.obj
 0001:000005c0       ?AddTriangle@@YAXIIIIPEAVAdjTriangle@physx@@AEAIPEAVAdjEdge@@@Z 00000001800015c0 f   Adjacencies.obj
 0001:00000740       ?CreateDatabase@@YA_NPEAVAdjTriangle@physx@@IPEBVAdjEdge@@AEBUADJACENCIESCREATE@2@@Z 0000000180001740 f   Adjacencies.obj
 0001:00000d00       ?UpdateLink@@YA_NIIIIPEAVAdjTriangle@physx@@AEBUADJACENCIESCREATE@2@@Z 0000000180001d00 f   Adjacencies.obj
 0001:00008fa0       ?buildFromBounds@physx@@YAXAEAURTree@Gu@1@PEBUPxBounds3V@1@IAEAV?$Array@IV?$ReflectionAllocator@I@shdfnd@physx@@@shdfnd@1@PEAURemapCallback@RTreeCooker@1@AEAT__m128@@4MW4Enum@PxMeshCookingHint@1@@Z 0000000180009fa0 f   RTreeCooking.obj
 0001:0000d000       ?buildAdjacencies@physx@@YAXPEAUuint4@1@PEAVPxVec3@1@PEBV31@PEBUuint3@1@I@Z 000000018000e000 f   TriangleMeshBuilder.obj
 0001:0000e790       ?findAdjacent@physx@@YAIPEBVPxVec3@1@0PEBUuint3@1@IIIAEBVPxPlane@1@PEAUEdgeTriLookup@1@I@Z 000000018000f790 f   TriangleMeshBuilder.obj
 0001:00013660       ?checkPointsAABBValidity@local@@YA_NIPEBVPxVec3@physx@@IMMAEAV23@1AEAIPEAV23@_N@Z 0000000180014660 f   ConvexHullLib.obj
 0001:00018a60       ?ComputeInternalExtent@@YAXAEAUConvexHullData@Gu@physx@@PEBUHullPolygonData@23@@Z 0000000180019a60 f   ConvexMeshBuilder.obj
 0001:00019e50       ?CheckFloodFillFace@Local@?7??extractHullPolygons@@YA_NAEAIAEAV?$Array@IV?$ReflectionAllocator@I@shdfnd@physx@@@shdfnd@physx@@AEBVConvexPolygonsBuilder@5@PEAV345@1@Z@SA_NIPEBVAdjTriangle@5@PEBI@Z 000000018001ae50 f   ConvexPolygonsBuilder.obj
 0001:0001a440       ?FloodFill@Local@?7??extractHullPolygons@@YA_NAEAIAEAV?$Array@IV?$ReflectionAllocator@I@shdfnd@physx@@@shdfnd@physx@@AEBVConvexPolygonsBuilder@5@PEAV345@1@Z@SAX1PEBVAdjTriangle@5@IPEA_N@Z 000000018001b440 f   ConvexPolygonsBuilder.obj
 0001:0001a520       ?TestDuplicateTriangles@@YA_NAEAIPEAU?$TriangleT@I@Gu@physx@@_N@Z 000000018001b520 f   ConvexPolygonsBuilder.obj
 0001:0001a6f0       ?checkRedundantVertices@@YAXAEAIAEAV?$Array@IV?$ReflectionAllocator@I@shdfnd@physx@@@shdfnd@physx@@AEBVConvexPolygonsBuilder@3@11@Z 000000018001b6f0 f   ConvexPolygonsBuilder.obj
 0001:0001bf60       ?computeNewellPlane@@YA_NAEAVPxPlane@physx@@IPEBEPEBVPxVec3@2@@Z 000000018001cf60 f   ConvexPolygonsBuilder.obj
 0001:0001d460       ?extractHullPolygons@@YA_NAEAIAEAV?$Array@IV?$ReflectionAllocator@I@shdfnd@physx@@@shdfnd@physx@@AEBVConvexPolygonsBuilder@3@PEAV123@1@Z 000000018001e460 f   ConvexPolygonsBuilder.obj
 0001:0001dec0       ?findLineStrip@@YA_NAEAV?$Array@IV?$ReflectionAllocator@I@shdfnd@physx@@@shdfnd@physx@@AEBV?$Array@VPair@@V?$ReflectionAllocator@VPair@@@shdfnd@physx@@@23@@Z 000000018001eec0 f   ConvexPolygonsBuilder.obj
 0001:000255c0       ?computeVolumeIntegrals@VolumeIntegratorEberly@?A0xfebab4b6@physx@@QEAA_NAEAUPxIntegrals@3@AEBVPxVec3@3@@Z 00000001800265c0 f   VolumeIntegration.obj
 0001:000260c0       ?computeVolumeIntegralsSIMD@VolumeIntegratorEberly@?A0xfebab4b6@physx@@QEAA_NAEAUPxIntegrals@3@AEBVPxVec3@3@@Z 00000001800270c0 f   VolumeIntegration.obj
 0001:00026790       $LN24                      0000000180027790     WindowsCookingDelayLoadHook.obj
 0001:000272d0       $$000000                   00000001800282d0     LIBCMT:chkstk.obj
 0001:00027330       ?<lambda_invoker_cdecl>@<lambda_2>@?1??__std_type_info_name@@YAPEBDPEAU__std_type_info_data@@PEAU__type_info_node@@@Z@SA@QEAX@Z 0000000180028330 f   libvcruntime:std_type_info.obj
 0001:00027340       $$000000                   0000000180028340     LIBCMT:svml_ssinf4_dispatch.obj
 0001:000273b0       ?dllmain_crt_dispatch@@YAHQEAUHINSTANCE__@@KQEAX@Z 00000001800283b0 f   LIBCMT:dll_dllmain.obj
 0001:00027400       ?dllmain_crt_process_attach@@YAHQEAUHINSTANCE__@@QEAX@Z 0000000180028400 f   LIBCMT:dll_dllmain.obj
 0001:00027518       ?dllmain_crt_process_detach@@YAH_N@Z 0000000180028518 f   LIBCMT:dll_dllmain.obj
 0001:0002759c       ?dllmain_dispatch@@YAHQEAUHINSTANCE__@@KQEAX@Z 000000018002859c f   LIBCMT:dll_dllmain.obj
 0001:000278c0       $$000000                   00000001800288c0     LIBCMT:svml_ssinf4_sse2.obj
 0001:00028200       $$000000                   0000000180029200     LIBCMT:svml_ssinf4_sse4.obj
 0001:00028f50       $$000000                   0000000180029f50     LIBCMT:svml_s_sin_cout.obj
 0001:00028ff4       ?<lambda_invoker_cdecl>@<lambda_1>@?1??__std_type_info_name@@YAPEBDPEAU__std_type_info_data@@PEAU__type_info_node@@@Z@SA@_K@Z 0000000180029ff4 f   libvcruntime:std_type_info.obj
 0001:00029170       $$000000                   000000018002a170     libvcruntime:memset.obj
 0001:00029530       $$000000                   000000018002a530     libvcruntime:memcpy.obj
 0001:0002a698       ??1TrackRecursion@?1??getDecoratedName@UnDecorator@@CA?AVDName@@XZ@QEAA@XZ 000000018002b698 f   libvcruntime:undname.obj
 0001:00031f20       $$000000                   0000000180032f20     libvcruntime:notify.obj
 0001:000329dc       ?try_get_function@@YAPEAXW4function_id@?A0x14174aea@@QEBDQEBW4module_id@2@2@Z 00000001800339dc f   libvcruntime:winapi_downlevel.obj
 0001:00032db4       ??$BuildCatchObjectHelperInternal@V__FrameHandler4@@@@YAHPEAUEHExceptionRecord@@PEAXPEAUHandlerType4@FH4@@PEBU_s_CatchableType@@@Z 0000000180033db4 f   libvcruntime:frame.obj
 0001:00032fb8       ??$BuildCatchObjectInternal@V__FrameHandler4@@@@YAXPEAUEHExceptionRecord@@PEAXPEAUHandlerType4@FH4@@PEBU_s_CatchableType@@@Z 0000000180033fb8 f   libvcruntime:frame.obj
 0001:0003307c       ??$CatchIt@V__FrameHandler4@@@@YAXPEAUEHExceptionRecord@@PEA_KPEAU_CONTEXT@@PEAU_xDISPATCHER_CONTEXT@@PEAUFuncInfo4@FH4@@PEAUHandlerType4@4@PEBU_s_CatchableType@@PEAUTryBlockMapEntry4@4@H1EE@Z 000000018003407c f   libvcruntime:frame.obj
 0001:00033150       ??$FindHandler@V__FrameHandler4@@@@YAXPEAUEHExceptionRecord@@PEA_KPEAU_CONTEXT@@PEAU_xDISPATCHER_CONTEXT@@PEAUFuncInfo4@FH4@@EH1@Z 0000000180034150 f   libvcruntime:frame.obj
 0001:0003364c       ??$FindHandlerForForeignException@V__FrameHandler4@@@@YAXPEAUEHExceptionRecord@@PEA_KPEAU_CONTEXT@@PEAU_xDISPATCHER_CONTEXT@@PEAUFuncInfo4@FH4@@HH1@Z 000000018003464c f   libvcruntime:frame.obj
 0001:00034474       ?ExFilterRethrow@@YAHPEAU_EXCEPTION_POINTERS@@PEAUEHExceptionRecord@@PEAH@Z 0000000180035474 f   libvcruntime:frame.obj
 0001:000344fc       ?ExFilterRethrowFH4@@YAHPEAU_EXCEPTION_POINTERS@@PEAUEHExceptionRecord@@HPEAH@Z 00000001800354fc f   libvcruntime:frame.obj
 0001:00034828       ?IsInExceptionSpec@@YAEPEAUEHExceptionRecord@@PEBU_s_ESTypeList@@@Z 0000000180035828 f   libvcruntime:frame.obj
 0001:00034918       ?Is_bad_exception_allowed@@YAEPEBU_s_ESTypeList@@@Z 0000000180035918 f   libvcruntime:frame.obj
 0001:00034bf0       $$000000                   0000000180035bf0     libvcruntime:handlers.obj
 0001:00034e50       $$000000                   0000000180035e50     libucrt:strcmp.obj
 0001:000352c0       $$000000                   00000001800362c0     libucrt:cosf.obj
 0001:000357c0       $$000000                   00000001800367c0     libucrt:sinf.obj
 0001:00036190       ??$?RV<lambda_d80eeec6fff315bfe5c115232f3240e3>@@AEAV<lambda_6e4b09c48022b2350581041d5f6b0c4c>@@V<lambda_2358e3775559c9db80273638284d5e45>@@@?$__crt_seh_guarded_call@X@@QEAAX$$QEAV<lambda_d80eeec6fff315bfe5c115232f3240e3>@@AEAV<lambda_6e4b09c48022b2350581041d5f6b0c4c>@@$$QEAV<lambda_2358e3775559c9db80273638284d5e45>@@@Z 0000000180037190 f   libucrt:exit.obj
 0001:000361c8       ??R<lambda_6e4b09c48022b2350581041d5f6b0c4c>@@QEBA@XZ 00000001800371c8 f   libucrt:exit.obj
 0001:0003628c       ?atexit_exception_filter@@YAHK@Z 000000018003728c f   libucrt:exit.obj
 0001:00036298       ?common_exit@@YAXHW4_crt_exit_cleanup_mode@@W4_crt_exit_return_mode@@@Z 0000000180037298 f   libucrt:exit.obj
 0001:00036354       ?exit_or_terminate_process@@YAXI@Z 0000000180037354 f   libucrt:exit.obj
 0001:000363a0       ?try_cor_exit_process@@YAXI@Z 00000001800373a0 f   libucrt:exit.obj
 0001:00036428       ??$parse_command_line@D@@YAXPEADPEAPEAD0PEA_K2@Z 0000000180037428 f   libucrt:argv_parsing.obj
 0001:000367d0       ??$common_initialize_environment_nolock@D@@YAHXZ 00000001800377d0 f   libucrt:environment_initialization.obj
 0001:0003683c       ??$create_environment@D@@YAQEAPEADQEAD@Z 000000018003783c f   libucrt:environment_initialization.obj
 0001:00036944       ??$free_environment@D@@YAXQEAPEAD@Z 0000000180037944 f   libucrt:environment_initialization.obj
 0001:00036944       ??$free_environment@_W@@YAXQEAPEA_W@Z 0000000180037944 f   libucrt:environment_initialization.obj
 0001:00036988       ??$uninitialize_environment_internal@D@@YAXAEAPEAPEAD@Z 0000000180037988 f   libucrt:environment_initialization.obj
 0001:000369a4       ??$uninitialize_environment_internal@_W@@YAXAEAPEAPEA_W@Z 00000001800379a4 f   libucrt:environment_initialization.obj
 0001:00036a00       ??$?RV<lambda_7777bce6b2f8c936911f934f8298dc43>@@AEAV<lambda_f03950bc5685219e0bcd2087efbe011e>@@V<lambda_3883c3dff614d5e0c5f61bb1ac94921c>@@@?$__crt_seh_guarded_call@H@@QEAAH$$QEAV<lambda_7777bce6b2f8c936911f934f8298dc43>@@AEAV<lambda_f03950bc5685219e0bcd2087efbe011e>@@$$QEAV<lambda_3883c3dff614d5e0c5f61bb1ac94921c>@@@Z 0000000180037a00 f   libucrt:onexit.obj
 0001:00036a3c       ??R<lambda_f03950bc5685219e0bcd2087efbe011e>@@QEBAHXZ 0000000180037a3c f   libucrt:onexit.obj
 0001:00036bb8       initialize_global_variables 0000000180037bb8 f   libucrt:initialization.obj
 0001:00036bcc       initialize_c               0000000180037bcc f   libucrt:initialization.obj
 0001:00036bf0       initialize_environment     0000000180037bf0 f   libucrt:initialization.obj
 0001:00036bf0       initialize_global_state_isolation 0000000180037bf0 f   libucrt:initialization.obj
 0001:00036bf0       report_memory_leaks        0000000180037bf0 f   libucrt:initialization.obj
 0001:00036bf0       uninitialize_c             0000000180037bf0 f   libucrt:initialization.obj
 0001:00036bf0       uninitialize_global_state_isolation 0000000180037bf0 f   libucrt:initialization.obj
 0001:00036bf4       uninitialize_environment   0000000180037bf4 f   libucrt:initialization.obj
 0001:00036c04       initialize_pointers        0000000180037c04 f   libucrt:initialization.obj
 0001:00036c44       uninitialize_vcruntime     0000000180037c44 f   libucrt:initialization.obj
 0001:00036c4c       uninitialize_allocated_memory 0000000180037c4c f   libucrt:initialization.obj
 0001:00036c8c       uninitialize_allocated_io_buffers 0000000180037c8c f   libucrt:initialization.obj
 0001:00036e48       ??$common_vsprintf@Vformat_validation_base@__crt_stdio_output@@D@@YAH_KQEAD0QEBDQEAU__crt_locale_pointers@@1@Z 0000000180037e48 f   libucrt:output.obj
 0001:00037014       ??$common_vsprintf@Vstandard_base@__crt_stdio_output@@D@@YAH_KQEAD0QEBDQEAU__crt_locale_pointers@@1@Z 0000000180038014 f   libucrt:output.obj
 0001:00037fc8       $LN17                      0000000180038fc8     libucrt:output.obj
 0001:00038b30       $$000000                   0000000180039b30     libucrt:strncmp.obj
 0001:00038cc4       _call_matherr              0000000180039cc4 f   libucrt:libm_error.obj
 0001:00038d2c       _exception_enabled         0000000180039d2c f   libucrt:libm_error.obj
 0001:00039070       $$000000                   000000018003a070     libucrt:remainder_piby2f_forasm.obj
 0001:000391c0       $$000000                   000000018003a1c0     libucrt:remainder_piby2_forfma3.obj
 0001:0003943c       _sincosf_special           000000018003a43c f   libucrt:sincos_special.obj
 0001:00039550       $$000000                   000000018003a550     libucrt:remainder_piby2f_forc.obj
 0001:0003971c       ??$?RV<lambda_0ae27a3a962d80f24befdcbee591983d>@@AEAV<lambda_8d0ee55de4b1038c4002e0adecdf1839>@@V<lambda_dc504788e8f1664fe9b84e20bfb512f2>@@@?$__crt_seh_guarded_call@X@@QEAAX$$QEAV<lambda_0ae27a3a962d80f24befdcbee591983d>@@AEAV<lambda_8d0ee55de4b1038c4002e0adecdf1839>@@$$QEAV<lambda_dc504788e8f1664fe9b84e20bfb512f2>@@@Z 000000018003a71c f   libucrt:per_thread_data.obj
 0001:0003975c       ??$?RV<lambda_2d41944a1d46af3157314b8a01080d33>@@AEAV<lambda_8f455de75cd7d7f24b4096f044d8b9e6>@@V<lambda_aa500f224e6afead328df44964fe2772>@@@?$__crt_seh_guarded_call@X@@QEAAX$$QEAV<lambda_2d41944a1d46af3157314b8a01080d33>@@AEAV<lambda_8f455de75cd7d7f24b4096f044d8b9e6>@@$$QEAV<lambda_aa500f224e6afead328df44964fe2772>@@@Z 000000018003a75c f   libucrt:per_thread_data.obj
 0001:0003979c       ??$?RV<lambda_aa87e3671a710a21b5dc78c0bdf72e11>@@AEAV<lambda_92619d2358a28f41a33ba319515a20b9>@@V<lambda_6992ecaafeb10aed2b74cb1fae11a551>@@@?$__crt_seh_guarded_call@X@@QEAAX$$QEAV<lambda_aa87e3671a710a21b5dc78c0bdf72e11>@@AEAV<lambda_92619d2358a28f41a33ba319515a20b9>@@$$QEAV<lambda_6992ecaafeb10aed2b74cb1fae11a551>@@@Z 000000018003a79c f   libucrt:per_thread_data.obj
 0001:000397e4       ??$?RV<lambda_f2e299630e499de9f9a165e60fcd3db5>@@AEAV<lambda_2ae9d31cdba2644fcbeaf08da7c24588>@@V<lambda_40d01ff24d0e7b3814fdbdcee8eab3c7>@@@?$__crt_seh_guarded_call@X@@QEAAX$$QEAV<lambda_f2e299630e499de9f9a165e60fcd3db5>@@AEAV<lambda_2ae9d31cdba2644fcbeaf08da7c24588>@@$$QEAV<lambda_40d01ff24d0e7b3814fdbdcee8eab3c7>@@@Z 000000018003a7e4 f   libucrt:per_thread_data.obj
 0001:00039844       ?construct_ptd_array@@YAXQEAU__acrt_ptd@@@Z 000000018003a844 f   libucrt:per_thread_data.obj
 0001:00039914       ?destroy_fls@@YAXPEAX@Z    000000018003a914 f   libucrt:per_thread_data.obj
 0001:00039934       ?destroy_ptd_array@@YAXQEAU__acrt_ptd@@@Z 000000018003a934 f   libucrt:per_thread_data.obj
 0001:00039a2c       ?replace_current_thread_locale_nolock@@YAXQEAU__acrt_ptd@@QEAU__crt_locale_data@@@Z 000000018003aa2c f   libucrt:per_thread_data.obj
 0001:0003a240       ?<lambda_invoker_cdecl>@<lambda_a1ce4c8ae42411fd470c77163914f50e>@@CAHPEBX0@Z 000000018003b240 f   libucrt:argv_wildcards.obj
 0001:0003a558       ??$common_expand_argv_wildcards@D@@YAHQEAPEADQEAPEAPEAD@Z 000000018003b558 f   libucrt:argv_wildcards.obj
 0001:0003a764       ??$copy_and_add_argument_to_buffer@D@@YAHQEBD0_KAEAV?$argument_list@D@?A0x5f5c8891@@@Z 000000018003b764 f   libucrt:argv_wildcards.obj
 0001:0003a8ec       ??$expand_argument_wildcards@D@@YAHQEAD0AEAV?$argument_list@D@?A0x5f5c8891@@@Z 000000018003b8ec f   libucrt:argv_wildcards.obj
 0001:0003ae38       ??$?RV<lambda_efdfa57d1f175319df784efa44bb7b81>@@AEAV<lambda_5f0a4c1567f8adc6734073e5d1e1b35c>@@V<lambda_2e8a7d3640ea6ccb4c2413664c2db6fd>@@@?$__crt_seh_guarded_call@X@@QEAAX$$QEAV<lambda_efdfa57d1f175319df784efa44bb7b81>@@AEAV<lambda_5f0a4c1567f8adc6734073e5d1e1b35c>@@$$QEAV<lambda_2e8a7d3640ea6ccb4c2413664c2db6fd>@@@Z 000000018003be38 f   libucrt:mbctype.obj
 0001:0003aff4       ?getSystemCP@@YAHH@Z       000000018003bff4 f   libucrt:mbctype.obj
 0001:0003b074       ?setSBCS@@YAXPEAU__crt_multibyte_data@@@Z 000000018003c074 f   libucrt:mbctype.obj
 0001:0003b104       ?setSBUpLow@@YAXPEAU__crt_multibyte_data@@@Z 000000018003c104 f   libucrt:mbctype.obj
 0001:0003b2e8       ?setmbcp_internal@@YAHH_NQEAU__acrt_ptd@@QEAPEAU__crt_multibyte_data@@@Z 000000018003c2e8 f   libucrt:mbctype.obj
 0001:0003b4a8       ?update_thread_multibyte_data_internal@@YAPEAU__crt_multibyte_data@@QEAU__acrt_ptd@@QEAPEAU1@@Z 000000018003c4a8 f   libucrt:mbctype.obj
 0001:0003b898       ?x_ismbbtype_l@@YAHPEAU__crt_locale_pointers@@IHH@Z 000000018003c898 f   libucrt:ismbbyte.obj
 0001:0003bbf4       ?try_get_function@@YAPEAXW4function_id@?A0x391cf84c@@QEBDQEBW4module_id@2@2@Z 000000018003cbf4 f   libucrt:winapi_thunks.obj
 0001:0003c1b4       ?initialize_inherited_file_handles_nolock@@YAXXZ 000000018003d1b4 f   libucrt:ioinit.obj
 0001:0003c2a4       ?initialize_stdio_handles_nolock@@YAXXZ 000000018003d2a4 f   libucrt:ioinit.obj
 0001:0003c554       ??$?RV<lambda_450d765d439847d4c735a33c368b5fc0>@@AEAV<lambda_44731a7d0e6d81c3e6aa82d741081786>@@V<lambda_601a2a7da3b7a96e9554ac7215c4b07c>@@@?$__crt_seh_guarded_call@P6AXH@Z@@QEAAP6AXH@Z$$QEAV<lambda_450d765d439847d4c735a33c368b5fc0>@@AEAV<lambda_44731a7d0e6d81c3e6aa82d741081786>@@$$QEAV<lambda_601a2a7da3b7a96e9554ac7215c4b07c>@@@Z 000000018003d554 f   libucrt:signal.obj
 0001:0003c8b0       ??$?RV<lambda_842d9ff0dc9ef11c61343bbaebe7f885>@@AEAV<lambda_c5860995281e5c4ce005b3de8f5874ee>@@V<lambda_d90129c13df834fdcbf8d2b88dafcf2d>@@@?$__crt_seh_guarded_call@X@@QEAAX$$QEAV<lambda_842d9ff0dc9ef11c61343bbaebe7f885>@@AEAV<lambda_c5860995281e5c4ce005b3de8f5874ee>@@$$QEAV<lambda_d90129c13df834fdcbf8d2b88dafcf2d>@@@Z 000000018003d8b0 f   libucrt:fflush.obj
 0001:0003c94c       ??$?RV<lambda_886d6c58226a84441f68b9f2b8217b83>@@AEAV<lambda_ab61a845afdef5b7c387490eaf3616ee>@@V<lambda_f7f22ab5edc0698d5f6905b0d3f44752>@@@?$__crt_seh_guarded_call@X@@QEAAX$$QEAV<lambda_886d6c58226a84441f68b9f2b8217b83>@@AEAV<lambda_ab61a845afdef5b7c387490eaf3616ee>@@$$QEAV<lambda_f7f22ab5edc0698d5f6905b0d3f44752>@@@Z 000000018003d94c f   libucrt:fflush.obj
 0001:0003ca2c       ?common_flush_all@@YAH_N@Z 000000018003da2c f   libucrt:fflush.obj
 0001:0003d430       ?fp_format_a@@YAHQEBNPEAD_KQEAD2H_NIQEAU__crt_locale_pointers@@W4__acrt_rounding_mode@@@Z 000000018003e430 f   libucrt:cvt.obj
 0001:0003d7b0       ?fp_format_e@@YAHQEBNQEAD_K12H_NIQEAU__crt_locale_pointers@@W4__acrt_rounding_mode@@@Z 000000018003e7b0 f   libucrt:cvt.obj
 0001:0003d8a0       ?fp_format_e_internal@@YAHQEAD_KH_NIQEAU_strflt@@2QEAU__crt_locale_pointers@@@Z 000000018003e8a0 f   libucrt:cvt.obj
 0001:0003da74       ?fp_format_f_internal@@YAHQEAD_KHQEAU_strflt@@_NQEAU__crt_locale_pointers@@@Z 000000018003ea74 f   libucrt:cvt.obj
 0001:0003dbdc       ?fp_format_g@@YAHQEBNQEAD_K12H_NIW4__acrt_rounding_mode@@QEAU__crt_locale_pointers@@@Z 000000018003ebdc f   libucrt:cvt.obj
 0001:0003dd24       ?should_round_up@@YA_NQEBN_KFW4__acrt_rounding_mode@@@Z 000000018003ed24 f   libucrt:cvt.obj
 0001:0003e1b4       ??$?RV<lambda_410d79af7f07d98d83a3f525b3859a53>@@AEAV<lambda_3e16ef9562a7dcce91392c22ab16ea36>@@V<lambda_38119f0e861e05405d8a144b9b982f0a>@@@?$__crt_seh_guarded_call@X@@QEAAX$$QEAV<lambda_410d79af7f07d98d83a3f525b3859a53>@@AEAV<lambda_3e16ef9562a7dcce91392c22ab16ea36>@@$$QEAV<lambda_38119f0e861e05405d8a144b9b982f0a>@@@Z 000000018003f1b4 f   libucrt:wsetlocale.obj
 0001:0003e3a0       $$000000                   000000018003f3a0     libucrt:fpsr.obj
 0001:0003f024       fallbackMethod             0000000180040024 f   libucrt:strpbrk.obj
 0001:0003f3dc       $LN78                      00000001800403dc     libucrt:strpbrk.obj
 0001:0003f418       $LN77                      0000000180040418     libucrt:strpbrk.obj
 0001:0003f458       $LN76                      0000000180040458     libucrt:strpbrk.obj
 0001:0003f6c4       ?__acrt_LCMapStringA_stat@@YAHPEAU__crt_locale_pointers@@PEB_WKPEBDHPEADHHH@Z 00000001800406c4 f   libucrt:lcmapstringa.obj
 0001:0003fa74       ?initialize_multibyte@@YAHXZ 0000000180040a74 f   libucrt:multibyte_initializer.obj
 0001:0003ff18       ??$?RV<lambda_a37b2b86f63e897a80ea819b0eb08c01>@@AEAV<lambda_38ce7e780aa69e748d6df282ebc68efe>@@V<lambda_99fb1378e971ab6e7edea83e3a7a83a2>@@@?$__crt_seh_guarded_call@H@@QEAAH$$QEAV<lambda_a37b2b86f63e897a80ea819b0eb08c01>@@AEAV<lambda_38ce7e780aa69e748d6df282ebc68efe>@@$$QEAV<lambda_99fb1378e971ab6e7edea83e3a7a83a2>@@@Z 0000000180040f18 f   libucrt:commit.obj
 0001:00040038       ?write_double_translated_ansi_nolock@@YA?AUwrite_result@?A0x17268360@@HQEBDI@Z 0000000180041038 f   libucrt:write.obj
 0001:00040524       ?write_text_ansi_nolock@@YA?AUwrite_result@?A0x17268360@@HQEBDI@Z 0000000180041524 f   libucrt:write.obj
 0001:00040628       ?write_text_utf16le_nolock@@YA?AUwrite_result@?A0x17268360@@HQEBDI@Z 0000000180041628 f   libucrt:write.obj
 0001:00040744       ?write_text_utf8_nolock@@YA?AUwrite_result@?A0x17268360@@HQEBDI@Z 0000000180041744 f   libucrt:write.obj
 0001:00042860       memcpy_s                   0000000180043860 f   libucrt:cfout.obj
 0001:00042a74       ?free_crt_array_internal@@YAXQEAPEBX_K@Z 0000000180043a74 f   libucrt:inittime.obj
 0001:00042c40       ??$common_lseek_nolock@_J@@YA_JH_JH@Z 0000000180043c40 f   libucrt:lseek.obj
 0001:000431d0       $$000000                   00000001800441d0     libucrt:log10.obj
 0001:00043bcc       ??$?RV<lambda_751a882b2c74d4b022dec766aa51a29a>@@AEAV<lambda_628dfdc04ba53c8bfc02c9951375f3f5>@@V<lambda_f6c7be5f7998530c34de24c7437d6b54>@@@?$__crt_seh_guarded_call@H@@QEAAH$$QEAV<lambda_751a882b2c74d4b022dec766aa51a29a>@@AEAV<lambda_628dfdc04ba53c8bfc02c9951375f3f5>@@$$QEAV<lambda_f6c7be5f7998530c34de24c7437d6b54>@@@Z 0000000180044bcc f   libucrt:close.obj
 0001:00043e38       common_control87           0000000180044e38 f   libucrt:ieee.obj
 0001:00044120       _log_special_common        0000000180045120 f   libucrt:log_special.obj
 0001:00044310       $$000000                   0000000180045310     LIBCMT:amdsecgs.obj
 0001:00044580       capture_current_context    0000000180045580 f   LIBCMT:gs_report.obj
 0001:000445f0       capture_previous_context   00000001800455f0 f   LIBCMT:gs_report.obj
 0001:000447a0       $$000000                   00000001800457a0     libvcruntime:memcmp.obj
 0001:00044880       $$000000                   0000000180045880     LIBCMT:guard_dispatch.obj
 0001:000448a0       $$000000                   00000001800458a0     LIBCMT:guard_xfg_dispatch.obj
 0001:000448c0       ?fin$0@?0??dllmain_crt_process_attach@@YAHQEAUHINSTANCE__@@QEAX@Z@4HA 00000001800458c0 f   LIBCMT:dll_dllmain.obj
 0001:000448d7       ?fin$0@?0??dllmain_crt_process_detach@@YAH_N@Z@4HA 00000001800458d7 f   LIBCMT:dll_dllmain.obj
 0001:000448f0       ?fin$1@?0??dllmain_crt_process_detach@@YAH_N@Z@4HA 00000001800458f0 f   LIBCMT:dll_dllmain.obj
 0001:00044904       ?filt$0@?0??dllmain_dispatch@@YAHQEAUHINSTANCE__@@KQEAX@Z@4HA 0000000180045904 f   LIBCMT:dll_dllmain.obj
 0001:0004493a       __scrt_is_nonwritable_in_current_image$filt$0 000000018004593a f   LIBCMT:utility.obj
 0001:00044952       __DestructExceptionObject$filt$0 0000000180045952 f   libvcruntime:ehhelpers.obj
 0001:000449e8       ?dtor$0@?0??getDecoratedName@UnDecorator@@CA?AVDName@@XZ@4HA 00000001800459e8 f   libvcruntime:undname.obj
 0001:000449f4       __unDNameEx$fin$0          00000001800459f4 f   libvcruntime:undname.obj
 0001:00044a0a       ?filt$0@?0???$_CallSETranslator@V__FrameHandler4@@@@YAHPEAUEHExceptionRecord@@PEA_KPEAU_CONTEXT@@PEAU_xDISPATCHER_CONTEXT@@PEAUFuncInfo4@FH4@@K1H@Z@4HA 0000000180045a0a f   libvcruntime:risctrnsctrl.obj
 0001:00044abb       ?filt$0@?0??CxxCallCatchBlock@__FrameHandler4@@SAPEAXPEAU_EXCEPTION_RECORD@@@Z@4HA 0000000180045abb f   libvcruntime:frame.obj
 0001:00044aea       ?fin$1@?0??CxxCallCatchBlock@__FrameHandler4@@SAPEAXPEAU_EXCEPTION_RECORD@@@Z@4HA 0000000180045aea f   libvcruntime:frame.obj
 0001:00044b7b       ?filt$0@?0??FrameUnwindToState@__FrameHandler4@@SAXPEA_KPEAU_xDISPATCHER_CONTEXT@@PEAUFuncInfo4@FH4@@H@Z@4HA 0000000180045b7b f   libvcruntime:frame.obj
 0001:00044b91       ?fin$1@?0??FrameUnwindToState@__FrameHandler4@@SAXPEA_KPEAU_xDISPATCHER_CONTEXT@@PEAUFuncInfo4@FH4@@H@Z@4HA 0000000180045b91 f   libvcruntime:frame.obj
 0001:00044bb4       ?fin$0@?0???$?RV<lambda_0ae27a3a962d80f24befdcbee591983d>@@AEAV<lambda_8d0ee55de4b1038c4002e0adecdf1839>@@V<lambda_dc504788e8f1664fe9b84e20bfb512f2>@@@?$__crt_seh_guarded_call@X@@QEAAX$$QEAV<lambda_0ae27a3a962d80f24befdcbee591983d>@@AEAV<lambda_8d0ee55de4b1038c4002e0adecdf1839>@@$$QEAV<lambda_dc504788e8f1664fe9b84e20bfb512f2>@@@Z@4HA 0000000180045bb4 f   libucrt:per_thread_data.obj
 0001:00044bb4       ?fin$0@?0???$?RV<lambda_2d41944a1d46af3157314b8a01080d33>@@AEAV<lambda_8f455de75cd7d7f24b4096f044d8b9e6>@@V<lambda_aa500f224e6afead328df44964fe2772>@@@?$__crt_seh_guarded_call@X@@QEAAX$$QEAV<lambda_2d41944a1d46af3157314b8a01080d33>@@AEAV<lambda_8f455de75cd7d7f24b4096f044d8b9e6>@@$$QEAV<lambda_aa500f224e6afead328df44964fe2772>@@@Z@4HA 0000000180045bb4 f   libucrt:per_thread_data.obj
 0001:00044bb4       ?fin$0@?0???$?RV<lambda_aa87e3671a710a21b5dc78c0bdf72e11>@@AEAV<lambda_92619d2358a28f41a33ba319515a20b9>@@V<lambda_6992ecaafeb10aed2b74cb1fae11a551>@@@?$__crt_seh_guarded_call@X@@QEAAX$$QEAV<lambda_aa87e3671a710a21b5dc78c0bdf72e11>@@AEAV<lambda_92619d2358a28f41a33ba319515a20b9>@@$$QEAV<lambda_6992ecaafeb10aed2b74cb1fae11a551>@@@Z@4HA 0000000180045bb4 f   libucrt:per_thread_data.obj
 0001:00044bb4       ?fin$0@?0???$?RV<lambda_f2e299630e499de9f9a165e60fcd3db5>@@AEAV<lambda_2ae9d31cdba2644fcbeaf08da7c24588>@@V<lambda_40d01ff24d0e7b3814fdbdcee8eab3c7>@@@?$__crt_seh_guarded_call@X@@QEAAX$$QEAV<lambda_f2e299630e499de9f9a165e60fcd3db5>@@AEAV<lambda_2ae9d31cdba2644fcbeaf08da7c24588>@@$$QEAV<lambda_40d01ff24d0e7b3814fdbdcee8eab3c7>@@@Z@4HA 0000000180045bb4 f   libucrt:per_thread_data.obj
 0001:00044bb4       ?fin$0@?0???$?RV<lambda_efdfa57d1f175319df784efa44bb7b81>@@AEAV<lambda_5f0a4c1567f8adc6734073e5d1e1b35c>@@V<lambda_2e8a7d3640ea6ccb4c2413664c2db6fd>@@@?$__crt_seh_guarded_call@X@@QEAAX$$QEAV<lambda_efdfa57d1f175319df784efa44bb7b81>@@AEAV<lambda_5f0a4c1567f8adc6734073e5d1e1b35c>@@$$QEAV<lambda_2e8a7d3640ea6ccb4c2413664c2db6fd>@@@Z@4HA 0000000180045bb4 f   libucrt:mbctype.obj
 0001:00044bb4       ?fin$0@?0???$?RV<lambda_450d765d439847d4c735a33c368b5fc0>@@AEAV<lambda_44731a7d0e6d81c3e6aa82d741081786>@@V<lambda_601a2a7da3b7a96e9554ac7215c4b07c>@@@?$__crt_seh_guarded_call@P6AXH@Z@@QEAAP6AXH@Z$$QEAV<lambda_450d765d439847d4c735a33c368b5fc0>@@AEAV<lambda_44731a7d0e6d81c3e6aa82d741081786>@@$$QEAV<lambda_601a2a7da3b7a96e9554ac7215c4b07c>@@@Z@4HA 0000000180045bb4 f   libucrt:signal.obj
 0001:00044bb4       ?fin$0@?0???$?RV<lambda_d80eeec6fff315bfe5c115232f3240e3>@@AEAV<lambda_6e4b09c48022b2350581041d5f6b0c4c>@@V<lambda_2358e3775559c9db80273638284d5e45>@@@?$__crt_seh_guarded_call@X@@QEAAX$$QEAV<lambda_d80eeec6fff315bfe5c115232f3240e3>@@AEAV<lambda_6e4b09c48022b2350581041d5f6b0c4c>@@$$QEAV<lambda_2358e3775559c9db80273638284d5e45>@@@Z@4HA 0000000180045bb4 f   libucrt:exit.obj
 0001:00044bb4       ?fin$0@?0???$?RV<lambda_7777bce6b2f8c936911f934f8298dc43>@@AEAV<lambda_f03950bc5685219e0bcd2087efbe011e>@@V<lambda_3883c3dff614d5e0c5f61bb1ac94921c>@@@?$__crt_seh_guarded_call@H@@QEAAH$$QEAV<lambda_7777bce6b2f8c936911f934f8298dc43>@@AEAV<lambda_f03950bc5685219e0bcd2087efbe011e>@@$$QEAV<lambda_3883c3dff614d5e0c5f61bb1ac94921c>@@@Z@4HA 0000000180045bb4 f   libucrt:onexit.obj
 0001:00044bce       ?filt$0@?0???R<lambda_6e4b09c48022b2350581041d5f6b0c4c>@@QEBA@XZ@4HA 0000000180045bce f   libucrt:exit.obj
 0001:00044be9       _ctrlfp$filt$0             0000000180045be9 f   libucrt:fpctrl.obj
 0001:00044be9       common_control87$filt$0    0000000180045be9 f   libucrt:ieee.obj
 0001:00044c15       ?fin$0@?0??update_thread_multibyte_data_internal@@YAPEAU__crt_multibyte_data@@QEAU__acrt_ptd@@QEAPEAU1@@Z@4HA 0000000180045c15 f   libucrt:mbctype.obj
 0001:00044c2e       __acrt_initialize_lowio$fin$0 0000000180045c2e f   libucrt:ioinit.obj
 0001:00044c2e       __acrt_lowio_ensure_fh_exists$fin$0 0000000180045c2e f   libucrt:osfinfo.obj
 0001:00044c47       _query_new_handler$fin$0   0000000180045c47 f   libucrt:new_handler.obj
 0001:00044c5d       raise$fin$0                0000000180045c5d f   libucrt:signal.obj
 0001:00044c7e       ?fin$0@?0???$?RV<lambda_842d9ff0dc9ef11c61343bbaebe7f885>@@AEAV<lambda_c5860995281e5c4ce005b3de8f5874ee>@@V<lambda_d90129c13df834fdcbf8d2b88dafcf2d>@@@?$__crt_seh_guarded_call@X@@QEAAX$$QEAV<lambda_842d9ff0dc9ef11c61343bbaebe7f885>@@AEAV<lambda_c5860995281e5c4ce005b3de8f5874ee>@@$$QEAV<lambda_d90129c13df834fdcbf8d2b88dafcf2d>@@@Z@4HA 0000000180045c7e f   libucrt:fflush.obj
 0001:00044c99       ?fin$0@?0???$?RV<lambda_886d6c58226a84441f68b9f2b8217b83>@@AEAV<lambda_ab61a845afdef5b7c387490eaf3616ee>@@V<lambda_f7f22ab5edc0698d5f6905b0d3f44752>@@@?$__crt_seh_guarded_call@X@@QEAAX$$QEAV<lambda_886d6c58226a84441f68b9f2b8217b83>@@AEAV<lambda_ab61a845afdef5b7c387490eaf3616ee>@@$$QEAV<lambda_f7f22ab5edc0698d5f6905b0d3f44752>@@@Z@4HA 0000000180045c99 f   libucrt:fflush.obj
 0001:00044cb6       ?fin$0@?0???$?RV<lambda_410d79af7f07d98d83a3f525b3859a53>@@AEAV<lambda_3e16ef9562a7dcce91392c22ab16ea36>@@V<lambda_38119f0e861e05405d8a144b9b982f0a>@@@?$__crt_seh_guarded_call@X@@QEAAX$$QEAV<lambda_410d79af7f07d98d83a3f525b3859a53>@@AEAV<lambda_3e16ef9562a7dcce91392c22ab16ea36>@@$$QEAV<lambda_38119f0e861e05405d8a144b9b982f0a>@@@Z@4HA 0000000180045cb6 f   libucrt:wsetlocale.obj
 0001:00044cd0       __acrt_update_thread_locale_data$fin$0 0000000180045cd0 f   libucrt:locale_refcounting.obj
 0001:00044ce9       ?fin$0@?0???$?RV<lambda_751a882b2c74d4b022dec766aa51a29a>@@AEAV<lambda_628dfdc04ba53c8bfc02c9951375f3f5>@@V<lambda_f6c7be5f7998530c34de24c7437d6b54>@@@?$__crt_seh_guarded_call@H@@QEAAH$$QEAV<lambda_751a882b2c74d4b022dec766aa51a29a>@@AEAV<lambda_628dfdc04ba53c8bfc02c9951375f3f5>@@$$QEAV<lambda_f6c7be5f7998530c34de24c7437d6b54>@@@Z@4HA 0000000180045ce9 f   libucrt:close.obj
 0001:00044ce9       ?fin$0@?0???$?RV<lambda_a37b2b86f63e897a80ea819b0eb08c01>@@AEAV<lambda_38ce7e780aa69e748d6df282ebc68efe>@@V<lambda_99fb1378e971ab6e7edea83e3a7a83a2>@@@?$__crt_seh_guarded_call@H@@QEAAH$$QEAV<lambda_a37b2b86f63e897a80ea819b0eb08c01>@@AEAV<lambda_38ce7e780aa69e748d6df282ebc68efe>@@$$QEAV<lambda_99fb1378e971ab6e7edea83e3a7a83a2>@@@Z@4HA 0000000180045ce9 f   libucrt:commit.obj
 0001:00044d03       _write$fin$0               0000000180045d03 f   libucrt:write.obj
 0001:00044d1a       _fcloseall$fin$0           0000000180045d1a f   libucrt:closeall.obj
 0001:00044d33       fclose$fin$0               0000000180045d33 f   libucrt:fclose.obj
 0001:00044d50       _IsNonwritableInCurrentImage$filt$0 0000000180045d50 f   LIBCMT:pesect.obj
 0002:00000298       ?minFError$initializer$@_VecMathTests@aos@shdfnd@physx@@3P6AXXZEA 0000000180046298     Cooking.obj
 0002:000002a0       ?maxFError$initializer$@_VecMathTests@aos@shdfnd@physx@@3P6AXXZEA 00000001800462a0     Cooking.obj
 0002:000002a8       ?minV3Error$initializer$@_VecMathTests@aos@shdfnd@physx@@3P6AXXZEA 00000001800462a8     Cooking.obj
 0002:000002b0       ?maxV3Error$initializer$@_VecMathTests@aos@shdfnd@physx@@3P6AXXZEA 00000001800462b0     Cooking.obj
 0002:000002b8       ?minV4Error$initializer$@_VecMathTests@aos@shdfnd@physx@@3P6AXXZEA 00000001800462b8     Cooking.obj
 0002:000002c0       ?maxV4Error$initializer$@_VecMathTests@aos@shdfnd@physx@@3P6AXXZEA 00000001800462c0     Cooking.obj
 0002:000002c8       ?minFError$initializer$@_VecMathTests@aos@shdfnd@physx@@3P6AXXZEA 00000001800462c8     BVHStructureBuilder.obj
 0002:000002d0       ?maxFError$initializer$@_VecMathTests@aos@shdfnd@physx@@3P6AXXZEA 00000001800462d0     BVHStructureBuilder.obj
 0002:000002d8       ?minV3Error$initializer$@_VecMathTests@aos@shdfnd@physx@@3P6AXXZEA 00000001800462d8     BVHStructureBuilder.obj
 0002:000002e0       ?maxV3Error$initializer$@_VecMathTests@aos@shdfnd@physx@@3P6AXXZEA 00000001800462e0     BVHStructureBuilder.obj
 0002:000002e8       ?minV4Error$initializer$@_VecMathTests@aos@shdfnd@physx@@3P6AXXZEA 00000001800462e8     BVHStructureBuilder.obj
 0002:000002f0       ?maxV4Error$initializer$@_VecMathTests@aos@shdfnd@physx@@3P6AXXZEA 00000001800462f0     BVHStructureBuilder.obj
 0002:000002f8       ?minFError$initializer$@_VecMathTests@aos@shdfnd@physx@@3P6AXXZEA 00000001800462f8     RTreeCooking.obj
 0002:00000300       ?maxFError$initializer$@_VecMathTests@aos@shdfnd@physx@@3P6AXXZEA 0000000180046300     RTreeCooking.obj
 0002:00000308       ?minV3Error$initializer$@_VecMathTests@aos@shdfnd@physx@@3P6AXXZEA 0000000180046308     RTreeCooking.obj
 0002:00000310       ?maxV3Error$initializer$@_VecMathTests@aos@shdfnd@physx@@3P6AXXZEA 0000000180046310     RTreeCooking.obj
 0002:00000318       ?minV4Error$initializer$@_VecMathTests@aos@shdfnd@physx@@3P6AXXZEA 0000000180046318     RTreeCooking.obj
 0002:00000320       ?maxV4Error$initializer$@_VecMathTests@aos@shdfnd@physx@@3P6AXXZEA 0000000180046320     RTreeCooking.obj
 0002:00000328       ?minFError$initializer$@_VecMathTests@aos@shdfnd@physx@@3P6AXXZEA 0000000180046328     MeshBuilder.obj
 0002:00000330       ?maxFError$initializer$@_VecMathTests@aos@shdfnd@physx@@3P6AXXZEA 0000000180046330     MeshBuilder.obj
 0002:00000338       ?minV3Error$initializer$@_VecMathTests@aos@shdfnd@physx@@3P6AXXZEA 0000000180046338     MeshBuilder.obj
 0002:00000340       ?maxV3Error$initializer$@_VecMathTests@aos@shdfnd@physx@@3P6AXXZEA 0000000180046340     MeshBuilder.obj
 0002:00000348       ?minV4Error$initializer$@_VecMathTests@aos@shdfnd@physx@@3P6AXXZEA 0000000180046348     MeshBuilder.obj
 0002:00000350       ?maxV4Error$initializer$@_VecMathTests@aos@shdfnd@physx@@3P6AXXZEA 0000000180046350     MeshBuilder.obj
 0002:00000358       ?minFError$initializer$@_VecMathTests@aos@shdfnd@physx@@3P6AXXZEA 0000000180046358     TriangleMeshBuilder.obj
 0002:00000360       ?maxFError$initializer$@_VecMathTests@aos@shdfnd@physx@@3P6AXXZEA 0000000180046360     TriangleMeshBuilder.obj
 0002:00000368       ?minV3Error$initializer$@_VecMathTests@aos@shdfnd@physx@@3P6AXXZEA 0000000180046368     TriangleMeshBuilder.obj
 0002:00000370       ?maxV3Error$initializer$@_VecMathTests@aos@shdfnd@physx@@3P6AXXZEA 0000000180046370     TriangleMeshBuilder.obj
 0002:00000378       ?minV4Error$initializer$@_VecMathTests@aos@shdfnd@physx@@3P6AXXZEA 0000000180046378     TriangleMeshBuilder.obj
 0002:00000380       ?maxV4Error$initializer$@_VecMathTests@aos@shdfnd@physx@@3P6AXXZEA 0000000180046380     TriangleMeshBuilder.obj
 0002:00000388       ?minFError$initializer$@_VecMathTests@aos@shdfnd@physx@@3P6AXXZEA 0000000180046388     BigConvexDataBuilder.obj
 0002:00000390       ?maxFError$initializer$@_VecMathTests@aos@shdfnd@physx@@3P6AXXZEA 0000000180046390     BigConvexDataBuilder.obj
 0002:00000398       ?minV3Error$initializer$@_VecMathTests@aos@shdfnd@physx@@3P6AXXZEA 0000000180046398     BigConvexDataBuilder.obj
 0002:000003a0       ?maxV3Error$initializer$@_VecMathTests@aos@shdfnd@physx@@3P6AXXZEA 00000001800463a0     BigConvexDataBuilder.obj
 0002:000003a8       ?minV4Error$initializer$@_VecMathTests@aos@shdfnd@physx@@3P6AXXZEA 00000001800463a8     BigConvexDataBuilder.obj
 0002:000003b0       ?maxV4Error$initializer$@_VecMathTests@aos@shdfnd@physx@@3P6AXXZEA 00000001800463b0     BigConvexDataBuilder.obj
 0002:000003b8       ?minFError$initializer$@_VecMathTests@aos@shdfnd@physx@@3P6AXXZEA 00000001800463b8     ConvexHullBuilder.obj
 0002:000003c0       ?maxFError$initializer$@_VecMathTests@aos@shdfnd@physx@@3P6AXXZEA 00000001800463c0     ConvexHullBuilder.obj
 0002:000003c8       ?minV3Error$initializer$@_VecMathTests@aos@shdfnd@physx@@3P6AXXZEA 00000001800463c8     ConvexHullBuilder.obj
 0002:000003d0       ?maxV3Error$initializer$@_VecMathTests@aos@shdfnd@physx@@3P6AXXZEA 00000001800463d0     ConvexHullBuilder.obj
 0002:000003d8       ?minV4Error$initializer$@_VecMathTests@aos@shdfnd@physx@@3P6AXXZEA 00000001800463d8     ConvexHullBuilder.obj
 0002:000003e0       ?maxV4Error$initializer$@_VecMathTests@aos@shdfnd@physx@@3P6AXXZEA 00000001800463e0     ConvexHullBuilder.obj
 0002:000003e8       ?minFError$initializer$@_VecMathTests@aos@shdfnd@physx@@3P6AXXZEA 00000001800463e8     ConvexHullUtils.obj
 0002:000003f0       ?maxFError$initializer$@_VecMathTests@aos@shdfnd@physx@@3P6AXXZEA 00000001800463f0     ConvexHullUtils.obj
 0002:000003f8       ?minV3Error$initializer$@_VecMathTests@aos@shdfnd@physx@@3P6AXXZEA 00000001800463f8     ConvexHullUtils.obj
 0002:00000400       ?maxV3Error$initializer$@_VecMathTests@aos@shdfnd@physx@@3P6AXXZEA 0000000180046400     ConvexHullUtils.obj
 0002:00000408       ?minV4Error$initializer$@_VecMathTests@aos@shdfnd@physx@@3P6AXXZEA 0000000180046408     ConvexHullUtils.obj
 0002:00000410       ?maxV4Error$initializer$@_VecMathTests@aos@shdfnd@physx@@3P6AXXZEA 0000000180046410     ConvexHullUtils.obj
 0002:00000418       ?minFError$initializer$@_VecMathTests@aos@shdfnd@physx@@3P6AXXZEA 0000000180046418     ConvexMeshBuilder.obj
 0002:00000420       ?maxFError$initializer$@_VecMathTests@aos@shdfnd@physx@@3P6AXXZEA 0000000180046420     ConvexMeshBuilder.obj
 0002:00000428       ?minV3Error$initializer$@_VecMathTests@aos@shdfnd@physx@@3P6AXXZEA 0000000180046428     ConvexMeshBuilder.obj
 0002:00000430       ?maxV3Error$initializer$@_VecMathTests@aos@shdfnd@physx@@3P6AXXZEA 0000000180046430     ConvexMeshBuilder.obj
 0002:00000438       ?minV4Error$initializer$@_VecMathTests@aos@shdfnd@physx@@3P6AXXZEA 0000000180046438     ConvexMeshBuilder.obj
 0002:00000440       ?maxV4Error$initializer$@_VecMathTests@aos@shdfnd@physx@@3P6AXXZEA 0000000180046440     ConvexMeshBuilder.obj
 0002:00000448       ?minFError$initializer$@_VecMathTests@aos@shdfnd@physx@@3P6AXXZEA 0000000180046448     VolumeIntegration.obj
 0002:00000450       ?maxFError$initializer$@_VecMathTests@aos@shdfnd@physx@@3P6AXXZEA 0000000180046450     VolumeIntegration.obj
 0002:00000458       ?minV3Error$initializer$@_VecMathTests@aos@shdfnd@physx@@3P6AXXZEA 0000000180046458     VolumeIntegration.obj
 0002:00000460       ?maxV3Error$initializer$@_VecMathTests@aos@shdfnd@physx@@3P6AXXZEA 0000000180046460     VolumeIntegration.obj
 0002:00000468       ?minV4Error$initializer$@_VecMathTests@aos@shdfnd@physx@@3P6AXXZEA 0000000180046468     VolumeIntegration.obj
 0002:00000470       ?maxV4Error$initializer$@_VecMathTests@aos@shdfnd@physx@@3P6AXXZEA 0000000180046470     VolumeIntegration.obj
 0002:00000600       ?minus1w@?A0x06044d65@aos@shdfnd@physx@@3QBMB 0000000180046600     Cooking.obj
 0002:00000610       ?gMaskXYZ@internalWindowsSimd@aos@shdfnd@physx@@3QBIB 0000000180046610     Cooking.obj
 0002:00000d80       ?minus1w@?A0xe726b390@aos@shdfnd@physx@@3QBMB 0000000180046d80     BVHStructureBuilder.obj
 0002:00000d90       ?gMaskXYZ@internalWindowsSimd@aos@shdfnd@physx@@3QBIB 0000000180046d90     BVHStructureBuilder.obj
 0002:00000e10       ?gMaskXYZ@internalWindowsSimd@aos@shdfnd@physx@@3QBIB 0000000180046e10     RTreeCooking.obj
 0002:00000e60       ?minus1w@?A0x4e94effc@aos@shdfnd@physx@@3QBMB 0000000180046e60     RTreeCooking.obj
 0002:00000e70       ?stopAtTrisPerPage@physx@@3QBIB 0000000180046e70     RTreeCooking.obj
 0002:00000eb0       ?stopAtTrisPerLeaf@physx@@3QBIB 0000000180046eb0     RTreeCooking.obj
 0002:00001060       ?minus1w@?A0xc13ff399@aos@shdfnd@physx@@3QBMB 0000000180047060     MeshBuilder.obj
 0002:00001070       ?gMaskXYZ@internalWindowsSimd@aos@shdfnd@physx@@3QBIB 0000000180047070     MeshBuilder.obj
 0002:00001090       ?minus1w@?A0x9ba3294e@aos@shdfnd@physx@@3QBMB 0000000180047090     TriangleMeshBuilder.obj
 0002:000010a0       ?gMaskXYZ@internalWindowsSimd@aos@shdfnd@physx@@3QBIB 00000001800470a0     TriangleMeshBuilder.obj
 0002:00001460       ?minus1w@?A0x69edf062@aos@shdfnd@physx@@3QBMB 0000000180047460     BigConvexDataBuilder.obj
 0002:00001470       ?gMaskXYZ@internalWindowsSimd@aos@shdfnd@physx@@3QBIB 0000000180047470     BigConvexDataBuilder.obj
 0002:000014f0       ?minus1w@?A0x7f54a792@aos@shdfnd@physx@@3QBMB 00000001800474f0     ConvexHullBuilder.obj
 0002:00001500       ?gMaskXYZ@internalWindowsSimd@aos@shdfnd@physx@@3QBIB 0000000180047500     ConvexHullBuilder.obj
 0002:00001980       ?minus1w@?A0x98ca41d0@aos@shdfnd@physx@@3QBMB 0000000180047980     ConvexHullUtils.obj
 0002:00001990       ?gMaskXYZ@internalWindowsSimd@aos@shdfnd@physx@@3QBIB 0000000180047990     ConvexHullUtils.obj
 0002:00001a30       ?minus1w@?A0xb1f007c7@aos@shdfnd@physx@@3QBMB 0000000180047a30     ConvexMeshBuilder.obj
 0002:00001a40       ?gMaskXYZ@internalWindowsSimd@aos@shdfnd@physx@@3QBIB 0000000180047a40     ConvexMeshBuilder.obj
 0002:00001fb0       ?minus1w@?A0xfebab4b6@aos@shdfnd@physx@@3QBMB 0000000180047fb0     VolumeIntegration.obj
 0002:00001fc0       ?gMaskXYZ@internalWindowsSimd@aos@shdfnd@physx@@3QBIB 0000000180047fc0     VolumeIntegration.obj
 0002:00002140       L_abs_mask                 0000000180048140     LIBCMT:svml_ssinf4_dispatch.obj
 0002:00002150       L_real_one                 0000000180048150     LIBCMT:svml_ssinf4_dispatch.obj
 0002:00002160       L_one_half                 0000000180048160     LIBCMT:svml_ssinf4_dispatch.obj
 0002:00002170       L_two_to_neg_13            0000000180048170     LIBCMT:svml_ssinf4_dispatch.obj
 0002:00002180       L_pi_over_two              0000000180048180     LIBCMT:svml_ssinf4_dispatch.obj
 0002:00002190       L_pi_over_two2             0000000180048190     LIBCMT:svml_ssinf4_dispatch.obj
 0002:00002310       ?tokenTable@@3QBUStringLiteral@@B 0000000180048310     libvcruntime:undname.obj
 0002:00002420       ?nameTable@@3QBUStringLiteral@@B 0000000180048420     libvcruntime:undname.obj
 0002:00002950       ?rttiTable@@3QBUStringLiteral@@B 0000000180048950     libvcruntime:undname.obj
 0002:000029a0       ?IndirectionName@@3QBUStringLiteral@@B 00000001800489a0     libvcruntime:undname.obj
 0002:00002a00       ?PrefixName@@3QBUStringLiteral@@B 0000000180048a00     libvcruntime:undname.obj
 0002:00003660       ?result@?1??IsValidIdentChar@@YA_ND@Z@4U<unnamed-type-result>@?1??InitValidIdentChar@@YA@XZ@B 0000000180049660     libvcruntime:undname.obj
 0002:000037d0       ?ExceptionTemplate@?1??UnwindNestedFrames@__FrameHandler4@@SAXPEA_KPEAUEHExceptionRecord@@PEAU_CONTEXT@@0PEAXPEAUFuncInfo4@FH4@@HHPEAUHandlerType4@6@PEAU_xDISPATCHER_CONTEXT@@E@Z@4U_EXCEPTION_RECORD@@B 00000001800497d0     libvcruntime:risctrnsctrl.obj
 0002:00003868       ?module_names@?A0x14174aea@@3QBQEB_WB 0000000180049868     libvcruntime:winapi_downlevel.obj
 0002:00003928       ?candidate_modules@?1??try_get_FlsAlloc@@YAP6AKP6AXPEAX@Z@ZXZ@4QBW4module_id@?A0x14174aea@@B 0000000180049928     libvcruntime:winapi_downlevel.obj
 0002:00003940       ?candidate_modules@?1??try_get_FlsFree@@YAP6AHK@ZXZ@4QBW4module_id@?A0x14174aea@@B 0000000180049940     libvcruntime:winapi_downlevel.obj
 0002:00003950       ?candidate_modules@?1??try_get_FlsGetValue@@YAP6APEAXK@ZXZ@4QBW4module_id@?A0x14174aea@@B 0000000180049950     libvcruntime:winapi_downlevel.obj
 0002:00003968       ?candidate_modules@?1??try_get_FlsSetValue@@YAP6AHKPEAX@ZXZ@4QBW4module_id@?A0x14174aea@@B 0000000180049968     libvcruntime:winapi_downlevel.obj
 0002:00003980       ?candidate_modules@?1??try_get_InitializeCriticalSectionEx@@YAP6AHPEAU_RTL_CRITICAL_SECTION@@KK@ZXZ@4QBW4module_id@?A0x14174aea@@B 0000000180049980     libvcruntime:winapi_downlevel.obj
 0002:00003a00       ?atan_jby256@?1??atan2f@@9@9 0000000180049a00     libucrt:atan2f.obj
 0002:00004200       L_real_one                 000000018004a200     libucrt:cosf.obj
 0002:00004210       L_one_half                 000000018004a210     libucrt:cosf.obj
 0002:00004220       L_2bypi                    000000018004a220     libucrt:cosf.obj
 0002:00004230       L_one_sixth                000000018004a230     libucrt:cosf.obj
 0002:00004240       L_piby2                    000000018004a240     libucrt:cosf.obj
 0002:00004250       L_piby2_1                  000000018004a250     libucrt:cosf.obj
 0002:00004260       L_piby2_1tail              000000018004a260     libucrt:cosf.obj
 0002:00004270       L_piby2_2                  000000018004a270     libucrt:cosf.obj
 0002:00004280       L_piby2_2tail              000000018004a280     libucrt:cosf.obj
 0002:00004290       L_large_x_sse2             000000018004a290     libucrt:cosf.obj
 0002:000042a0       L_large_x_fma3             000000018004a2a0     libucrt:cosf.obj
 0002:000042b0       L_sign_mask                000000018004a2b0     libucrt:cosf.obj
 0002:000042c0       L__int_three               000000018004a2c0     libucrt:cosf.obj
 0002:000042d0       L__min_norm_double         000000018004a2d0     libucrt:cosf.obj
 0002:000042e0       L_two_to_neg_7             000000018004a2e0     libucrt:cosf.obj
 0002:000042f0       L_two_to_neg_13            000000018004a2f0     libucrt:cosf.obj
 0002:00004300       L_two_to_32_float          000000018004a300     libucrt:cosf.obj
 0002:00004308       L_one_float                000000018004a308     libucrt:cosf.obj
 0002:00004310       L_inf_mask_32              000000018004a310     libucrt:cosf.obj
 0002:00004320       L_signbit                  000000018004a320     libucrt:sinf.obj
 0002:00004330       L_sign_mask                000000018004a330     libucrt:sinf.obj
 0002:00004340       L_one                      000000018004a340     libucrt:sinf.obj
 0002:00004350       L_int_three                000000018004a350     libucrt:sinf.obj
 0002:00004360       L_one_half                 000000018004a360     libucrt:sinf.obj
 0002:00004370       L_twobypi                  000000018004a370     libucrt:sinf.obj
 0002:00004380       L_piby2_1                  000000018004a380     libucrt:sinf.obj
 0002:00004390       L_one_sixth                000000018004a390     libucrt:sinf.obj
 0002:000043a0       L_piby2_1tail              000000018004a3a0     libucrt:sinf.obj
 0002:000043b0       L_piby2_2                  000000018004a3b0     libucrt:sinf.obj
 0002:000043c0       L_piby2_2tail              000000018004a3c0     libucrt:sinf.obj
 0002:000043d0       L_inf_mask_32              000000018004a3d0     libucrt:sinf.obj
 0002:000043e0       L_int_two                  000000018004a3e0     libucrt:sinf.obj
 0002:000043f0       L_piby2_lead               000000018004a3f0     libucrt:sinf.obj
 0002:00004400       L_piby4                    000000018004a400     libucrt:sinf.obj
 0002:00004410       L_mask_3f2                 000000018004a410     libucrt:sinf.obj
 0002:00004420       L_mask_3f8                 000000018004a420     libucrt:sinf.obj
 0002:00004430       L_large_x_fma3             000000018004a430     libucrt:sinf.obj
 0002:00004438       L_large_x_sse2             000000018004a438     libucrt:sinf.obj
 0002:00004440       L_near_one                 000000018004a440     libucrt:sinf.obj
 0002:00004448       L_two_to_32                000000018004a448     libucrt:sinf.obj
 0002:00004550       __acrt_initializers        000000018004a550     libucrt:initialization.obj
 0002:00004e70       L__piby2                   000000018004ae70     libucrt:remainder_piby2f_forasm.obj
 0002:00004e80       L_piby2_lead               000000018004ae80     libucrt:remainder_piby2_forfma3.obj
 0002:00004e90       L_fff800                   000000018004ae90     libucrt:remainder_piby2_forfma3.obj
 0002:00004ea0       L_piby2_part1              000000018004aea0     libucrt:remainder_piby2_forfma3.obj
 0002:00004eb0       L_piby2_part2              000000018004aeb0     libucrt:remainder_piby2_forfma3.obj
 0002:00004ec0       L_piby2_part3              000000018004aec0     libucrt:remainder_piby2_forfma3.obj
 0002:00004ed0       L_piby2_1                  000000018004aed0     libucrt:remainder_piby2_forfma3.obj
 0002:00004ee0       L_piby2_2                  000000018004aee0     libucrt:remainder_piby2_forfma3.obj
 0002:00004ef0       L_piby2_3                  000000018004aef0     libucrt:remainder_piby2_forfma3.obj
 0002:00004f00       L_piby2_1tail              000000018004af00     libucrt:remainder_piby2_forfma3.obj
 0002:00004f10       L_piby2_2tail              000000018004af10     libucrt:remainder_piby2_forfma3.obj
 0002:00004f20       L_piby2_3tail              000000018004af20     libucrt:remainder_piby2_forfma3.obj
 0002:00004f30       L_sign_mask                000000018004af30     libucrt:remainder_piby2_forfma3.obj
 0002:00004f40       L_twobypi                  000000018004af40     libucrt:remainder_piby2_forfma3.obj
 0002:00004f50       L_point_five               000000018004af50     libucrt:remainder_piby2_forfma3.obj
 0002:00004f60       L_int_three                000000018004af60     libucrt:remainder_piby2_forfma3.obj
 0002:00004f70       L_inf_mask_64              000000018004af70     libucrt:remainder_piby2_forfma3.obj
 0002:00004f80       L_signbit                  000000018004af80     libucrt:remainder_piby2_forfma3.obj
 0002:00004f90       L_r                        000000018004af90     libucrt:remainder_piby2_forfma3.obj
 0002:00004fa0       L_xc1                      000000018004afa0     libucrt:remainder_piby2_forfma3.obj
 0002:00004fb0       L_xc2                      000000018004afb0     libucrt:remainder_piby2_forfma3.obj
 0002:00004fc0       L_xc3                      000000018004afc0     libucrt:remainder_piby2_forfma3.obj
 0002:00004fd0       L_sigma                    000000018004afd0     libucrt:remainder_piby2_forfma3.obj
 0002:000050e0       L__piby2                   000000018004b0e0     libucrt:remainder_piby2f_forc.obj
 0002:000050f0       L__2_by_pi_bits            000000018004b0f0     libucrt:remainder_piby2f_forc.obj
 0002:00005190       ?errtable@@3QBUerrentry@?A0x31fdb9ec@@B 000000018004b190     libucrt:errno.obj
 0002:000052f8       ?_mb_locale_names@@3QBQEB_WB 000000018004b2f8     libucrt:mbctype.obj
 0002:00005360       ?module_names@?A0x391cf84c@@3QBQEB_WB 000000018004b360     libucrt:winapi_thunks.obj
 0002:00005868       ?candidate_modules@?1??try_get_AreFileApisANSI@@YAP6AHXZXZ@4QBW4module_id@?A0x391cf84c@@B 000000018004b868     libucrt:winapi_thunks.obj
 0002:00005880       ?candidate_modules@?1??try_get_FlsAlloc@@YAP6AKP6AXPEAX@Z@ZXZ@4QBW4module_id@?A0x391cf84c@@B 000000018004b880     libucrt:winapi_thunks.obj
 0002:00005888       ?candidate_modules@?1??try_get_FlsFree@@YAP6AHK@ZXZ@4QBW4module_id@?A0x391cf84c@@B 000000018004b888     libucrt:winapi_thunks.obj
 0002:00005890       ?candidate_modules@?1??try_get_FlsGetValue@@YAP6APEAXK@ZXZ@4QBW4module_id@?A0x391cf84c@@B 000000018004b890     libucrt:winapi_thunks.obj
 0002:00005898       ?candidate_modules@?1??try_get_FlsSetValue@@YAP6AHKPEAX@ZXZ@4QBW4module_id@?A0x391cf84c@@B 000000018004b898     libucrt:winapi_thunks.obj
 0002:000058a0       ?candidate_modules@?1??try_get_InitializeCriticalSectionEx@@YAP6AHPEAU_RTL_CRITICAL_SECTION@@KK@ZXZ@4QBW4module_id@?A0x391cf84c@@B 000000018004b8a0     libucrt:winapi_thunks.obj
 0002:000058a8       ?candidate_modules@?1??try_get_LCMapStringEx@@YAP6AHPEB_WK0HPEA_WHPEAU_nlsversioninfo@@PEAX_J@ZXZ@4QBW4module_id@?A0x391cf84c@@B 000000018004b8a8     libucrt:winapi_thunks.obj
 0002:000058c0       ?candidate_modules@?1??try_get_LocaleNameToLCID@@YAP6AKPEB_WK@ZXZ@4QBW4module_id@?A0x391cf84c@@B 000000018004b8c0     libucrt:winapi_thunks.obj
 0002:000058dc       ?candidate_modules@?1??try_get_AppPolicyGetProcessTerminationMethod@@YAP6AJPEAXPEAW4AppPolicyProcessTerminationMethod@@@ZXZ@4QBW4module_id@?A0x391cf84c@@B 000000018004b8dc     libucrt:winapi_thunks.obj
 0002:00005f90       ?strings@?1??fp_format_nan_or_infinity@@YAHW4__acrt_fp_class@@_NPEAD_K1@Z@4QAY03QEBDA 000000018004bf90     libucrt:cvt.obj
 0002:00006670       __real@433fffffffffffff    000000018004c670     libucrt:fpsr.obj
 0002:00006678       __real@c33fffffffffffff    000000018004c678     libucrt:fpsr.obj
 0002:00006690       ?LcidToLocaleNameTable@?A0x881e4c05@@3QBULcidToLocaleName@1@B 000000018004c690     libucrt:lcidtoname_downlevel.obj
 0002:000080f0       ?LocaleNameToIndexTable@?A0x881e4c05@@3QBULocaleNameIndex@1@B 000000018004e0f0     libucrt:lcidtoname_downlevel.obj
 0002:0000a380       __real_ninf                0000000180050380     libucrt:log10.obj
 0002:0000a390       __real_inf                 0000000180050390     libucrt:log10.obj
 0002:0000a3a0       __real_neg_qnan            00000001800503a0     libucrt:log10.obj
 0002:0000a3b0       __real_qnanbit             00000001800503b0     libucrt:log10.obj
 0002:0000a3c0       __int_1023                 00000001800503c0     libucrt:log10.obj
 0002:0000a3d0       __mask_001                 00000001800503d0     libucrt:log10.obj
 0002:0000a3e0       __mask_mant                00000001800503e0     libucrt:log10.obj
 0002:0000a3f0       __mask_mant_top8           00000001800503f0     libucrt:log10.obj
 0002:0000a400       __mask_mant9               0000000180050400     libucrt:log10.obj
 0002:0000a410       __real_log10_e             0000000180050410     libucrt:log10.obj
 0002:0000a420       __real_log10_e_lead        0000000180050420     libucrt:log10.obj
 0002:0000a430       __real_log10_e_tail        0000000180050430     libucrt:log10.obj
 0002:0000a440       __real_log10_2_lead        0000000180050440     libucrt:log10.obj
 0002:0000a450       __real_log10_2_tail        0000000180050450     libucrt:log10.obj
 0002:0000a460       __real_two                 0000000180050460     libucrt:log10.obj
 0002:0000a470       __real_one                 0000000180050470     libucrt:log10.obj
 0002:0000a480       __real_half                0000000180050480     libucrt:log10.obj
 0002:0000a490       __mask_100                 0000000180050490     libucrt:log10.obj
 0002:0000a4a0       __real_1_over_512          00000001800504a0     libucrt:log10.obj
 0002:0000a4b0       __real_1_over_2            00000001800504b0     libucrt:log10.obj
 0002:0000a4c0       __real_1_over_3            00000001800504c0     libucrt:log10.obj
 0002:0000a4d0       __real_1_over_4            00000001800504d0     libucrt:log10.obj
 0002:0000a4e0       __real_1_over_5            00000001800504e0     libucrt:log10.obj
 0002:0000a4f0       __real_1_over_6            00000001800504f0     libucrt:log10.obj
 0002:0000a500       __real_neg_1023            0000000180050500     libucrt:log10.obj
 0002:0000a510       __mask_2045                0000000180050510     libucrt:log10.obj
 0002:0000a520       __real_threshold           0000000180050520     libucrt:log10.obj
 0002:0000a530       __real_near_one_lt         0000000180050530     libucrt:log10.obj
 0002:0000a540       __real_near_one_gt         0000000180050540     libucrt:log10.obj
 0002:0000a550       __real_min_norm            0000000180050550     libucrt:log10.obj
 0002:0000a560       __real_notsign             0000000180050560     libucrt:log10.obj
 0002:0000a570       __real_ca1                 0000000180050570     libucrt:log10.obj
 0002:0000a580       __real_ca2                 0000000180050580     libucrt:log10.obj
 0002:0000a590       __real_ca3                 0000000180050590     libucrt:log10.obj
 0002:0000a5a0       __real_ca4                 00000001800505a0     libucrt:log10.obj
 0002:0000a5b0       __mask_lower               00000001800505b0     libucrt:log10.obj
 0002:0000a5c0       __flag_x_zero              00000001800505c0     libucrt:log10.obj
 0002:0000a5c4       __flag_x_neg               00000001800505c4     libucrt:log10.obj
 0002:0000a5c8       __flag_x_nan               00000001800505c8     libucrt:log10.obj
 0002:0000be10       GS_ExceptionPointers       0000000180051e10     LIBCMT:gs_report.obj
 0002:0000c848       $unwind$??1Adjacencies@physx@@QEAA@XZ 0000000180052848     Adjacencies.obj
 0002:0000c848       $unwind$??_EPxFoundation@physx@@MEAAPEAXI@Z 0000000180052848     Adjacencies.obj
 0002:0000c848       $unwind$??0ConvexMeshBuilder@physx@@QEAA@_N@Z 0000000180052848     ConvexMeshBuilder.obj
 0002:0000c848       $unwind$?isFinite@PxVec3@physx@@QEBA_NXZ 0000000180052848     ConvexMeshBuilder.obj
 0002:0000c848       $unwind$??0ConvexPolygonsBuilder@physx@@QEAA@PEAUConvexHullData@Gu@1@_N@Z 0000000180052848     ConvexPolygonsBuilder.obj
 0002:0000c848       $unwind$??_GCooking@physx@@UEAAPEAXI@Z 0000000180052848     Cooking.obj
 0002:0000c848       $unwind$??_GPxBase@physx@@MEAAPEAXI@Z 0000000180052848     Cooking.obj
 0002:0000c848       $unwind$??_GPxCooking@physx@@MEAAPEAXI@Z 0000000180052848     Cooking.obj
 0002:0000c848       $unwind$?getTriangleNormal@HeightField@Gu@physx@@UEBA?AVPxVec3@3@I@Z 0000000180052848     Cooking.obj
 0002:0000c848       $unwind$?isKindOf@PxConvexMesh@physx@@MEBA_NPEBD@Z 0000000180052848     Cooking.obj
 0002:0000c848       $unwind$?isKindOf@PxHeightField@physx@@MEBA_NPEBD@Z 0000000180052848     Cooking.obj
 0002:0000c848       $unwind$??_GQuantizer@physx@@MEAAPEAXI@Z 0000000180052848     Quantizer.obj
 0002:0000c848       $unwind$??1RTreeTriangleData@Gu@physx@@UEAA@XZ 0000000180052848     TriangleMeshBuilder.obj
 0002:0000c848       $unwind$??1RTreeTriangleMeshBuilder@physx@@UEAA@XZ 0000000180052848     TriangleMeshBuilder.obj
 0002:0000c848       $unwind$??_GRTreeCookerRemap@physx@@UEAAPEAXI@Z 0000000180052848     TriangleMeshBuilder.obj
 0002:0000c848       $unwind$??_GRemapCallback@RTreeCooker@physx@@UEAAPEAXI@Z 0000000180052848     TriangleMeshBuilder.obj
 0002:0000c848       $unwind$_calloc_base       0000000180052848     libucrt:calloc_base.obj
 0002:0000c848       $unwind$_malloc_base       0000000180052848     libucrt:malloc_base.obj
 0002:0000c848       $unwind$_callnewh          0000000180052848     libucrt:new_handler.obj
 0002:0000c848       $unwind$initialize_pointers 0000000180052848     libucrt:initialization.obj
 0002:0000c848       $unwind$uninitialize_allocated_memory 0000000180052848     libucrt:initialization.obj
 0002:0000c848       $unwind$__acrt_initialize_locks 0000000180052848     libucrt:locks.obj
 0002:0000c848       $unwind$__acrt_uninitialize_locks 0000000180052848     libucrt:locks.obj
 0002:0000c848       $unwind$__acrt_freeptd     0000000180052848     libucrt:per_thread_data.obj
 0002:0000c848       $unwind$__acrt_getptd_head 0000000180052848     libucrt:per_thread_data.obj
 0002:0000c848       $unwind$__acrt_get_process_end_policy 0000000180052848     libucrt:win_policies.obj
 0002:0000c848       $unwind$__acrt_AppPolicyGetProcessTerminationMethodInternal 0000000180052848     libucrt:winapi_thunks.obj
 0002:0000c848       $unwind$__acrt_FlsAlloc    0000000180052848     libucrt:winapi_thunks.obj
 0002:0000c848       $unwind$__acrt_FlsFree     0000000180052848     libucrt:winapi_thunks.obj
 0002:0000c848       $unwind$__acrt_FlsGetValue 0000000180052848     libucrt:winapi_thunks.obj
 0002:0000c848       $unwind$__acrt_uninitialize_winapi_thunks 0000000180052848     libucrt:winapi_thunks.obj
 0002:0000c848       $unwind$__acrt_update_locale_info 0000000180052848     libucrt:locale_update.obj
 0002:0000c848       $unwind$__acrt_update_multibyte_info 0000000180052848     libucrt:locale_update.obj
 0002:0000c848       $unwind$__acrt_allocate_buffer_for_argv 0000000180052848     libucrt:argv_parsing.obj
 0002:0000c848       $unwind$?exit_or_terminate_process@@YAXI@Z 0000000180052848     libucrt:exit.obj
 0002:0000c848       $unwind$?try_cor_exit_process@@YAXI@Z 0000000180052848     libucrt:exit.obj
 0002:0000c848       $unwind$__acrt_uninitialize_stdio 0000000180052848     libucrt:_file.obj
 0002:0000c848       $unwind$__acrt_stdio_free_buffer_nolock 0000000180052848     libucrt:_freebuf.obj
 0002:0000c848       $unwind$_fflush_nolock     0000000180052848     libucrt:fflush.obj
 0002:0000c848       $unwind$?state_case_normal@?$output_processor@DV?$string_output_adapter@D@__crt_stdio_output@@V?$format_validation_base@DV?$string_output_adapter@D@__crt_stdio_output@@@2@@__crt_stdio_output@@AEAA_NXZ 0000000180052848     libucrt:output.obj
 0002:0000c848       $unwind$?state_case_normal@?$output_processor@DV?$string_output_adapter@D@__crt_stdio_output@@V?$standard_base@DV?$string_output_adapter@D@__crt_stdio_output@@@2@@__crt_stdio_output@@AEAA_NXZ 0000000180052848     libucrt:output.obj
 0002:0000c848       $unwind$?type_case_s@?$output_processor@DV?$string_output_adapter@D@__crt_stdio_output@@V?$format_validation_base@DV?$string_output_adapter@D@__crt_stdio_output@@@2@@__crt_stdio_output@@AEAA_NXZ 0000000180052848     libucrt:output.obj
 0002:0000c848       $unwind$?type_case_s@?$output_processor@DV?$string_output_adapter@D@__crt_stdio_output@@V?$standard_base@DV?$string_output_adapter@D@__crt_stdio_output@@@2@@__crt_stdio_output@@AEAA_NXZ 0000000180052848     libucrt:output.obj
 0002:0000c848       $unwind$strcpy_s           0000000180052848     libucrt:strcpy_s.obj
 0002:0000c848       $unwind$_clrfp             0000000180052848     libucrt:fpctrl.obj
 0002:0000c848       $unwind$_set_statfp        0000000180052848     libucrt:fpctrl.obj
 0002:0000c848       $unwind$_clearfp           0000000180052848     libucrt:ieee.obj
 0002:0000c848       $unwind$_controlfp_s       0000000180052848     libucrt:contrlfp.obj
 0002:0000c848       $unwind$fegetenv           0000000180052848     libucrt:fegetenv.obj
 0002:0000c848       $unwind$feholdexcept       0000000180052848     libucrt:feholdexcept.obj
 0002:0000c848       $unwind$fesetenv           0000000180052848     libucrt:fesetenv.obj
 0002:0000c848       $unwind$?DloadAcquireSectionWriteAccess@@YAXXZ 0000000180052848     Delayimp:delayhlp.obj
 0002:0000c848       $unwind$__raise_securityfailure 0000000180052848     LIBCMT:gs_report.obj
 0002:0000c848       $unwind$??_Gtype_info@@UEAAPEAXI@Z 0000000180052848     LIBCMT:std_type_info_static.obj
 0002:0000c848       $unwind$__scrt_initialize_crt 0000000180052848     LIBCMT:utility.obj
 0002:0000c848       $unwind$__scrt_initialize_onexit_tables 0000000180052848     LIBCMT:utility.obj
 0002:0000c848       $unwind$__scrt_release_startup_lock 0000000180052848     LIBCMT:utility.obj
 0002:0000c848       $unwind$__scrt_uninitialize_crt 0000000180052848     LIBCMT:utility.obj
 0002:0000c848       $unwind$_IsExceptionObjectToBeDestroyed 0000000180052848     libvcruntime:ehhelpers.obj
 0002:0000c848       $unwind$??0HandlerMap4@FH4@@QEAA@PEBUTryBlockMapEntry4@1@_KH@Z 0000000180052848     libvcruntime:frame.obj
 0002:0000c848       $unwind$??0bad_exception@std@@QEAA@AEBV01@@Z 0000000180052848     libvcruntime:frame.obj
 0002:0000c848       $unwind$??0exception@std@@QEAA@AEBV01@@Z 0000000180052848     libvcruntime:frame.obj
 0002:0000c848       $unwind$__vcrt_initialize_locks 0000000180052848     libvcruntime:locks.obj
 0002:0000c848       $unwind$__vcrt_uninitialize_locks 0000000180052848     libvcruntime:locks.obj
 0002:0000c848       $unwind$__vcrt_freeptd     0000000180052848     libvcruntime:per_thread_data.obj
 0002:0000c848       $unwind$_CreateFrameInfo   0000000180052848     libvcruntime:risctrnsctrl.obj
 0002:0000c848       $unwind$_SetImageBase      0000000180052848     libvcruntime:risctrnsctrl.obj
 0002:0000c848       $unwind$_SetThrowImageBase 0000000180052848     libvcruntime:risctrnsctrl.obj
 0002:0000c848       $unwind$__std_exception_destroy 0000000180052848     libvcruntime:std_exception.obj
 0002:0000c848       $unwind$__std_type_info_destroy_list 0000000180052848     libvcruntime:std_type_info.obj
 0002:0000c848       $unwind$??$?0$00@DName@@QEAA@PEBDU?$StringLifeSelector@$00@@@Z 0000000180052848     libvcruntime:undname.obj
 0002:0000c848       $unwind$??$?0$01@DName@@QEAA@PEBDU?$StringLifeSelector@$01@@@Z 0000000180052848     libvcruntime:undname.obj
 0002:0000c848       $unwind$??$?0$0A@@DName@@QEAA@PEBDU?$StringLifeSelector@$0A@@@@Z 0000000180052848     libvcruntime:undname.obj
 0002:0000c848       $unwind$??0DName@@QEAA@AEBUStringLiteral@@@Z 0000000180052848     libvcruntime:undname.obj
 0002:0000c848       $unwind$??HDName@@QEBA?AV0@AEBUStringLiteral@@@Z 0000000180052848     libvcruntime:undname.obj
 0002:0000c848       $unwind$??HDName@@QEBA?AV0@AEBV0@@Z 0000000180052848     libvcruntime:undname.obj
 0002:0000c848       $unwind$??HDName@@QEBA?AV0@D@Z 0000000180052848     libvcruntime:undname.obj
 0002:0000c848       $unwind$??HDName@@QEBA?AV0@W4DNameStatus@@@Z 0000000180052848     libvcruntime:undname.obj
 0002:0000c848       $unwind$??YDName@@QEAAAEAV0@AEBV0@@Z 0000000180052848     libvcruntime:undname.obj
 0002:0000c848       $unwind$??YDName@@QEAAAEAV0@W4DNameStatus@@@Z 0000000180052848     libvcruntime:undname.obj
 0002:0000c848       $unwind$?getLastChar@pairNode@@UEBADXZ 0000000180052848     libvcruntime:undname.obj
 0002:0000c848       $unwind$?getReturnType@UnDecorator@@CA?AVDName@@PEAV2@@Z 0000000180052848     libvcruntime:undname.obj
 0002:0000c848       $unwind$?getStringObject@UnDecorator@@CA?AVDName@@XZ 0000000180052848     libvcruntime:undname.obj
 0002:0000c848       $unwind$?getSymbolName@UnDecorator@@CA?AVDName@@XZ 0000000180052848     libvcruntime:undname.obj
 0002:0000c848       $unwind$?getValue@UnDecorator@@CA?AV?$optional@_K@std@@XZ 0000000180052848     libvcruntime:undname.obj
 0002:0000c848       $unwind$__vcrt_FlsAlloc    0000000180052848     libvcruntime:winapi_downlevel.obj
 0002:0000c848       $unwind$__vcrt_FlsFree     0000000180052848     libvcruntime:winapi_downlevel.obj
 0002:0000c848       $unwind$__vcrt_FlsGetValue 0000000180052848     libvcruntime:winapi_downlevel.obj
 0002:0000c850       $chain$0$??_EPxFoundation@physx@@MEAAPEAXI@Z 0000000180052850     Adjacencies.obj
 0002:0000c864       $chain$1$??_EPxFoundation@physx@@MEAAPEAXI@Z 0000000180052864     Adjacencies.obj
 0002:0000c874       $chain$0$??1Adjacencies@physx@@QEAA@XZ 0000000180052874     Adjacencies.obj
 0002:0000c888       $chain$2$??1Adjacencies@physx@@QEAA@XZ 0000000180052888     Adjacencies.obj
 0002:0000c89c       $chain$3$??1Adjacencies@physx@@QEAA@XZ 000000018005289c     Adjacencies.obj
 0002:0000c8ac       $unwind$?Init@AdjacenciesBuilder@physx@@QEAA_NAEBUADJACENCIESCREATE@2@@Z 00000001800528ac     Adjacencies.obj
 0002:0000c8b8       $chain$2$?Init@AdjacenciesBuilder@physx@@QEAA_NAEBUADJACENCIESCREATE@2@@Z 00000001800528b8     Adjacencies.obj
 0002:0000c8d4       $chain$3$?Init@AdjacenciesBuilder@physx@@QEAA_NAEBUADJACENCIESCREATE@2@@Z 00000001800528d4     Adjacencies.obj
 0002:0000c8e8       $chain$4$?Init@AdjacenciesBuilder@physx@@QEAA_NAEBUADJACENCIESCREATE@2@@Z 00000001800528e8     Adjacencies.obj
 0002:0000c8f8       $chain$5$?Init@AdjacenciesBuilder@physx@@QEAA_NAEBUADJACENCIESCREATE@2@@Z 00000001800528f8     Adjacencies.obj
 0002:0000c910       $unwind$??$?_UV?$ReflectionAllocator@VAdjTriangle@physx@@@shdfnd@physx@@@UserAllocated@shdfnd@physx@@SAPEAX_KV?$ReflectionAllocator@VAdjTriangle@physx@@@12@PEBDH@Z 0000000180052910     Adjacencies.obj
 0002:0000c910       $unwind$??$?_UE@@YAPEAX_KV?$ReflectionAllocator@E@shdfnd@physx@@PEBDH@Z 0000000180052910     ConvexHullBuilder.obj
 0002:0000c910       $unwind$??$?_UI@@YAPEAX_KV?$ReflectionAllocator@I@shdfnd@physx@@PEBDH@Z 0000000180052910     EdgeList.obj
 0002:0000c910       $unwind$?allocate@?$ReflectionAllocator@I@shdfnd@physx@@QEAAPEAX_KPEBDH@Z 0000000180052910     RTreeCooking.obj
 0002:0000c910       $unwind$??$?_UG@@YAPEAX_KV?$ReflectionAllocator@G@shdfnd@physx@@PEBDH@Z 0000000180052910     TriangleMeshBuilder.obj
 0002:0000c920       $chain$0$??$?_UV?$ReflectionAllocator@VAdjTriangle@physx@@@shdfnd@physx@@@UserAllocated@shdfnd@physx@@SAPEAX_KV?$ReflectionAllocator@VAdjTriangle@physx@@@12@PEBDH@Z 0000000180052920     Adjacencies.obj
 0002:0000c934       $chain$1$??$?_UV?$ReflectionAllocator@VAdjTriangle@physx@@@shdfnd@physx@@@UserAllocated@shdfnd@physx@@SAPEAX_KV?$ReflectionAllocator@VAdjTriangle@physx@@@12@PEBDH@Z 0000000180052934     Adjacencies.obj
 0002:0000c944       $unwind$?AddTriangle@@YAXIIIIPEAVAdjTriangle@physx@@AEAIPEAVAdjEdge@@@Z 0000000180052944     Adjacencies.obj
 0002:0000c944       $unwind$?getTriangleNormalInternal@HeightField@Gu@physx@@QEBA?AVPxVec3@3@I@Z 0000000180052944     Cooking.obj
 0002:0000c950       $unwind$?UpdateLink@@YA_NIIIIPEAVAdjTriangle@physx@@AEBUADJACENCIESCREATE@2@@Z 0000000180052950     Adjacencies.obj
 0002:0000c95c       $chain$0$?UpdateLink@@YA_NIIIIPEAVAdjTriangle@physx@@AEBUADJACENCIESCREATE@2@@Z 000000018005295c     Adjacencies.obj
 0002:0000c970       $chain$4$?UpdateLink@@YA_NIIIIPEAVAdjTriangle@physx@@AEBUADJACENCIESCREATE@2@@Z 0000000180052970     Adjacencies.obj
 0002:0000c990       $chain$5$?UpdateLink@@YA_NIIIIPEAVAdjTriangle@physx@@AEBUADJACENCIESCREATE@2@@Z 0000000180052990     Adjacencies.obj
 0002:0000c9a4       $chain$6$?UpdateLink@@YA_NIIIIPEAVAdjTriangle@physx@@AEBUADJACENCIESCREATE@2@@Z 00000001800529a4     Adjacencies.obj
 0002:0000c9b4       $chain$7$?UpdateLink@@YA_NIIIIPEAVAdjTriangle@physx@@AEBUADJACENCIESCREATE@2@@Z 00000001800529b4     Adjacencies.obj
 0002:0000c9c8       $chain$8$?UpdateLink@@YA_NIIIIPEAVAdjTriangle@physx@@AEBUADJACENCIESCREATE@2@@Z 00000001800529c8     Adjacencies.obj
 0002:0000c9d8       $unwind$?CreateDatabase@@YA_NPEAVAdjTriangle@physx@@IPEBVAdjEdge@@AEBUADJACENCIESCREATE@2@@Z 00000001800529d8     Adjacencies.obj
 0002:0000c9f4       $unwind$?getTransform@Box@Gu@physx@@QEBA?AVPxTransform@3@XZ 00000001800529f4     ConvexHullUtils.obj
 0002:0000c9f4       $unwind$PxCreateCooking    00000001800529f4     Cooking.obj
 0002:0000ca00       $unwind$?release@Cooking@physx@@UEAAXXZ 0000000180052a00     Cooking.obj
 0002:0000ca00       $unwind$?cookingDelayHook@@YAP6A_JXZIPEAUDelayLoadInfo@@@Z 0000000180052a00     WindowsCookingDelayLoadHook.obj
 0002:0000ca00       $unwind$__dcrt_terminate_console_output 0000000180052a00     libucrt:initcon.obj
 0002:0000ca00       $unwind$??$uninitialize_environment_internal@D@@YAXAEAPEAPEAD@Z 0000000180052a00     libucrt:environment_initialization.obj
 0002:0000ca00       $unwind$??$uninitialize_environment_internal@_W@@YAXAEAPEAPEA_W@Z 0000000180052a00     libucrt:environment_initialization.obj
 0002:0000ca00       $unwind$__dcrt_uninitialize_environments_nolock 0000000180052a00     libucrt:environment_initialization.obj
 0002:0000ca00       $unwind$?__c32rtomb_utf8@__crt_mbstring@@YA_KPEAD_UPEAU_Mbstatet@@@Z 0000000180052a00     libucrt:c32rtomb.obj
 0002:0000ca00       $unwind$__acrt_initialize_heap 0000000180052a00     libucrt:heap_handle.obj
 0002:0000ca00       $unwind$_msize_base        0000000180052a00     libucrt:msize.obj
 0002:0000ca00       $unwind$?initialize_multibyte@@YAHXZ 0000000180052a00     libucrt:multibyte_initializer.obj
 0002:0000ca00       $unwind$__acrt_thread_attach 0000000180052a00     libucrt:initialization.obj
 0002:0000ca00       $unwind$__acrt_thread_detach 0000000180052a00     libucrt:initialization.obj
 0002:0000ca00       $unwind$__acrt_uninitialize 0000000180052a00     libucrt:initialization.obj
 0002:0000ca00       $unwind$__acrt_uninitialize_critical 0000000180052a00     libucrt:initialization.obj
 0002:0000ca00       $unwind$initialize_c       0000000180052a00     libucrt:initialization.obj
 0002:0000ca00       $unwind$uninitialize_allocated_io_buffers 0000000180052a00     libucrt:initialization.obj
 0002:0000ca00       $unwind$uninitialize_environment 0000000180052a00     libucrt:initialization.obj
 0002:0000ca00       $unwind$__acrt_initialize_ptd 0000000180052a00     libucrt:per_thread_data.obj
 0002:0000ca00       $unwind$__acrt_uninitialize_ptd 0000000180052a00     libucrt:per_thread_data.obj
 0002:0000ca00       $unwind$__acrt_AreFileApisANSI 0000000180052a00     libucrt:winapi_thunks.obj
 0002:0000ca00       $unwind$__pctype_func      0000000180052a00     libucrt:ctype.obj
 0002:0000ca00       $unwind$__acrt_release_locale_ref 0000000180052a00     libucrt:locale_refcounting.obj
 0002:0000ca00       $unwind$_isatty            0000000180052a00     libucrt:isatty.obj
 0002:0000ca00       $unwind$_get_osfhandle     0000000180052a00     libucrt:osfinfo.obj
 0002:0000ca00       $unwind$__acrt_initialize_multibyte 0000000180052a00     libucrt:mbctype.obj
 0002:0000ca00       $unwind$__acrt_update_thread_multibyte_data 0000000180052a00     libucrt:mbctype.obj
 0002:0000ca00       $unwind$__doserrno         0000000180052a00     libucrt:errno.obj
 0002:0000ca00       $unwind$_errno             0000000180052a00     libucrt:errno.obj
 0002:0000ca00       $unwind$_invoke_watson     0000000180052a00     libucrt:invalid_parameter.obj
 0002:0000ca00       $unwind$abort              0000000180052a00     libucrt:abort.obj
 0002:0000ca00       $unwind$__acrt_initialize_command_line 0000000180052a00     libucrt:argv_data.obj
 0002:0000ca00       $unwind$_fileno            0000000180052a00     libucrt:fileno.obj
 0002:0000ca00       $unwind$?state_case_normal_tchar@?$output_processor@DV?$string_output_adapter@D@__crt_stdio_output@@V?$format_validation_base@DV?$string_output_adapter@D@__crt_stdio_output@@@2@@__crt_stdio_output@@AEAA_ND@Z 0000000180052a00     libucrt:output.obj
 0002:0000ca00       $unwind$?state_case_normal_tchar@?$output_processor@DV?$string_output_adapter@D@__crt_stdio_output@@V?$standard_base@DV?$string_output_adapter@D@__crt_stdio_output@@@2@@__crt_stdio_output@@AEAA_ND@Z 0000000180052a00     libucrt:output.obj
 0002:0000ca00       $unwind$?state_case_size@?$output_processor@DV?$string_output_adapter@D@__crt_stdio_output@@V?$format_validation_base@DV?$string_output_adapter@D@__crt_stdio_output@@@2@@__crt_stdio_output@@AEAA_NXZ 0000000180052a00     libucrt:output.obj
 0002:0000ca00       $unwind$?state_case_size@?$output_processor@DV?$string_output_adapter@D@__crt_stdio_output@@V?$standard_base@DV?$string_output_adapter@D@__crt_stdio_output@@@2@@__crt_stdio_output@@AEAA_NXZ 0000000180052a00     libucrt:output.obj
 0002:0000ca00       $unwind$_statfp            0000000180052a00     libucrt:fpctrl.obj
 0002:0000ca00       $unwind$fegetround         0000000180052a00     libucrt:fegetround.obj
 0002:0000ca00       $unwind$_set_errno_from_matherr 0000000180052a00     libucrt:fpexcept.obj
 0002:0000ca00       $unwind$?DloadReleaseSectionWriteAccess@@YAXXZ 0000000180052a00     Delayimp:delayhlp.obj
 0002:0000ca00       $unwind$__scrt_initialize_default_local_stdio_options 0000000180052a00     LIBCMT:default_local_stdio_options.obj
 0002:0000ca00       $unwind$?dllmain_crt_dispatch@@YAHQEAUHINSTANCE__@@KQEAX@Z 0000000180052a00     LIBCMT:dll_dllmain.obj
 0002:0000ca00       $unwind$__report_rangecheckfailure 0000000180052a00     LIBCMT:gs_report.obj
 0002:0000ca00       $unwind$__GSHandlerCheck   0000000180052a00     LIBCMT:gshandler.obj
 0002:0000ca00       $unwind$__scrt_acquire_startup_lock 0000000180052a00     LIBCMT:utility.obj
 0002:0000ca00       $unwind$__scrt_dllmain_after_initialize_c 0000000180052a00     LIBCMT:utility.obj
 0002:0000ca00       $unwind$__scrt_dllmain_before_initialize_c 0000000180052a00     LIBCMT:utility.obj
 0002:0000ca00       $unwind$__scrt_dllmain_crt_thread_attach 0000000180052a00     LIBCMT:utility.obj
 0002:0000ca00       $unwind$__scrt_dllmain_crt_thread_detach 0000000180052a00     LIBCMT:utility.obj
 0002:0000ca00       $unwind$__scrt_dllmain_uninitialize_c 0000000180052a00     LIBCMT:utility.obj
 0002:0000ca00       $unwind$__scrt_dllmain_uninitialize_critical 0000000180052a00     LIBCMT:utility.obj
 0002:0000ca00       $unwind$__vcrt_initialize  0000000180052a00     libvcruntime:initialization.obj
 0002:0000ca00       $unwind$__vcrt_thread_attach 0000000180052a00     libvcruntime:initialization.obj
 0002:0000ca00       $unwind$__vcrt_thread_detach 0000000180052a00     libvcruntime:initialization.obj
 0002:0000ca00       $unwind$__vcrt_uninitialize 0000000180052a00     libvcruntime:initialization.obj
 0002:0000ca00       $unwind$__vcrt_uninitialize_critical 0000000180052a00     libvcruntime:initialization.obj
 0002:0000ca00       $unwind$__vcrt_freefls     0000000180052a00     libvcruntime:per_thread_data.obj
 0002:0000ca00       $unwind$__vcrt_getptd      0000000180052a00     libvcruntime:per_thread_data.obj
 0002:0000ca00       $unwind$__vcrt_initialize_ptd 0000000180052a00     libvcruntime:per_thread_data.obj
 0002:0000ca00       $unwind$__vcrt_uninitialize_ptd 0000000180052a00     libvcruntime:per_thread_data.obj
 0002:0000ca00       $unwind$_purecall          0000000180052a00     libvcruntime:purevirt.obj
 0002:0000ca00       $unwind$?FrameUnwindToEmptyState@__FrameHandler4@@SAXPEA_KPEAU_xDISPATCHER_CONTEXT@@PEAUFuncInfo4@FH4@@@Z 0000000180052a00     libvcruntime:risctrnsctrl.obj
 0002:0000ca00       $unwind$_GetImageBase      0000000180052a00     libvcruntime:risctrnsctrl.obj
 0002:0000ca00       $unwind$_GetThrowImageBase 0000000180052a00     libvcruntime:risctrnsctrl.obj
 0002:0000ca00       $unwind$?getLastChar@pDNameNode@@UEBADXZ 0000000180052a00     libvcruntime:undname.obj
 0002:0000ca00       $unwind$?getString@pDNameNode@@UEBAPEADPEAD0@Z 0000000180052a00     libvcruntime:undname.obj
 0002:0000ca00       $unwind$?getTypeEncoding@UnDecorator@@CAHXZ 0000000180052a00     libvcruntime:undname.obj
 0002:0000ca00       $unwind$?length@pDNameNode@@UEBAHXZ 0000000180052a00     libvcruntime:undname.obj
 0002:0000ca08       $unwind$?cookConvexMesh@Cooking@physx@@UEBA_NAEBVPxConvexMeshDesc@2@AEAVPxOutputStream@2@PEAW4Enum@PxConvexMeshCookingResult@2@@Z 0000000180052a08     Cooking.obj
 0002:0000ca08       $unwind$?cookTriangleMesh@Cooking@physx@@UEBA_NAEBVPxTriangleMeshDesc@2@AEAVPxOutputStream@2@PEAW4Enum@PxTriangleMeshCookingResult@2@@Z 0000000180052a08     Cooking.obj
 0002:0000ca08       $unwind$?createTriangleMesh@Cooking@physx@@UEBAPEAVPxTriangleMesh@2@AEBVPxTriangleMeshDesc@2@AEAVPxPhysicsInsertionCallback@2@PEAW4Enum@PxTriangleMeshCookingResult@2@@Z 0000000180052a08     Cooking.obj
 0002:0000ca24       $unwind$?validateTriangleMesh@Cooking@physx@@UEBA_NAEBVPxTriangleMeshDesc@2@@Z 0000000180052a24     Cooking.obj
 0002:0000ca34       $unwind$?createConvexMesh@Cooking@physx@@UEBAPEAVPxConvexMesh@2@AEBVPxConvexMeshDesc@2@AEAVPxPhysicsInsertionCallback@2@PEAW4Enum@PxConvexMeshCookingResult@2@@Z 0000000180052a34     Cooking.obj
 0002:0000ca50       $unwind$?validateConvexMesh@Cooking@physx@@UEBA_NAEBVPxConvexMeshDesc@2@@Z 0000000180052a50     Cooking.obj
 0002:0000ca60       $unwind$?computeHullPolygons@Cooking@physx@@UEBA_NAEBVPxSimpleTriangleMesh@2@AEAVPxAllocatorCallback@2@AEAIAEAPEAVPxVec3@2@2AEAPEAI2AEAPEAUPxHullPolygon@2@@Z 0000000180052a60     Cooking.obj
 0002:0000ca80       $unwind$?cookHeightField@Cooking@physx@@UEBA_NAEBVPxHeightFieldDesc@2@AEAVPxOutputStream@2@@Z 0000000180052a80     Cooking.obj
 0002:0000ca94       $unwind$?createHeightField@Cooking@physx@@UEBAPEAVPxHeightField@2@AEBVPxHeightFieldDesc@2@AEAVPxPhysicsInsertionCallback@2@@Z 0000000180052a94     Cooking.obj
 0002:0000ca94       $unwind$?getArgumentList@UnDecorator@@CA?AVDName@@XZ 0000000180052a94     libvcruntime:undname.obj
 0002:0000caa4       $unwind$?cookBVHStructure@Cooking@physx@@UEBA_NAEBVPxBVHStructureDesc@2@AEAVPxOutputStream@2@@Z 0000000180052aa4     Cooking.obj
 0002:0000cab4       $unwind$?createBVHStructure@Cooking@physx@@UEBAPEAVPxBVHStructure@2@AEBVPxBVHStructureDesc@2@AEAVPxPhysicsInsertionCallback@2@@Z 0000000180052ab4     Cooking.obj
 0002:0000cab4       $unwind$?DloadMakePermanentImageCommit@@YAXPEAX_K@Z 0000000180052ab4     Delayimp:delayhlp.obj
 0002:0000cac0       $unwind$?cookConvexMeshInternal@Cooking@physx@@AEBA_NAEBVPxConvexMeshDesc@2@AEAVConvexMeshBuilder@2@PEAVConvexHullLib@2@PEAW4Enum@PxConvexMeshCookingResult@2@@Z 0000000180052ac0     Cooking.obj
 0002:0000cad4       $chain$1$?cookConvexMeshInternal@Cooking@physx@@AEBA_NAEBVPxConvexMeshDesc@2@AEAVConvexMeshBuilder@2@PEAVConvexHullLib@2@PEAW4Enum@PxConvexMeshCookingResult@2@@Z 0000000180052ad4     Cooking.obj
 0002:0000cae8       $chain$2$?cookConvexMeshInternal@Cooking@physx@@AEBA_NAEBVPxConvexMeshDesc@2@AEAVConvexMeshBuilder@2@PEAVConvexHullLib@2@PEAW4Enum@PxConvexMeshCookingResult@2@@Z 0000000180052ae8     Cooking.obj
 0002:0000caf8       $chain$3$?cookConvexMeshInternal@Cooking@physx@@AEBA_NAEBVPxConvexMeshDesc@2@AEAVConvexMeshBuilder@2@PEAVConvexHullLib@2@PEAW4Enum@PxConvexMeshCookingResult@2@@Z 0000000180052af8     Cooking.obj
 0002:0000cb0c       $unwind$?allocate@?$Array@USlab@NodeAllocator@Gu@physx@@V?$ReflectionAllocator@USlab@NodeAllocator@Gu@physx@@@shdfnd@4@@shdfnd@physx@@IEAAPEAUSlab@NodeAllocator@Gu@3@I@Z 0000000180052b0c     BVHStructureBuilder.obj
 0002:0000cb0c       $unwind$?allocate@?$Array@VHalfEdge@ConvexHull@physx@@V?$ReflectionAllocator@VHalfEdge@ConvexHull@physx@@@shdfnd@3@@shdfnd@physx@@IEAAPEAVHalfEdge@ConvexHull@3@I@Z 0000000180052b0c     ConvexHullUtils.obj
 0002:0000cb0c       $unwind$?allocate@?$Array@VPxPlane@physx@@V?$ReflectionAllocator@VPxPlane@physx@@@shdfnd@2@@shdfnd@physx@@IEAAPEAVPxPlane@3@I@Z 0000000180052b0c     ConvexHullUtils.obj
 0002:0000cb0c       $unwind$?computeBoxPoints@Box@Gu@physx@@QEBAXPEIAVPxVec3@3@@Z 0000000180052b0c     ConvexHullUtils.obj
 0002:0000cb0c       $unwind$?allocate@?$Array@VPair@@V?$ReflectionAllocator@VPair@@@shdfnd@physx@@@shdfnd@physx@@IEAAPEAVPair@@I@Z 0000000180052b0c     ConvexPolygonsBuilder.obj
 0002:0000cb0c       $unwind$?allocate@?$Array@UPxDebugLine@physx@@V?$ReflectionAllocator@UPxDebugLine@physx@@@shdfnd@2@@shdfnd@physx@@IEAAPEAUPxDebugLine@3@I@Z 0000000180052b0c     Cooking.obj
 0002:0000cb0c       $unwind$?allocate@?$Array@PEAUQuickHullFace@local@@V?$ReflectionAllocator@PEAUQuickHullFace@local@@@shdfnd@physx@@@shdfnd@physx@@IEAAPEAPEAUQuickHullFace@local@@I@Z 0000000180052b0c     QuickHullConvexHullLib.obj
 0002:0000cb0c       $unwind$?allocate@?$Array@PEAUQuickHullHalfEdge@local@@V?$ReflectionAllocator@PEAUQuickHullHalfEdge@local@@@shdfnd@physx@@@shdfnd@physx@@IEAAPEAPEAUQuickHullHalfEdge@local@@I@Z 0000000180052b0c     QuickHullConvexHullLib.obj
 0002:0000cb0c       $unwind$?allocate@?$Array@PEAUQuickHullVertex@local@@V?$ReflectionAllocator@PEAUQuickHullVertex@local@@@shdfnd@physx@@@shdfnd@physx@@IEAAPEAPEAUQuickHullVertex@local@@I@Z 0000000180052b0c     QuickHullConvexHullLib.obj
 0002:0000cb0c       $unwind$?allocate@?$Array@UExpandPoint@local@@V?$ReflectionAllocator@UExpandPoint@local@@@shdfnd@physx@@@shdfnd@physx@@IEAAPEAUExpandPoint@local@@I@Z 0000000180052b0c     QuickHullConvexHullLib.obj
 0002:0000cb0c       $unwind$?allocate@?$Array@UInterval@physx@@V?$InlineAllocator@$0CAAA@V?$ReflectionAllocator@UInterval@physx@@@shdfnd@physx@@@shdfnd@2@@shdfnd@physx@@IEAAPEAUInterval@3@I@Z 0000000180052b0c     RTreeCooking.obj
 0002:0000cb0c       $unwind$?allocate@?$Array@UPxBounds3V@physx@@V?$ReflectionAllocator@UPxBounds3V@physx@@@shdfnd@2@@shdfnd@physx@@IEAAPEAUPxBounds3V@3@I@Z 0000000180052b0c     RTreeCooking.obj
 0002:0000cb0c       $unwind$?allocate@?$Array@URTreeNodeNQ@physx@@V?$ReflectionAllocator@URTreeNodeNQ@physx@@@shdfnd@2@@shdfnd@physx@@IEAAPEAURTreeNodeNQ@3@I@Z 0000000180052b0c     RTreeCooking.obj
 0002:0000cb0c       $unwind$?allocate@?$Array@URTreeNodeQ@Gu@physx@@V?$ReflectionAllocator@URTreeNodeQ@Gu@physx@@@shdfnd@3@@shdfnd@physx@@IEAAPEAURTreeNodeQ@Gu@3@I@Z 0000000180052b0c     RTreeCooking.obj
 0002:0000cb0c       $unwind$?allocate@?$Array@VPxVec3@physx@@V?$ReflectionAllocator@VPxVec3@physx@@@shdfnd@2@@shdfnd@physx@@IEAAPEAVPxVec3@3@I@Z 0000000180052b0c     RTreeCooking.obj
 0002:0000cb0c       $unwind$atol               0000000180052b0c     libucrt:atox.obj
 0002:0000cb0c       $unwind$strtol             0000000180052b0c     libucrt:strtox.obj
 0002:0000cb0c       $unwind$_invalid_parameter_noinfo 0000000180052b0c     libucrt:invalid_parameter.obj
 0002:0000cb0c       $unwind$_log10_special     0000000180052b0c     libucrt:log_special.obj
 0002:0000cb14       $chain$1$?allocate@?$Array@UPxDebugLine@physx@@V?$ReflectionAllocator@UPxDebugLine@physx@@@shdfnd@2@@shdfnd@physx@@IEAAPEAUPxDebugLine@3@I@Z 0000000180052b14     Cooking.obj
 0002:0000cb2c       $chain$3$?allocate@?$Array@UPxDebugLine@physx@@V?$ReflectionAllocator@UPxDebugLine@physx@@@shdfnd@2@@shdfnd@physx@@IEAAPEAUPxDebugLine@3@I@Z 0000000180052b2c     Cooking.obj
 0002:0000cb40       $chain$4$?allocate@?$Array@UPxDebugLine@physx@@V?$ReflectionAllocator@UPxDebugLine@physx@@@shdfnd@2@@shdfnd@physx@@IEAAPEAUPxDebugLine@3@I@Z 0000000180052b40     Cooking.obj
 0002:0000cb50       $unwind$?recreate@?$Array@USlab@NodeAllocator@Gu@physx@@V?$ReflectionAllocator@USlab@NodeAllocator@Gu@physx@@@shdfnd@4@@shdfnd@physx@@IEAAXI@Z 0000000180052b50     BVHStructureBuilder.obj
 0002:0000cb50       $unwind$?recreate@?$Array@VHalfEdge@ConvexHull@physx@@V?$ReflectionAllocator@VHalfEdge@ConvexHull@physx@@@shdfnd@3@@shdfnd@physx@@IEAAXI@Z 0000000180052b50     ConvexHullUtils.obj
 0002:0000cb50       $unwind$?recreate@?$Array@VPxPlane@physx@@V?$ReflectionAllocator@VPxPlane@physx@@@shdfnd@2@@shdfnd@physx@@IEAAXI@Z 0000000180052b50     ConvexHullUtils.obj
 0002:0000cb50       $unwind$?copy@ConvexMeshBuilder@physx@@QEAA_NAEAUConvexHullInitData@Gu@2@@Z 0000000180052b50     ConvexMeshBuilder.obj
 0002:0000cb50       $unwind$?recreate@?$Array@UPxDebugLine@physx@@V?$ReflectionAllocator@UPxDebugLine@physx@@@shdfnd@2@@shdfnd@physx@@IEAAXI@Z 0000000180052b50     Cooking.obj
 0002:0000cb50       $unwind$?recreate@?$Array@PEAUQuickHullFace@local@@V?$ReflectionAllocator@PEAUQuickHullFace@local@@@shdfnd@physx@@@shdfnd@physx@@IEAAXI@Z 0000000180052b50     QuickHullConvexHullLib.obj
 0002:0000cb50       $unwind$?recreate@?$Array@PEAUQuickHullHalfEdge@local@@V?$ReflectionAllocator@PEAUQuickHullHalfEdge@local@@@shdfnd@physx@@@shdfnd@physx@@IEAAXI@Z 0000000180052b50     QuickHullConvexHullLib.obj
 0002:0000cb50       $unwind$?recreate@?$Array@PEAUQuickHullVertex@local@@V?$ReflectionAllocator@PEAUQuickHullVertex@local@@@shdfnd@physx@@@shdfnd@physx@@IEAAXI@Z 0000000180052b50     QuickHullConvexHullLib.obj
 0002:0000cb50       $unwind$?recreate@?$Array@UExpandPoint@local@@V?$ReflectionAllocator@UExpandPoint@local@@@shdfnd@physx@@@shdfnd@physx@@IEAAXI@Z 0000000180052b50     QuickHullConvexHullLib.obj
 0002:0000cb50       $unwind$?recreate@?$Array@IV?$ReflectionAllocator@I@shdfnd@physx@@@shdfnd@physx@@IEAAXI@Z 0000000180052b50     RTreeCooking.obj
 0002:0000cb50       $unwind$?recreate@?$Array@UPxBounds3V@physx@@V?$ReflectionAllocator@UPxBounds3V@physx@@@shdfnd@2@@shdfnd@physx@@IEAAXI@Z 0000000180052b50     RTreeCooking.obj
 0002:0000cb50       $unwind$?recreate@?$Array@URTreeNodeNQ@physx@@V?$ReflectionAllocator@URTreeNodeNQ@physx@@@shdfnd@2@@shdfnd@physx@@IEAAXI@Z 0000000180052b50     RTreeCooking.obj
 0002:0000cb50       $unwind$?recreate@?$Array@URTreeNodeQ@Gu@physx@@V?$ReflectionAllocator@URTreeNodeQ@Gu@physx@@@shdfnd@3@@shdfnd@physx@@IEAAXI@Z 0000000180052b50     RTreeCooking.obj
 0002:0000cb50       $unwind$?recreate@?$Array@VPxVec3@physx@@V?$ReflectionAllocator@VPxVec3@physx@@@shdfnd@2@@shdfnd@physx@@IEAAXI@Z 0000000180052b50     RTreeCooking.obj
 0002:0000cb60       $chain$0$?recreate@?$Array@UPxDebugLine@physx@@V?$ReflectionAllocator@UPxDebugLine@physx@@@shdfnd@2@@shdfnd@physx@@IEAAXI@Z 0000000180052b60     Cooking.obj
 0002:0000cb74       $chain$1$?recreate@?$Array@UPxDebugLine@physx@@V?$ReflectionAllocator@UPxDebugLine@physx@@@shdfnd@2@@shdfnd@physx@@IEAAXI@Z 0000000180052b74     Cooking.obj
 0002:0000cb84       $unwind$??$copy@V?$ReflectionAllocator@USlab@NodeAllocator@Gu@physx@@@shdfnd@physx@@@?$Array@USlab@NodeAllocator@Gu@physx@@V?$ReflectionAllocator@USlab@NodeAllocator@Gu@physx@@@shdfnd@4@@shdfnd@physx@@IEAAXAEBV012@@Z 0000000180052b84     BVHStructureBuilder.obj
 0002:0000cb84       $unwind$??0NodeAllocator@Gu@physx@@QEAA@AEBV012@@Z 0000000180052b84     BVHStructureBuilder.obj
 0002:0000cb84       $unwind$??1ConvexHullLib@physx@@UEAA@XZ 0000000180052b84     ConvexHullLib.obj
 0002:0000cb84       $unwind$??1ConvexMeshBuilder@physx@@QEAA@XZ 0000000180052b84     ConvexMeshBuilder.obj
 0002:0000cb84       $unwind$??$copy@V?$ReflectionAllocator@VPair@@@shdfnd@physx@@@?$Array@VPair@@V?$ReflectionAllocator@VPair@@@shdfnd@physx@@@shdfnd@physx@@IEAAXAEBV012@@Z 0000000180052b84     ConvexPolygonsBuilder.obj
 0002:0000cb84       $unwind$??1ConvexPolygonsBuilder@physx@@QEAA@XZ 0000000180052b84     ConvexPolygonsBuilder.obj
 0002:0000cb84       $unwind$?reserveSegments@RenderOutput@Cm@physx@@QEAAPEAUPxDebugLine@3@I@Z 0000000180052b84     Cooking.obj
 0002:0000cb84       $unwind$?Clean@ReducedVertexCloud@physx@@QEAAAEAV12@XZ 0000000180052b84     CookingUtils.obj
 0002:0000cb84       $unwind$?computeLocalBounds@MeshBulider@physx@@IEAAXAEAVMeshDataBase@Gu@2@@Z 0000000180052b84     MeshBuilder.obj
 0002:0000cb84       $unwind$??1QuickHull@local@@QEAA@XZ 0000000180052b84     QuickHullConvexHullLib.obj
 0002:0000cb84       $unwind$?fillConvexMeshDesc@QuickHullConvexHullLib@physx@@UEAAXAEAVPxConvexMeshDesc@2@@Z 0000000180052b84     QuickHullConvexHullLib.obj
 0002:0000cb84       $unwind$?resizeUninitialized@?$Array@URTreeNodeNQ@physx@@V?$ReflectionAllocator@URTreeNodeNQ@physx@@@shdfnd@2@@shdfnd@physx@@QEAAXI@Z 0000000180052b84     RTreeCooking.obj
 0002:0000cb84       $unwind$??0BV4TriangleMeshBuilder@physx@@QEAA@AEBUPxCookingParams@1@@Z 0000000180052b84     TriangleMeshBuilder.obj
 0002:0000cb84       $unwind$??1BV4TriangleMeshBuilder@physx@@UEAA@XZ 0000000180052b84     TriangleMeshBuilder.obj
 0002:0000cb84       $unwind$??1TriangleMeshBuilder@physx@@UEAA@XZ 0000000180052b84     TriangleMeshBuilder.obj
 0002:0000cb84       $unwind$??1TriangleMeshData@Gu@physx@@UEAA@XZ 0000000180052b84     TriangleMeshBuilder.obj
 0002:0000cb84       $unwind$??_GBV4TriangleData@Gu@physx@@UEAAPEAXI@Z 0000000180052b84     TriangleMeshBuilder.obj
 0002:0000cb84       $unwind$??_GMeshDataBase@Gu@physx@@UEAAPEAXI@Z 0000000180052b84     TriangleMeshBuilder.obj
 0002:0000cb84       $unwind$??_GRTreeTriangleData@Gu@physx@@UEAAPEAXI@Z 0000000180052b84     TriangleMeshBuilder.obj
 0002:0000cb84       $unwind$??_GRTreeTriangleMeshBuilder@physx@@UEAAPEAXI@Z 0000000180052b84     TriangleMeshBuilder.obj
 0002:0000cb84       $unwind$??_GTriangleMeshBuilder@physx@@UEAAPEAXI@Z 0000000180052b84     TriangleMeshBuilder.obj
 0002:0000cb84       $unwind$??_GTriangleMeshData@Gu@physx@@UEAAPEAXI@Z 0000000180052b84     TriangleMeshBuilder.obj
 0002:0000cb84       $unwind$??$common_initialize_environment_nolock@D@@YAHXZ 0000000180052b84     libucrt:environment_initialization.obj
 0002:0000cb84       $unwind$_realloc_base      0000000180052b84     libucrt:realloc_base.obj
 0002:0000cb84       $unwind$?replace_current_thread_locale_nolock@@YAXQEAU__acrt_ptd@@QEAU__crt_locale_data@@@Z 0000000180052b84     libucrt:per_thread_data.obj
 0002:0000cb84       $unwind$__acrt_execute_uninitializers 0000000180052b84     libucrt:shared_initialization.obj
 0002:0000cb84       $unwind$__acrt_FlsSetValue 0000000180052b84     libucrt:winapi_thunks.obj
 0002:0000cb84       $unwind$__acrt_LocaleNameToLCID 0000000180052b84     libucrt:winapi_thunks.obj
 0002:0000cb84       $unwind$_updatetlocinfoEx_nolock 0000000180052b84     libucrt:locale_refcounting.obj
 0002:0000cb84       $unwind$_close_nolock      0000000180052b84     libucrt:close.obj
 0002:0000cb84       $unwind$__acrt_uninitialize_lowio 0000000180052b84     libucrt:ioinit.obj
 0002:0000cb84       $unwind$__acrt_errno_map_os_error 0000000180052b84     libucrt:errno.obj
 0002:0000cb84       $unwind$_initterm_e        0000000180052b84     libucrt:initterm.obj
 0002:0000cb84       $unwind$_fclose_nolock     0000000180052b84     libucrt:fclose.obj
 0002:0000cb84       $unwind$?type_case_n@?$output_processor@DV?$string_output_adapter@D@__crt_stdio_output@@V?$format_validation_base@DV?$string_output_adapter@D@__crt_stdio_output@@@2@@__crt_stdio_output@@AEAA_NXZ 0000000180052b84     libucrt:output.obj
 0002:0000cb84       $unwind$?type_case_n@?$output_processor@DV?$string_output_adapter@D@__crt_stdio_output@@V?$standard_base@DV?$string_output_adapter@D@__crt_stdio_output@@@2@@__crt_stdio_output@@AEAA_NXZ 0000000180052b84     libucrt:output.obj
 0002:0000cb84       $unwind$strncpy_s          0000000180052b84     libucrt:strncpy_s.obj
 0002:0000cb84       $unwind$?DloadGetSRWLockFunctionPointers@@YAEXZ 0000000180052b84     Delayimp:delayhlp.obj
 0002:0000cb84       $unwind$_RTC_Initialize    0000000180052b84     LIBCMT:initsect.obj
 0002:0000cb84       $unwind$_RTC_Terminate     0000000180052b84     LIBCMT:initsect.obj
 0002:0000cb84       $unwind$__FrameUnwindFilter 0000000180052b84     libvcruntime:ehhelpers.obj
 0002:0000cb84       $unwind$??_Gbad_exception@std@@UEAAPEAXI@Z 0000000180052b84     libvcruntime:frame.obj
 0002:0000cb84       $unwind$??_Gexception@std@@UEAAPEAXI@Z 0000000180052b84     libvcruntime:frame.obj
 0002:0000cb84       $unwind$?ExFilterRethrow@@YAHPEAU_EXCEPTION_POINTERS@@PEAUEHExceptionRecord@@PEAH@Z 0000000180052b84     libvcruntime:frame.obj
 0002:0000cb84       $unwind$?ExFilterRethrowFH4@@YAHPEAU_EXCEPTION_POINTERS@@PEAUEHExceptionRecord@@HPEAH@Z 0000000180052b84     libvcruntime:frame.obj
 0002:0000cb84       $unwind$_FindAndUnlinkFrame 0000000180052b84     libvcruntime:risctrnsctrl.obj
 0002:0000cb84       $unwind$??$append@VDNameNode@@@DName@@AEAAXPEBVDNameNode@@@Z 0000000180052b84     libvcruntime:undname.obj
 0002:0000cb84       $unwind$??$append@VDNameStatusNode@@@DName@@AEAAXPEBVDNameStatusNode@@@Z 0000000180052b84     libvcruntime:undname.obj
 0002:0000cb84       $unwind$??$append@VcharNode@@@DName@@AEAAXPEBVcharNode@@@Z 0000000180052b84     libvcruntime:undname.obj
 0002:0000cb84       $unwind$??$append@VpcharNode@@@DName@@AEAAXPEBVpcharNode@@@Z 0000000180052b84     libvcruntime:undname.obj
 0002:0000cb84       $unwind$??YDName@@QEAAAEAV0@AEBUStringLiteral@@@Z 0000000180052b84     libvcruntime:undname.obj
 0002:0000cb84       $unwind$??YDName@@QEAAAEAV0@D@Z 0000000180052b84     libvcruntime:undname.obj
 0002:0000cb84       $unwind$??YReplicator@@QEAAAEAV0@AEBVDName@@@Z 0000000180052b84     libvcruntime:undname.obj
 0002:0000cb84       $unwind$?getString@pairNode@@UEBAPEADPEAD0@Z 0000000180052b84     libvcruntime:undname.obj
 0002:0000cb84       $unwind$?length@pairNode@@UEBAHXZ 0000000180052b84     libvcruntime:undname.obj
 0002:0000cb84       $unwind$__vcrt_FlsSetValue 0000000180052b84     libvcruntime:winapi_downlevel.obj
 0002:0000cb90       $unwind$?growAndPushBack@?$Array@VPair@@V?$ReflectionAllocator@VPair@@@shdfnd@physx@@@shdfnd@physx@@IEAAAEAVPair@@AEBV4@@Z 0000000180052b90     ConvexPolygonsBuilder.obj
 0002:0000cb90       $unwind$?outputSegment@RenderOutput@Cm@physx@@QEAAXAEBVPxVec3@3@0@Z 0000000180052b90     Cooking.obj
 0002:0000cba8       $unwind$?getHeight@HeightField@Gu@physx@@UEBAMMM@Z 0000000180052ba8     Cooking.obj
 0002:0000cba8       $unwind$__dcrt_lowio_ensure_console_output_initialized 0000000180052ba8     libucrt:initcon.obj
 0002:0000cba8       $unwind$_isleadbyte_l      0000000180052ba8     libucrt:_wctype.obj
 0002:0000cba8       $unwind$?getSystemCP@@YAHH@Z 0000000180052ba8     libucrt:mbctype.obj
 0002:0000cba8       $unwind$?getAddressOf@UnDecorator@@CA?AVDName@@XZ 0000000180052ba8     libvcruntime:undname.obj
 0002:0000cba8       $unwind$?getArrayAccess@UnDecorator@@CA?AVDName@@XZ 0000000180052ba8     libvcruntime:undname.obj
 0002:0000cba8       $unwind$?getArrayObject@UnDecorator@@CA?AVDName@@XZ 0000000180052ba8     libvcruntime:undname.obj
 0002:0000cba8       $unwind$?getMemberAccess@UnDecorator@@CA?AVDName@@XZ 0000000180052ba8     libvcruntime:undname.obj
 0002:0000cba8       $unwind$?getStringEncoding@UnDecorator@@CA?AVDName@@W4PrefixKind@@H@Z 0000000180052ba8     libvcruntime:undname.obj
 0002:0000cba8       $unwind$?getUnionObject@UnDecorator@@CA?AVDName@@XZ 0000000180052ba8     libvcruntime:undname.obj
 0002:0000cbb0       $unwind$?getHeightInternal2@HeightField@Gu@physx@@QEBAMIMM@Z 0000000180052bb0     Cooking.obj
 0002:0000cbbc       $chain$0$?getHeightInternal2@HeightField@Gu@physx@@QEBAMIMM@Z 0000000180052bbc     Cooking.obj
 0002:0000cbd0       $chain$2$?getHeightInternal2@HeightField@Gu@physx@@QEBAMIMM@Z 0000000180052bd0     Cooking.obj
 0002:0000cbe4       $unwind$?Reduce@ReducedVertexCloud@physx@@QEAA_NPEAUREDUCEDCLOUD@2@@Z 0000000180052be4     CookingUtils.obj
 0002:0000cbf0       $chain$3$?Reduce@ReducedVertexCloud@physx@@QEAA_NPEAUREDUCEDCLOUD@2@@Z 0000000180052bf0     CookingUtils.obj
 0002:0000cc10       $chain$4$?Reduce@ReducedVertexCloud@physx@@QEAA_NPEAUREDUCEDCLOUD@2@@Z 0000000180052c10     CookingUtils.obj
 0002:0000cc24       $chain$5$?Reduce@ReducedVertexCloud@physx@@QEAA_NPEAUREDUCEDCLOUD@2@@Z 0000000180052c24     CookingUtils.obj
 0002:0000cc34       $chain$6$?Reduce@ReducedVertexCloud@physx@@QEAA_NPEAUREDUCEDCLOUD@2@@Z 0000000180052c34     CookingUtils.obj
 0002:0000cc4c       $chain$7$?Reduce@ReducedVertexCloud@physx@@QEAA_NPEAUREDUCEDCLOUD@2@@Z 0000000180052c4c     CookingUtils.obj
 0002:0000cc5c       $unwind$??1AABBTreeBuildParams@Gu@physx@@QEAA@XZ 0000000180052c5c     BVHStructureBuilder.obj
 0002:0000cc5c       $unwind$??1BVHStructureBuilder@physx@@QEAA@XZ 0000000180052c5c     BVHStructureBuilder.obj
 0002:0000cc5c       $unwind$?reset@AABBTreeBuildParams@Gu@physx@@QEAAXXZ 0000000180052c5c     BVHStructureBuilder.obj
 0002:0000cc5c       $unwind$??1ConvexHullBuilder@physx@@QEAA@XZ 0000000180052c5c     ConvexHullBuilder.obj
 0002:0000cc5c       $unwind$??_GConvexHullLib@physx@@UEAAPEAXI@Z 0000000180052c5c     ConvexHullLib.obj
 0002:0000cc5c       $unwind$?resize@?$Array@VPxPlane@physx@@V?$ReflectionAllocator@VPxPlane@physx@@@shdfnd@2@@shdfnd@physx@@QEAAXIAEBVPxPlane@3@@Z 0000000180052c5c     ConvexHullUtils.obj
 0002:0000cc5c       $unwind$?resize@?$Array@VPxVec3@physx@@V?$ReflectionAllocator@VPxVec3@physx@@@shdfnd@2@@shdfnd@physx@@QEAAXIAEBVPxVec3@3@@Z 0000000180052c5c     ConvexHullUtils.obj
 0002:0000cc5c       $unwind$??1EdgeList@Gu@physx@@QEAA@XZ 0000000180052c5c     EdgeList.obj
 0002:0000cc5c       $unwind$??1MeshCleaner@physx@@QEAA@XZ 0000000180052c5c     MeshCleaner.obj
 0002:0000cc5c       $unwind$??1MeshDataBase@Gu@physx@@UEAA@XZ 0000000180052c5c     TriangleMeshBuilder.obj
 0002:0000cc5c       $unwind$??_GBV4TriangleMeshBuilder@physx@@UEAAPEAXI@Z 0000000180052c5c     TriangleMeshBuilder.obj
 0002:0000cc5c       $unwind$memcpy_s           0000000180052c5c     libucrt:cfout.obj
 0002:0000cc5c       $unwind$__acrt_getptd      0000000180052c5c     libucrt:per_thread_data.obj
 0002:0000cc5c       $unwind$__acrt_getptd_noexit 0000000180052c5c     libucrt:per_thread_data.obj
 0002:0000cc5c       $unwind$__acrt_execute_initializers 0000000180052c5c     libucrt:shared_initialization.obj
 0002:0000cc5c       $unwind$__acrt_InitializeCriticalSectionEx 0000000180052c5c     libucrt:winapi_thunks.obj
 0002:0000cc5c       $unwind$?free_crt_array_internal@@YAXQEAPEBX_K@Z 0000000180052c5c     libucrt:inittime.obj
 0002:0000cc5c       $unwind$??$common_lseek_nolock@_J@@YA_JH_JH@Z 0000000180052c5c     libucrt:lseek.obj
 0002:0000cc5c       $unwind$__acrt_stdio_flush_nolock 0000000180052c5c     libucrt:fflush.obj
 0002:0000cc5c       $unwind$??0_LocaleUpdate@@QEAA@QEAU__crt_locale_pointers@@@Z 0000000180052c5c     libucrt:output.obj
 0002:0000cc5c       $unwind$_exception_enabled 0000000180052c5c     libucrt:libm_error.obj
 0002:0000cc5c       $unwind$_DllMainCRTStartup 0000000180052c5c     LIBCMT:dll_dllmain.obj
 0002:0000cc5c       $unwind$__vcrt_getptd_noexit 0000000180052c5c     libvcruntime:per_thread_data.obj
 0002:0000cc5c       $unwind$??$?0$01@pcharNode@@QEAA@PEBDHU?$StringLifeSelector@$01@@@Z 0000000180052c5c     libvcruntime:undname.obj
 0002:0000cc5c       $unwind$??$?0$0A@@pcharNode@@QEAA@PEBDHU?$StringLifeSelector@$0A@@@@Z 0000000180052c5c     libvcruntime:undname.obj
 0002:0000cc5c       $unwind$??$doPchar@$01@DName@@AEAAXPEBDH@Z 0000000180052c5c     libvcruntime:undname.obj
 0002:0000cc5c       $unwind$??$doPchar@$0A@@DName@@AEAAXPEBDH@Z 0000000180052c5c     libvcruntime:undname.obj
 0002:0000cc5c       $unwind$??0DName@@QEAA@AEAPEBDD@Z 0000000180052c5c     libvcruntime:undname.obj
 0002:0000cc5c       $unwind$??0DName@@QEAA@PEAV0@@Z 0000000180052c5c     libvcruntime:undname.obj
 0002:0000cc5c       $unwind$?getMemoryWithBuffer@_HeapManager@@QEAAPEAX_K@Z 0000000180052c5c     libvcruntime:undname.obj
 0002:0000cc5c       $unwind$__vcrt_InitializeCriticalSectionEx 0000000180052c5c     libvcruntime:winapi_downlevel.obj
 0002:0000cc6c       $unwind$?init@EdgeListBuilder@Gu@physx@@QEAA_NAEBUEDGELISTCREATE@23@@Z 0000000180052c6c     EdgeList.obj
 0002:0000cc6c       $unwind$_invalid_parameter 0000000180052c6c     libucrt:invalid_parameter.obj
 0002:0000cc80       $unwind$?createFacesToEdges@EdgeListBuilder@Gu@physx@@AEAA_NIPEBIPEBG@Z 0000000180052c80     EdgeList.obj
 0002:0000cc90       $chain$0$?createFacesToEdges@EdgeListBuilder@Gu@physx@@AEAA_NIPEBIPEBG@Z 0000000180052c90     EdgeList.obj
 0002:0000cca4       $chain$3$?createFacesToEdges@EdgeListBuilder@Gu@physx@@AEAA_NIPEBIPEBG@Z 0000000180052ca4     EdgeList.obj
 0002:0000ccc0       $chain$4$?createFacesToEdges@EdgeListBuilder@Gu@physx@@AEAA_NIPEBIPEBG@Z 0000000180052cc0     EdgeList.obj
 0002:0000ccd8       $chain$5$?createFacesToEdges@EdgeListBuilder@Gu@physx@@AEAA_NIPEBIPEBG@Z 0000000180052cd8     EdgeList.obj
 0002:0000ccf0       $chain$6$?createFacesToEdges@EdgeListBuilder@Gu@physx@@AEAA_NIPEBIPEBG@Z 0000000180052cf0     EdgeList.obj
 0002:0000cd04       $chain$7$?createFacesToEdges@EdgeListBuilder@Gu@physx@@AEAA_NIPEBIPEBG@Z 0000000180052d04     EdgeList.obj
 0002:0000cd14       $unwind$?createEdgesToFaces@EdgeListBuilder@Gu@physx@@AEAA_NIPEBIPEBG@Z 0000000180052d14     EdgeList.obj
 0002:0000cd20       $chain$2$?createEdgesToFaces@EdgeListBuilder@Gu@physx@@AEAA_NIPEBIPEBG@Z 0000000180052d20     EdgeList.obj
 0002:0000cd3c       $chain$3$?createEdgesToFaces@EdgeListBuilder@Gu@physx@@AEAA_NIPEBIPEBG@Z 0000000180052d3c     EdgeList.obj
 0002:0000cd54       $chain$4$?createEdgesToFaces@EdgeListBuilder@Gu@physx@@AEAA_NIPEBIPEBG@Z 0000000180052d54     EdgeList.obj
 0002:0000cd68       $unwind$?computeActiveEdges@EdgeListBuilder@Gu@physx@@AEAA_NIPEBIPEBGPEBVPxVec3@3@M@Z 0000000180052d68     EdgeList.obj
 0002:0000cd78       $chain$0$?computeActiveEdges@EdgeListBuilder@Gu@physx@@AEAA_NIPEBIPEBGPEBVPxVec3@3@M@Z 0000000180052d78     EdgeList.obj
 0002:0000cd8c       $chain$3$?computeActiveEdges@EdgeListBuilder@Gu@physx@@AEAA_NIPEBIPEBGPEBVPxVec3@3@M@Z 0000000180052d8c     EdgeList.obj
 0002:0000cda4       $chain$16$?computeActiveEdges@EdgeListBuilder@Gu@physx@@AEAA_NIPEBIPEBGPEBVPxVec3@3@M@Z 0000000180052da4     EdgeList.obj
 0002:0000cde8       $chain$17$?computeActiveEdges@EdgeListBuilder@Gu@physx@@AEAA_NIPEBIPEBGPEBVPxVec3@3@M@Z 0000000180052de8     EdgeList.obj
 0002:0000cdfc       $chain$18$?computeActiveEdges@EdgeListBuilder@Gu@physx@@AEAA_NIPEBIPEBGPEBVPxVec3@3@M@Z 0000000180052dfc     EdgeList.obj
 0002:0000ce0c       $chain$19$?computeActiveEdges@EdgeListBuilder@Gu@physx@@AEAA_NIPEBIPEBGPEBVPxVec3@3@M@Z 0000000180052e0c     EdgeList.obj
 0002:0000ce1c       $chain$0$??$?_UI@@YAPEAX_KV?$ReflectionAllocator@I@shdfnd@physx@@PEBDH@Z 0000000180052e1c     EdgeList.obj
 0002:0000ce30       $chain$1$??$?_UI@@YAPEAX_KV?$ReflectionAllocator@I@shdfnd@physx@@PEBDH@Z 0000000180052e30     EdgeList.obj
 0002:0000ce40       $unwind$??0MeshCleaner@physx@@QEAA@IPEBVPxVec3@1@IPEBIM@Z 0000000180052e40     MeshCleaner.obj
 0002:0000ce4c       $chain$1$??0MeshCleaner@physx@@QEAA@IPEBVPxVec3@1@IPEBIM@Z 0000000180052e4c     MeshCleaner.obj
 0002:0000ce64       $chain$5$??0MeshCleaner@physx@@QEAA@IPEBVPxVec3@1@IPEBIM@Z 0000000180052e64     MeshCleaner.obj
 0002:0000ce84       $chain$7$??0MeshCleaner@physx@@QEAA@IPEBVPxVec3@1@IPEBIM@Z 0000000180052e84     MeshCleaner.obj
 0002:0000ce9c       $chain$8$??0MeshCleaner@physx@@QEAA@IPEBVPxVec3@1@IPEBIM@Z 0000000180052e9c     MeshCleaner.obj
 0002:0000ceb0       $chain$9$??0MeshCleaner@physx@@QEAA@IPEBVPxVec3@1@IPEBIM@Z 0000000180052eb0     MeshCleaner.obj
 0002:0000cec0       $chain$10$??0MeshCleaner@physx@@QEAA@IPEBVPxVec3@1@IPEBIM@Z 0000000180052ec0     MeshCleaner.obj
 0002:0000ced0       $chain$11$??0MeshCleaner@physx@@QEAA@IPEBVPxVec3@1@IPEBIM@Z 0000000180052ed0     MeshCleaner.obj
 0002:0000ceec       $chain$12$??0MeshCleaner@physx@@QEAA@IPEBVPxVec3@1@IPEBIM@Z 0000000180052eec     MeshCleaner.obj
 0002:0000cefc       $unwind$?createQuantizer@physx@@YAPEAVQuantizer@1@XZ 0000000180052efc     Quantizer.obj
 0002:0000cefc       $unwind$?__mbrtowc_utf8@__crt_mbstring@@YA_KPEA_WPEBD_KPEAU_Mbstatet@@@Z 0000000180052efc     libucrt:mbrtowc.obj
 0002:0000cefc       $unwind$?type_case_c_tchar@?$output_processor@DV?$string_output_adapter@D@__crt_stdio_output@@V?$format_validation_base@DV?$string_output_adapter@D@__crt_stdio_output@@@2@@__crt_stdio_output@@AEAA_ND@Z 0000000180052efc     libucrt:output.obj
 0002:0000cefc       $unwind$?type_case_c_tchar@?$output_processor@DV?$string_output_adapter@D@__crt_stdio_output@@V?$standard_base@DV?$string_output_adapter@D@__crt_stdio_output@@@2@@__crt_stdio_output@@AEAA_ND@Z 0000000180052efc     libucrt:output.obj
 0002:0000cefc       $unwind$__stdio_common_vsprintf_s 0000000180052efc     libucrt:output.obj
 0002:0000cefc       $unwind$?getNoexcept@UnDecorator@@CA?AVDName@@XZ 0000000180052efc     libvcruntime:undname.obj
 0002:0000cefc       $unwind$?getVCallThunkType@UnDecorator@@CA?AVDName@@XZ 0000000180052efc     libvcruntime:undname.obj
 0002:0000cefc       $unwind$?getVdispMapType@UnDecorator@@CA?AVDName@@AEBV2@@Z 0000000180052efc     libvcruntime:undname.obj
 0002:0000cf04       $unwind$??$kmeans_cluster@VPxVec3@physx@@M@@YAIPEBVPxVec3@physx@@IIPEAV01@PEAIMM@Z 0000000180052f04     Quantizer.obj
 0002:0000cf10       $chain$6$??$kmeans_cluster@VPxVec3@physx@@M@@YAIPEBVPxVec3@physx@@IIPEAV01@PEAIMM@Z 0000000180052f10     Quantizer.obj
 0002:0000cf3c       $chain$12$??$kmeans_cluster@VPxVec3@physx@@M@@YAIPEBVPxVec3@physx@@IIPEAV01@PEAIMM@Z 0000000180052f3c     Quantizer.obj
 0002:0000cf64       $chain$13$??$kmeans_cluster@VPxVec3@physx@@M@@YAIPEBVPxVec3@physx@@IIPEAV01@PEAIMM@Z 0000000180052f64     Quantizer.obj
 0002:0000cf74       $chain$14$??$kmeans_cluster@VPxVec3@physx@@M@@YAIPEBVPxVec3@physx@@IIPEAV01@PEAIMM@Z 0000000180052f74     Quantizer.obj
 0002:0000cf84       $unwind$?kmeansQuantize3D@QuantizerImpl@@UEAAPEBVPxVec3@physx@@IPEBV23@I_NIAEAI@Z 0000000180052f84     Quantizer.obj
 0002:0000cf94       $chain$0$?kmeansQuantize3D@QuantizerImpl@@UEAAPEBVPxVec3@physx@@IPEBV23@I_NIAEAI@Z 0000000180052f94     Quantizer.obj
 0002:0000cfa8       $chain$2$?kmeansQuantize3D@QuantizerImpl@@UEAAPEBVPxVec3@physx@@IPEBV23@I_NIAEAI@Z 0000000180052fa8     Quantizer.obj
 0002:0000cfc0       $chain$3$?kmeansQuantize3D@QuantizerImpl@@UEAAPEBVPxVec3@physx@@IPEBV23@I_NIAEAI@Z 0000000180052fc0     Quantizer.obj
 0002:0000cfd4       $chain$4$?kmeansQuantize3D@QuantizerImpl@@UEAAPEBVPxVec3@physx@@IPEBV23@I_NIAEAI@Z 0000000180052fd4     Quantizer.obj
 0002:0000cfe4       $chain$5$?kmeansQuantize3D@QuantizerImpl@@UEAAPEBVPxVec3@physx@@IPEBV23@I_NIAEAI@Z 0000000180052fe4     Quantizer.obj
 0002:0000cff4       $unwind$?normalizeInput@QuantizerImpl@@AEAAXIPEBVPxVec3@physx@@I@Z 0000000180052ff4     Quantizer.obj
 0002:0000d010       $chain$3$?normalizeInput@QuantizerImpl@@AEAAXIPEBVPxVec3@physx@@I@Z 0000000180053010     Quantizer.obj
 0002:0000d030       $chain$6$?normalizeInput@QuantizerImpl@@AEAAXIPEBVPxVec3@physx@@I@Z 0000000180053030     Quantizer.obj
 0002:0000d04c       $chain$7$?normalizeInput@QuantizerImpl@@AEAAXIPEBVPxVec3@physx@@I@Z 000000018005304c     Quantizer.obj
 0002:0000d05c       $chain$8$?normalizeInput@QuantizerImpl@@AEAAXIPEBVPxVec3@physx@@I@Z 000000018005305c     Quantizer.obj
 0002:0000d06c       $chain$10$?normalizeInput@QuantizerImpl@@AEAAXIPEBVPxVec3@physx@@I@Z 000000018005306c     Quantizer.obj
 0002:0000d084       $chain$11$?normalizeInput@QuantizerImpl@@AEAAXIPEBVPxVec3@physx@@I@Z 0000000180053084     Quantizer.obj
 0002:0000d094       $unwind$?growAndPushBack@?$Array@VPxVec3@physx@@V?$ReflectionAllocator@VPxVec3@physx@@@shdfnd@2@@shdfnd@physx@@IEAAAEAVPxVec3@3@AEBV43@@Z 0000000180053094     Quantizer.obj
 0002:0000d094       $unwind$?doAdjacentMerge@QuickHull@local@@IEAA_NAEAUQuickHullFace@2@_NAEA_N@Z 0000000180053094     QuickHullConvexHullLib.obj
 0002:0000d094       $unwind$?saveMidPhaseStructure@BV4TriangleMeshBuilder@physx@@UEBAXAEAVPxOutputStream@2@_N@Z 0000000180053094     TriangleMeshBuilder.obj
 0002:0000d0a0       $chain$0$?growAndPushBack@?$Array@VPxVec3@physx@@V?$ReflectionAllocator@VPxVec3@physx@@@shdfnd@2@@shdfnd@physx@@IEAAAEAVPxVec3@3@AEBV43@@Z 00000001800530a0     Quantizer.obj
 0002:0000d0b4       $chain$1$?growAndPushBack@?$Array@VPxVec3@physx@@V?$ReflectionAllocator@VPxVec3@physx@@@shdfnd@2@@shdfnd@physx@@IEAAAEAVPxVec3@3@AEBV43@@Z 00000001800530b4     Quantizer.obj
 0002:0000d0c8       $chain$2$?growAndPushBack@?$Array@VPxVec3@physx@@V?$ReflectionAllocator@VPxVec3@physx@@@shdfnd@2@@shdfnd@physx@@IEAAAEAVPxVec3@3@AEBV43@@Z 00000001800530c8     Quantizer.obj
 0002:0000d0d8       $chain$4$?growAndPushBack@?$Array@VPxVec3@physx@@V?$ReflectionAllocator@VPxVec3@physx@@@shdfnd@2@@shdfnd@physx@@IEAAAEAVPxVec3@3@AEBV43@@Z 00000001800530d8     Quantizer.obj
 0002:0000d0ec       $chain$3$?growAndPushBack@?$Array@VPxVec3@physx@@V?$ReflectionAllocator@VPxVec3@physx@@@shdfnd@2@@shdfnd@physx@@IEAAAEAVPxVec3@3@AEBV43@@Z 00000001800530ec     Quantizer.obj
 0002:0000d0fc       $unwind$??_GQuantizerImpl@@EEAAPEAXI@Z 00000001800530fc     Quantizer.obj
 0002:0000d0fc       $unwind$??_GConvexHull@physx@@QEAAPEAXI@Z 00000001800530fc     QuickHullConvexHullLib.obj
 0002:0000d108       $chain$0$??_GQuantizerImpl@@EEAAPEAXI@Z 0000000180053108     Quantizer.obj
 0002:0000d11c       $chain$1$??_GQuantizerImpl@@EEAAPEAXI@Z 000000018005311c     Quantizer.obj
 0002:0000d12c       $unwind$?loadFromDesc@BVHStructureBuilder@physx@@QEAA_NAEBVPxBVHStructureDesc@2@@Z 000000018005312c     BVHStructureBuilder.obj
 0002:0000d140       $unwind$?save@BVHStructureBuilder@physx@@QEBA_NAEAVPxOutputStream@2@_N@Z 0000000180053140     BVHStructureBuilder.obj
 0002:0000d150       $chain$2$?save@BVHStructureBuilder@physx@@QEBA_NAEAVPxOutputStream@2@_N@Z 0000000180053150     BVHStructureBuilder.obj
 0002:0000d168       $chain$3$?save@BVHStructureBuilder@physx@@QEBA_NAEAVPxOutputStream@2@_N@Z 0000000180053168     BVHStructureBuilder.obj
 0002:0000d17c       $chain$1$?allocate@?$Array@USlab@NodeAllocator@Gu@physx@@V?$ReflectionAllocator@USlab@NodeAllocator@Gu@physx@@@shdfnd@4@@shdfnd@physx@@IEAAPEAUSlab@NodeAllocator@Gu@3@I@Z 000000018005317c     BVHStructureBuilder.obj
 0002:0000d194       $chain$3$?allocate@?$Array@USlab@NodeAllocator@Gu@physx@@V?$ReflectionAllocator@USlab@NodeAllocator@Gu@physx@@@shdfnd@4@@shdfnd@physx@@IEAAPEAUSlab@NodeAllocator@Gu@3@I@Z 0000000180053194     BVHStructureBuilder.obj
 0002:0000d1a8       $chain$4$?allocate@?$Array@USlab@NodeAllocator@Gu@physx@@V?$ReflectionAllocator@USlab@NodeAllocator@Gu@physx@@@shdfnd@4@@shdfnd@physx@@IEAAPEAUSlab@NodeAllocator@Gu@3@I@Z 00000001800531a8     BVHStructureBuilder.obj
 0002:0000d1b8       $chain$0$?recreate@?$Array@USlab@NodeAllocator@Gu@physx@@V?$ReflectionAllocator@USlab@NodeAllocator@Gu@physx@@@shdfnd@4@@shdfnd@physx@@IEAAXI@Z 00000001800531b8     BVHStructureBuilder.obj
 0002:0000d1cc       $chain$1$?recreate@?$Array@USlab@NodeAllocator@Gu@physx@@V?$ReflectionAllocator@USlab@NodeAllocator@Gu@physx@@@shdfnd@4@@shdfnd@physx@@IEAAXI@Z 00000001800531cc     BVHStructureBuilder.obj
 0002:0000d1dc       $unwind$??4NodeAllocator@Gu@physx@@QEAAAEAV012@AEBV012@@Z 00000001800531dc     BVHStructureBuilder.obj
 0002:0000d1dc       $unwind$_free_osfhnd       00000001800531dc     libucrt:osfinfo.obj
 0002:0000d1dc       $unwind$?process@?$output_processor@DV?$string_output_adapter@D@__crt_stdio_output@@V?$format_validation_base@DV?$string_output_adapter@D@__crt_stdio_output@@@2@@__crt_stdio_output@@QEAAHXZ 00000001800531dc     libucrt:output.obj
 0002:0000d1dc       $unwind$__std_exception_copy 00000001800531dc     libvcruntime:std_exception.obj
 0002:0000d1dc       $unwind$??$doPchar@$00@DName@@AEAAXPEBDH@Z 00000001800531dc     libvcruntime:undname.obj
 0002:0000d1f0       $unwind$?flatten@@YAXAEBVNodeAllocator@Gu@physx@@PEAUBVHNode@23@@Z 00000001800531f0     BVHStructureBuilder.obj
 0002:0000d1fc       $chain$5$?flatten@@YAXAEBVNodeAllocator@Gu@physx@@PEAUBVHNode@23@@Z 00000001800531fc     BVHStructureBuilder.obj
 0002:0000d224       $chain$6$?flatten@@YAXAEBVNodeAllocator@Gu@physx@@PEAUBVHNode@23@@Z 0000000180053224     BVHStructureBuilder.obj
 0002:0000d234       $chain$7$?flatten@@YAXAEBVNodeAllocator@Gu@physx@@PEAUBVHNode@23@@Z 0000000180053234     BVHStructureBuilder.obj
 0002:0000d25c       $unwind$?saveHeightField@physx@@YA_NAEBVHeightField@Gu@1@AEAVPxOutputStream@1@_N@Z 000000018005325c     HeightFieldCooking.obj
 0002:0000d26c       $chain$2$?saveHeightField@physx@@YA_NAEBVHeightField@Gu@1@AEAVPxOutputStream@1@_N@Z 000000018005326c     HeightFieldCooking.obj
 0002:0000d284       $chain$3$?saveHeightField@physx@@YA_NAEBVHeightField@Gu@1@AEAVPxOutputStream@1@_N@Z 0000000180053284     HeightFieldCooking.obj
 0002:0000d294       $chain$0$?allocate@?$ReflectionAllocator@I@shdfnd@physx@@QEAAPEAX_KPEBDH@Z 0000000180053294     RTreeCooking.obj
 0002:0000d2a8       $chain$1$?allocate@?$ReflectionAllocator@I@shdfnd@physx@@QEAAPEAX_KPEBDH@Z 00000001800532a8     RTreeCooking.obj
 0002:0000d2b8       $unwind$?buildFromTriangles@RTreeCooker@physx@@SAXAEAURTree@Gu@2@PEBVPxVec3@2@IPEBGPEBIIAEAV?$Array@IV?$ReflectionAllocator@I@shdfnd@physx@@@shdfnd@2@PEAURemapCallback@12@MW4Enum@PxMeshCookingHint@2@@Z 00000001800532b8     RTreeCooking.obj
 0002:0000d2c4       $chain$7$?buildFromTriangles@RTreeCooker@physx@@SAXAEAURTree@Gu@2@PEBVPxVec3@2@IPEBGPEBIIAEAV?$Array@IV?$ReflectionAllocator@I@shdfnd@physx@@@shdfnd@2@PEAURemapCallback@12@MW4Enum@PxMeshCookingHint@2@@Z 00000001800532c4     RTreeCooking.obj
 0002:0000d2f4       $chain$9$?buildFromTriangles@RTreeCooker@physx@@SAXAEAURTree@Gu@2@PEBVPxVec3@2@IPEBGPEBIIAEAV?$Array@IV?$ReflectionAllocator@I@shdfnd@physx@@@shdfnd@2@PEAURemapCallback@12@MW4Enum@PxMeshCookingHint@2@@Z 00000001800532f4     RTreeCooking.obj
 0002:0000d30c       $chain$10$?buildFromTriangles@RTreeCooker@physx@@SAXAEAURTree@Gu@2@PEBVPxVec3@2@IPEBGPEBIIAEAV?$Array@IV?$ReflectionAllocator@I@shdfnd@physx@@@shdfnd@2@PEAURemapCallback@12@MW4Enum@PxMeshCookingHint@2@@Z 000000018005330c     RTreeCooking.obj
 0002:0000d31c       $chain$11$?buildFromTriangles@RTreeCooker@physx@@SAXAEAURTree@Gu@2@PEBVPxVec3@2@IPEBGPEBIIAEAV?$Array@IV?$ReflectionAllocator@I@shdfnd@physx@@@shdfnd@2@PEAURemapCallback@12@MW4Enum@PxMeshCookingHint@2@@Z 000000018005331c     RTreeCooking.obj
 0002:0000d32c       $unwind$?buildFromBounds@physx@@YAXAEAURTree@Gu@1@PEBUPxBounds3V@1@IAEAV?$Array@IV?$ReflectionAllocator@I@shdfnd@physx@@@shdfnd@1@PEAURemapCallback@RTreeCooker@1@AEAT__m128@@4MW4Enum@PxMeshCookingHint@1@@Z 000000018005332c     RTreeCooking.obj
 0002:0000d34c       $chain$1$?allocate@?$Array@UPxBounds3V@physx@@V?$ReflectionAllocator@UPxBounds3V@physx@@@shdfnd@2@@shdfnd@physx@@IEAAPEAUPxBounds3V@3@I@Z 000000018005334c     RTreeCooking.obj
 0002:0000d364       $chain$3$?allocate@?$Array@UPxBounds3V@physx@@V?$ReflectionAllocator@UPxBounds3V@physx@@@shdfnd@2@@shdfnd@physx@@IEAAPEAUPxBounds3V@3@I@Z 0000000180053364     RTreeCooking.obj
 0002:0000d378       $chain$4$?allocate@?$Array@UPxBounds3V@physx@@V?$ReflectionAllocator@UPxBounds3V@physx@@@shdfnd@2@@shdfnd@physx@@IEAAPEAUPxBounds3V@3@I@Z 0000000180053378     RTreeCooking.obj
 0002:0000d388       $unwind$?growAndPushBack@?$Array@VHalfEdge@ConvexHull@physx@@V?$ReflectionAllocator@VHalfEdge@ConvexHull@physx@@@shdfnd@3@@shdfnd@physx@@IEAAAEAVHalfEdge@ConvexHull@3@AEBV453@@Z 0000000180053388     ConvexHullUtils.obj
 0002:0000d388       $unwind$?growAndPushBack@?$Array@VPxPlane@physx@@V?$ReflectionAllocator@VPxPlane@physx@@@shdfnd@2@@shdfnd@physx@@IEAAAEAVPxPlane@3@AEBV43@@Z 0000000180053388     ConvexHullUtils.obj
 0002:0000d388       $unwind$?resize@?$Array@VHalfEdge@ConvexHull@physx@@V?$ReflectionAllocator@VHalfEdge@ConvexHull@physx@@@shdfnd@3@@shdfnd@physx@@QEAAXIAEBVHalfEdge@ConvexHull@3@@Z 0000000180053388     ConvexHullUtils.obj
 0002:0000d388       $unwind$??_GQuickHullConvexHullLib@physx@@UEAAPEAXI@Z 0000000180053388     QuickHullConvexHullLib.obj
 0002:0000d388       $unwind$?growAndPushBack@?$Array@PEAUQuickHullFace@local@@V?$ReflectionAllocator@PEAUQuickHullFace@local@@@shdfnd@physx@@@shdfnd@physx@@IEAAAEAPEAUQuickHullFace@local@@AEBQEAU45@@Z 0000000180053388     QuickHullConvexHullLib.obj
 0002:0000d388       $unwind$?growAndPushBack@?$Array@PEAUQuickHullHalfEdge@local@@V?$ReflectionAllocator@PEAUQuickHullHalfEdge@local@@@shdfnd@physx@@@shdfnd@physx@@IEAAAEAPEAUQuickHullHalfEdge@local@@AEBQEAU45@@Z 0000000180053388     QuickHullConvexHullLib.obj
 0002:0000d388       $unwind$?growAndPushBack@?$Array@PEAUQuickHullVertex@local@@V?$ReflectionAllocator@PEAUQuickHullVertex@local@@@shdfnd@physx@@@shdfnd@physx@@IEAAAEAPEAUQuickHullVertex@local@@AEBQEAU45@@Z 0000000180053388     QuickHullConvexHullLib.obj
 0002:0000d388       $unwind$?growAndPushBack@?$Array@UExpandPoint@local@@V?$ReflectionAllocator@UExpandPoint@local@@@shdfnd@physx@@@shdfnd@physx@@IEAAAEAUExpandPoint@local@@AEBU45@@Z 0000000180053388     QuickHullConvexHullLib.obj
 0002:0000d388       $unwind$?growAndPushBack@?$Array@UInterval@physx@@V?$InlineAllocator@$0CAAA@V?$ReflectionAllocator@UInterval@physx@@@shdfnd@physx@@@shdfnd@2@@shdfnd@physx@@IEAAAEAUInterval@3@AEBU43@@Z 0000000180053388     RTreeCooking.obj
 0002:0000d388       $unwind$?growAndPushBack@?$Array@UPxBounds3V@physx@@V?$ReflectionAllocator@UPxBounds3V@physx@@@shdfnd@2@@shdfnd@physx@@IEAAAEAUPxBounds3V@3@AEBU43@@Z 0000000180053388     RTreeCooking.obj
 0002:0000d388       $unwind$?growAndPushBack@?$Array@URTreeNodeNQ@physx@@V?$ReflectionAllocator@URTreeNodeNQ@physx@@@shdfnd@2@@shdfnd@physx@@IEAAAEAURTreeNodeNQ@3@AEBU43@@Z 0000000180053388     RTreeCooking.obj
 0002:0000d388       $unwind$?growAndPushBack@?$Array@URTreeNodeQ@Gu@physx@@V?$ReflectionAllocator@URTreeNodeQ@Gu@physx@@@shdfnd@3@@shdfnd@physx@@IEAAAEAURTreeNodeQ@Gu@3@AEBU453@@Z 0000000180053388     RTreeCooking.obj
 0002:0000d388       $unwind$?resize@?$Array@IV?$ReflectionAllocator@I@shdfnd@physx@@@shdfnd@physx@@QEAAXIAEBI@Z 0000000180053388     RTreeCooking.obj
 0002:0000d388       $unwind$_ischartype_l      0000000180053388     libucrt:atox.obj
 0002:0000d388       $unwind$_recalloc_base     0000000180053388     libucrt:recalloc.obj
 0002:0000d388       $unwind$__acrt_free_locale 0000000180053388     libucrt:locale_refcounting.obj
 0002:0000d388       $unwind$__acrt_lowio_create_handle_array 0000000180053388     libucrt:osfinfo.obj
 0002:0000d388       $unwind$?setSBCS@@YAXPEAU__crt_multibyte_data@@@Z 0000000180053388     libucrt:mbctype.obj
 0002:0000d388       $unwind$_seh_filter_exe    0000000180053388     libucrt:exception_filter.obj
 0002:0000d388       $unwind$_initterm          0000000180053388     libucrt:initterm.obj
 0002:0000d388       $unwind$??$ensure_buffer_is_big_enough@D@formatting_buffer@__crt_stdio_output@@QEAA_N_K@Z 0000000180053388     libucrt:output.obj
 0002:0000d388       $unwind$__scrt_dllmain_exception_filter 0000000180053388     LIBCMT:utility.obj
 0002:0000d388       $unwind$?Is_bad_exception_allowed@@YAEPEBU_s_ESTypeList@@@Z 0000000180053388     libvcruntime:frame.obj
 0002:0000d39c       $chain$0$?recreate@?$Array@UPxBounds3V@physx@@V?$ReflectionAllocator@UPxBounds3V@physx@@@shdfnd@2@@shdfnd@physx@@IEAAXI@Z 000000018005339c     RTreeCooking.obj
 0002:0000d3b0       $chain$1$?recreate@?$Array@UPxBounds3V@physx@@V?$ReflectionAllocator@UPxBounds3V@physx@@@shdfnd@2@@shdfnd@physx@@IEAAXI@Z 00000001800533b0     RTreeCooking.obj
 0002:0000d3c0       $unwind$?growAndPushBack@?$Array@IV?$ReflectionAllocator@I@shdfnd@physx@@@shdfnd@physx@@IEAAAEAIAEBI@Z 00000001800533c0     RTreeCooking.obj
 0002:0000d3d0       $chain$0$?growAndPushBack@?$Array@IV?$ReflectionAllocator@I@shdfnd@physx@@@shdfnd@physx@@IEAAAEAIAEBI@Z 00000001800533d0     RTreeCooking.obj
 0002:0000d3e4       $chain$2$?growAndPushBack@?$Array@IV?$ReflectionAllocator@I@shdfnd@physx@@@shdfnd@physx@@IEAAAEAIAEBI@Z 00000001800533e4     RTreeCooking.obj
 0002:0000d3f8       $chain$1$?growAndPushBack@?$Array@IV?$ReflectionAllocator@I@shdfnd@physx@@@shdfnd@physx@@IEAAAEAIAEBI@Z 00000001800533f8     RTreeCooking.obj
 0002:0000d408       $chain$0$?recreate@?$Array@IV?$ReflectionAllocator@I@shdfnd@physx@@@shdfnd@physx@@IEAAXI@Z 0000000180053408     RTreeCooking.obj
 0002:0000d41c       $chain$1$?recreate@?$Array@IV?$ReflectionAllocator@I@shdfnd@physx@@@shdfnd@physx@@IEAAXI@Z 000000018005341c     RTreeCooking.obj
 0002:0000d42c       $chain$1$?allocate@?$Array@VPxVec3@physx@@V?$ReflectionAllocator@VPxVec3@physx@@@shdfnd@2@@shdfnd@physx@@IEAAPEAVPxVec3@3@I@Z 000000018005342c     RTreeCooking.obj
 0002:0000d444       $chain$3$?allocate@?$Array@VPxVec3@physx@@V?$ReflectionAllocator@VPxVec3@physx@@@shdfnd@2@@shdfnd@physx@@IEAAPEAVPxVec3@3@I@Z 0000000180053444     RTreeCooking.obj
 0002:0000d458       $chain$4$?allocate@?$Array@VPxVec3@physx@@V?$ReflectionAllocator@VPxVec3@physx@@@shdfnd@2@@shdfnd@physx@@IEAAPEAVPxVec3@3@I@Z 0000000180053458     RTreeCooking.obj
 0002:0000d468       $chain$0$?recreate@?$Array@VPxVec3@physx@@V?$ReflectionAllocator@VPxVec3@physx@@@shdfnd@2@@shdfnd@physx@@IEAAXI@Z 0000000180053468     RTreeCooking.obj
 0002:0000d47c       $chain$1$?recreate@?$Array@VPxVec3@physx@@V?$ReflectionAllocator@VPxVec3@physx@@@shdfnd@2@@shdfnd@physx@@IEAAXI@Z 000000018005347c     RTreeCooking.obj
 0002:0000d48c       $unwind$?sort4@SubSortQuick@physx@@QEAAXPEIAIIAEAV?$Array@URTreeNodeNQ@physx@@V?$ReflectionAllocator@URTreeNodeNQ@physx@@@shdfnd@2@@shdfnd@2@AEAIAEAUPxBounds3V@2@I@Z 000000018005348c     RTreeCooking.obj
 0002:0000d4a4       $chain$1$?allocate@?$Array@URTreeNodeNQ@physx@@V?$ReflectionAllocator@URTreeNodeNQ@physx@@@shdfnd@2@@shdfnd@physx@@IEAAPEAURTreeNodeNQ@3@I@Z 00000001800534a4     RTreeCooking.obj
 0002:0000d4bc       $chain$3$?allocate@?$Array@URTreeNodeNQ@physx@@V?$ReflectionAllocator@URTreeNodeNQ@physx@@@shdfnd@2@@shdfnd@physx@@IEAAPEAURTreeNodeNQ@3@I@Z 00000001800534bc     RTreeCooking.obj
 0002:0000d4d0       $chain$4$?allocate@?$Array@URTreeNodeNQ@physx@@V?$ReflectionAllocator@URTreeNodeNQ@physx@@@shdfnd@2@@shdfnd@physx@@IEAAPEAURTreeNodeNQ@3@I@Z 00000001800534d0     RTreeCooking.obj
 0002:0000d4e0       $chain$0$?recreate@?$Array@URTreeNodeNQ@physx@@V?$ReflectionAllocator@URTreeNodeNQ@physx@@@shdfnd@2@@shdfnd@physx@@IEAAXI@Z 00000001800534e0     RTreeCooking.obj
 0002:0000d4f4       $chain$1$?recreate@?$Array@URTreeNodeNQ@physx@@V?$ReflectionAllocator@URTreeNodeNQ@physx@@@shdfnd@2@@shdfnd@physx@@IEAAXI@Z 00000001800534f4     RTreeCooking.obj
 0002:0000d504       $unwind$??$quickSelectFirstK@UBoundsLTE@physx@@@quickSelect@physx@@YAXPEIAIIIIAEBUBoundsLTE@1@@Z 0000000180053504     RTreeCooking.obj
 0002:0000d520       $unwind$?split@SubSortSAH@physx@@QEAAIPEAII@Z 0000000180053520     RTreeCooking.obj
 0002:0000d52c       $chain$5$?split@SubSortSAH@physx@@QEAAIPEAII@Z 000000018005352c     RTreeCooking.obj
 0002:0000d554       $chain$6$?split@SubSortSAH@physx@@QEAAIPEAII@Z 0000000180053554     RTreeCooking.obj
 0002:0000d568       $chain$7$?split@SubSortSAH@physx@@QEAAIPEAII@Z 0000000180053568     RTreeCooking.obj
 0002:0000d568       $chain$9$?split@SubSortSAH@physx@@QEAAIPEAII@Z 0000000180053568     RTreeCooking.obj
 0002:0000d578       $chain$8$?split@SubSortSAH@physx@@QEAAIPEAII@Z 0000000180053578     RTreeCooking.obj
 0002:0000d58c       $chain$10$?split@SubSortSAH@physx@@QEAAIPEAII@Z 000000018005358c     RTreeCooking.obj
 0002:0000d59c       $unwind$?sort4@SubSortSAH@physx@@QEAAXPEAIIAEAV?$Array@URTreeNodeNQ@physx@@V?$ReflectionAllocator@URTreeNodeNQ@physx@@@shdfnd@2@@shdfnd@2@AEAIIPEAURTreeNodeNQ@2@@Z 000000018005359c     RTreeCooking.obj
 0002:0000d5b8       $chain$2$?sort4@SubSortSAH@physx@@QEAAXPEAIIAEAV?$Array@URTreeNodeNQ@physx@@V?$ReflectionAllocator@URTreeNodeNQ@physx@@@shdfnd@2@@shdfnd@2@AEAIIPEAURTreeNodeNQ@2@@Z 00000001800535b8     RTreeCooking.obj
 0002:0000d5d4       $chain$3$?sort4@SubSortSAH@physx@@QEAAXPEAIIAEAV?$Array@URTreeNodeNQ@physx@@V?$ReflectionAllocator@URTreeNodeNQ@physx@@@shdfnd@2@@shdfnd@2@AEAIIPEAURTreeNodeNQ@2@@Z 00000001800535d4     RTreeCooking.obj
 0002:0000d5e8       $chain$4$?sort4@SubSortSAH@physx@@QEAAXPEAIIAEAV?$Array@URTreeNodeNQ@physx@@V?$ReflectionAllocator@URTreeNodeNQ@physx@@@shdfnd@2@@shdfnd@2@AEAIIPEAURTreeNodeNQ@2@@Z 00000001800535e8     RTreeCooking.obj
 0002:0000d5f8       $chain$5$?sort4@SubSortSAH@physx@@QEAAXPEAIIAEAV?$Array@URTreeNodeNQ@physx@@V?$ReflectionAllocator@URTreeNodeNQ@physx@@@shdfnd@2@@shdfnd@2@AEAIIPEAURTreeNodeNQ@2@@Z 00000001800535f8     RTreeCooking.obj
 0002:0000d60c       $chain$6$?sort4@SubSortSAH@physx@@QEAAXPEAIIAEAV?$Array@URTreeNodeNQ@physx@@V?$ReflectionAllocator@URTreeNodeNQ@physx@@@shdfnd@2@@shdfnd@2@AEAIIPEAURTreeNodeNQ@2@@Z 000000018005360c     RTreeCooking.obj
 0002:0000d61c       $chain$1$?allocate@?$Array@UInterval@physx@@V?$InlineAllocator@$0CAAA@V?$ReflectionAllocator@UInterval@physx@@@shdfnd@physx@@@shdfnd@2@@shdfnd@physx@@IEAAPEAUInterval@3@I@Z 000000018005361c     RTreeCooking.obj
 0002:0000d634       $chain$3$?allocate@?$Array@UInterval@physx@@V?$InlineAllocator@$0CAAA@V?$ReflectionAllocator@UInterval@physx@@@shdfnd@physx@@@shdfnd@2@@shdfnd@physx@@IEAAPEAUInterval@3@I@Z 0000000180053634     RTreeCooking.obj
 0002:0000d648       $chain$4$?allocate@?$Array@UInterval@physx@@V?$InlineAllocator@$0CAAA@V?$ReflectionAllocator@UInterval@physx@@@shdfnd@physx@@@shdfnd@2@@shdfnd@physx@@IEAAPEAUInterval@3@I@Z 0000000180053648     RTreeCooking.obj
 0002:0000d658       $chain$1$?allocate@?$Array@URTreeNodeQ@Gu@physx@@V?$ReflectionAllocator@URTreeNodeQ@Gu@physx@@@shdfnd@3@@shdfnd@physx@@IEAAPEAURTreeNodeQ@Gu@3@I@Z 0000000180053658     RTreeCooking.obj
 0002:0000d670       $chain$3$?allocate@?$Array@URTreeNodeQ@Gu@physx@@V?$ReflectionAllocator@URTreeNodeQ@Gu@physx@@@shdfnd@3@@shdfnd@physx@@IEAAPEAURTreeNodeQ@Gu@3@I@Z 0000000180053670     RTreeCooking.obj
 0002:0000d684       $chain$4$?allocate@?$Array@URTreeNodeQ@Gu@physx@@V?$ReflectionAllocator@URTreeNodeQ@Gu@physx@@@shdfnd@3@@shdfnd@physx@@IEAAPEAURTreeNodeQ@Gu@3@I@Z 0000000180053684     RTreeCooking.obj
 0002:0000d694       $chain$0$?recreate@?$Array@URTreeNodeQ@Gu@physx@@V?$ReflectionAllocator@URTreeNodeQ@Gu@physx@@@shdfnd@3@@shdfnd@physx@@IEAAXI@Z 0000000180053694     RTreeCooking.obj
 0002:0000d6a8       $chain$1$?recreate@?$Array@URTreeNodeQ@Gu@physx@@V?$ReflectionAllocator@URTreeNodeQ@Gu@physx@@@shdfnd@3@@shdfnd@physx@@IEAAXI@Z 00000001800536a8     RTreeCooking.obj
 0002:0000d6b8       $unwind$??$sort@IU?$Less@I@shdfnd@physx@@V?$ReflectionAllocator@I@23@@shdfnd@physx@@YAXPEAIIAEBU?$Less@I@01@AEBV?$ReflectionAllocator@I@01@I@Z 00000001800536b8     RTreeCooking.obj
 0002:0000d6d8       $unwind$??$sort@IUSortBoundsPredicate@physx@@V?$ReflectionAllocator@I@shdfnd@2@@shdfnd@physx@@YAXPEAIIAEBUSortBoundsPredicate@1@AEBV?$ReflectionAllocator@I@01@I@Z 00000001800536d8     RTreeCooking.obj
 0002:0000d6f4       $unwind$??$smallSort@I$$CBUSortBoundsPredicate@physx@@@internal@shdfnd@physx@@YAXPEAIHHAEBUSortBoundsPredicate@2@@Z 00000001800536f4     RTreeCooking.obj
 0002:0000d700       $chain$6$??$smallSort@I$$CBUSortBoundsPredicate@physx@@@internal@shdfnd@physx@@YAXPEAIHHAEBUSortBoundsPredicate@2@@Z 0000000180053700     RTreeCooking.obj
 0002:0000d72c       $chain$7$??$smallSort@I$$CBUSortBoundsPredicate@physx@@@internal@shdfnd@physx@@YAXPEAIHHAEBUSortBoundsPredicate@2@@Z 000000018005372c     RTreeCooking.obj
 0002:0000d73c       $unwind$?preallocate@QuickHull@local@@QEAAXI@Z 000000018005373c     QuickHullConvexHullLib.obj
 0002:0000d73c       $unwind$?allocateVertices@MeshDataBase@Gu@physx@@QEAAPEAVPxVec3@3@I@Z 000000018005373c     TriangleMeshBuilder.obj
 0002:0000d73c       $unwind$?getStateFromIterators@UWMap4@FH4@@SAHAEBViterator@12@H0H0@Z 000000018005373c     libvcruntime:frame.obj
 0002:0000d73c       $unwind$?getUndecoratedName@UnDecorator@@QEAAPEADPEADH@Z 000000018005373c     libvcruntime:undname.obj
 0002:0000d74c       $unwind$??0QuickHullConvexHullLib@physx@@QEAA@AEBVPxConvexMeshDesc@1@AEBUPxCookingParams@1@@Z 000000018005374c     QuickHullConvexHullLib.obj
 0002:0000d74c       $unwind$?allocateTriangles@TriangleMeshData@Gu@physx@@QEAAPEAXI_NI@Z 000000018005374c     TriangleMeshBuilder.obj
 0002:0000d764       $chain$0$??$?_UG@@YAPEAX_KV?$ReflectionAllocator@G@shdfnd@physx@@PEBDH@Z 0000000180053764     TriangleMeshBuilder.obj
 0002:0000d778       $chain$1$??$?_UG@@YAPEAX_KV?$ReflectionAllocator@G@shdfnd@physx@@PEBDH@Z 0000000180053778     TriangleMeshBuilder.obj
 0002:0000d788       $chain$0$??1RTreeTriangleData@Gu@physx@@UEAA@XZ 0000000180053788     TriangleMeshBuilder.obj
 0002:0000d79c       $chain$1$??1RTreeTriangleData@Gu@physx@@UEAA@XZ 000000018005379c     TriangleMeshBuilder.obj
 0002:0000d7ac       $unwind$?cleanMesh@TriangleMeshBuilder@physx@@QEAA_N_NPEAW4Enum@PxTriangleMeshCookingResult@2@@Z 00000001800537ac     TriangleMeshBuilder.obj
 0002:0000d7c0       $chain$0$?cleanMesh@TriangleMeshBuilder@physx@@QEAA_N_NPEAW4Enum@PxTriangleMeshCookingResult@2@@Z 00000001800537c0     TriangleMeshBuilder.obj
 0002:0000d7d4       $chain$1$?cleanMesh@TriangleMeshBuilder@physx@@QEAA_N_NPEAW4Enum@PxTriangleMeshCookingResult@2@@Z 00000001800537d4     TriangleMeshBuilder.obj
 0002:0000d7e8       $chain$2$?cleanMesh@TriangleMeshBuilder@physx@@QEAA_N_NPEAW4Enum@PxTriangleMeshCookingResult@2@@Z 00000001800537e8     TriangleMeshBuilder.obj
 0002:0000d7fc       $chain$3$?cleanMesh@TriangleMeshBuilder@physx@@QEAA_N_NPEAW4Enum@PxTriangleMeshCookingResult@2@@Z 00000001800537fc     TriangleMeshBuilder.obj
 0002:0000d810       $chain$4$?cleanMesh@TriangleMeshBuilder@physx@@QEAA_N_NPEAW4Enum@PxTriangleMeshCookingResult@2@@Z 0000000180053810     TriangleMeshBuilder.obj
 0002:0000d820       $chain$5$?cleanMesh@TriangleMeshBuilder@physx@@QEAA_N_NPEAW4Enum@PxTriangleMeshCookingResult@2@@Z 0000000180053820     TriangleMeshBuilder.obj
 0002:0000d830       $chain$9$?cleanMesh@TriangleMeshBuilder@physx@@QEAA_N_NPEAW4Enum@PxTriangleMeshCookingResult@2@@Z 0000000180053830     TriangleMeshBuilder.obj
 0002:0000d84c       $chain$6$?cleanMesh@TriangleMeshBuilder@physx@@QEAA_N_NPEAW4Enum@PxTriangleMeshCookingResult@2@@Z 000000018005384c     TriangleMeshBuilder.obj
 0002:0000d85c       $chain$10$?cleanMesh@TriangleMeshBuilder@physx@@QEAA_N_NPEAW4Enum@PxTriangleMeshCookingResult@2@@Z 000000018005385c     TriangleMeshBuilder.obj
 0002:0000d86c       $unwind$?remapTopology@TriangleMeshBuilder@physx@@QEAAXPEBI@Z 000000018005386c     TriangleMeshBuilder.obj
 0002:0000d878       $chain$4$?remapTopology@TriangleMeshBuilder@physx@@QEAAXPEBI@Z 0000000180053878     TriangleMeshBuilder.obj
 0002:0000d89c       $chain$5$?remapTopology@TriangleMeshBuilder@physx@@QEAAXPEBI@Z 000000018005389c     TriangleMeshBuilder.obj
 0002:0000d8bc       $chain$6$?remapTopology@TriangleMeshBuilder@physx@@QEAAXPEBI@Z 00000001800538bc     TriangleMeshBuilder.obj
 0002:0000d8cc       $unwind$?createSharedEdgeData@TriangleMeshBuilder@physx@@QEAAX_N0@Z 00000001800538cc     TriangleMeshBuilder.obj
 0002:0000d8d8       $chain$3$?createSharedEdgeData@TriangleMeshBuilder@physx@@QEAAX_N0@Z 00000001800538d8     TriangleMeshBuilder.obj
 0002:0000d8f8       $chain$4$?createSharedEdgeData@TriangleMeshBuilder@physx@@QEAAX_N0@Z 00000001800538f8     TriangleMeshBuilder.obj
 0002:0000d90c       $chain$5$?createSharedEdgeData@TriangleMeshBuilder@physx@@QEAAX_N0@Z 000000018005390c     TriangleMeshBuilder.obj
 0002:0000d91c       $chain$6$?createSharedEdgeData@TriangleMeshBuilder@physx@@QEAAX_N0@Z 000000018005391c     TriangleMeshBuilder.obj
 0002:0000d92c       $unwind$?createGRBMidPhaseAndData@TriangleMeshBuilder@physx@@QEAAXI@Z 000000018005392c     TriangleMeshBuilder.obj
 0002:0000d938       $chain$0$?createGRBMidPhaseAndData@TriangleMeshBuilder@physx@@QEAAXI@Z 0000000180053938     TriangleMeshBuilder.obj
 0002:0000d94c       $chain$4$?createGRBMidPhaseAndData@TriangleMeshBuilder@physx@@QEAAXI@Z 000000018005394c     TriangleMeshBuilder.obj
 0002:0000d96c       $chain$5$?createGRBMidPhaseAndData@TriangleMeshBuilder@physx@@QEAAXI@Z 000000018005396c     TriangleMeshBuilder.obj
 0002:0000d988       $chain$6$?createGRBMidPhaseAndData@TriangleMeshBuilder@physx@@QEAAXI@Z 0000000180053988     TriangleMeshBuilder.obj
 0002:0000d99c       $chain$7$?createGRBMidPhaseAndData@TriangleMeshBuilder@physx@@QEAAXI@Z 000000018005399c     TriangleMeshBuilder.obj
 0002:0000d9b0       $chain$8$?createGRBMidPhaseAndData@TriangleMeshBuilder@physx@@QEAAXI@Z 00000001800539b0     TriangleMeshBuilder.obj
 0002:0000d9c0       $unwind$?loadFromDesc@TriangleMeshBuilder@physx@@QEAA_NAEBVPxTriangleMeshDesc@2@PEAW4Enum@PxTriangleMeshCookingResult@2@_N@Z 00000001800539c0     TriangleMeshBuilder.obj
 0002:0000d9d0       $chain$2$?loadFromDesc@TriangleMeshBuilder@physx@@QEAA_NAEBVPxTriangleMeshDesc@2@PEAW4Enum@PxTriangleMeshCookingResult@2@_N@Z 00000001800539d0     TriangleMeshBuilder.obj
 0002:0000d9ec       $chain$4$?loadFromDesc@TriangleMeshBuilder@physx@@QEAA_NAEBVPxTriangleMeshDesc@2@PEAW4Enum@PxTriangleMeshCookingResult@2@_N@Z 00000001800539ec     TriangleMeshBuilder.obj
 0002:0000da08       $chain$5$?loadFromDesc@TriangleMeshBuilder@physx@@QEAA_NAEBVPxTriangleMeshDesc@2@PEAW4Enum@PxTriangleMeshCookingResult@2@_N@Z 0000000180053a08     TriangleMeshBuilder.obj
 0002:0000da18       $unwind$?save@TriangleMeshBuilder@physx@@QEBA_NAEAVPxOutputStream@2@_NAEBUPxCookingParams@2@@Z 0000000180053a18     TriangleMeshBuilder.obj
 0002:0000da34       $chain$3$?save@TriangleMeshBuilder@physx@@QEBA_NAEAVPxOutputStream@2@_NAEBUPxCookingParams@2@@Z 0000000180053a34     TriangleMeshBuilder.obj
 0002:0000da48       $unwind$?checkMeshIndicesSize@TriangleMeshBuilder@physx@@QEAAXXZ 0000000180053a48     TriangleMeshBuilder.obj
 0002:0000da54       $chain$1$?checkMeshIndicesSize@TriangleMeshBuilder@physx@@QEAAXXZ 0000000180053a54     TriangleMeshBuilder.obj
 0002:0000da6c       $chain$3$?checkMeshIndicesSize@TriangleMeshBuilder@physx@@QEAAXXZ 0000000180053a6c     TriangleMeshBuilder.obj
 0002:0000da84       $chain$4$?checkMeshIndicesSize@TriangleMeshBuilder@physx@@QEAAXXZ 0000000180053a84     TriangleMeshBuilder.obj
 0002:0000da98       $chain$5$?checkMeshIndicesSize@TriangleMeshBuilder@physx@@QEAAXXZ 0000000180053a98     TriangleMeshBuilder.obj
 0002:0000daa8       $unwind$?importMesh@TriangleMeshBuilder@physx@@IEAA_NAEBVPxTriangleMeshDesc@2@AEBUPxCookingParams@2@PEAW4Enum@PxTriangleMeshCookingResult@2@_N@Z 0000000180053aa8     TriangleMeshBuilder.obj
 0002:0000dac4       $unwind$?createMidPhaseStructure@RTreeTriangleMeshBuilder@physx@@UEAAXXZ 0000000180053ac4     TriangleMeshBuilder.obj
 0002:0000dacc       $unwind$?saveMidPhaseStructure@RTreeTriangleMeshBuilder@physx@@UEBAXAEAVPxOutputStream@2@_N@Z 0000000180053acc     TriangleMeshBuilder.obj
 0002:0000dadc       $chain$0$?saveMidPhaseStructure@RTreeTriangleMeshBuilder@physx@@UEBAXAEAVPxOutputStream@2@_N@Z 0000000180053adc     TriangleMeshBuilder.obj
 0002:0000daf0       $chain$1$?saveMidPhaseStructure@RTreeTriangleMeshBuilder@physx@@UEBAXAEAVPxOutputStream@2@_N@Z 0000000180053af0     TriangleMeshBuilder.obj
 0002:0000db00       $unwind$?createMidPhaseStructure@BV4TriangleMeshBuilder@physx@@UEAAXXZ 0000000180053b00     TriangleMeshBuilder.obj
 0002:0000db0c       $chain$2$?createMidPhaseStructure@BV4TriangleMeshBuilder@physx@@UEAAXXZ 0000000180053b0c     TriangleMeshBuilder.obj
 0002:0000db28       $chain$3$?createMidPhaseStructure@BV4TriangleMeshBuilder@physx@@UEAAXXZ 0000000180053b28     TriangleMeshBuilder.obj
 0002:0000db3c       $chain$4$?createMidPhaseStructure@BV4TriangleMeshBuilder@physx@@UEAAXXZ 0000000180053b3c     TriangleMeshBuilder.obj
 0002:0000db4c       $chain$5$?createMidPhaseStructure@BV4TriangleMeshBuilder@physx@@UEAAXXZ 0000000180053b4c     TriangleMeshBuilder.obj
 0002:0000db60       $unwind$?createMidPhaseStructure@BV32TriangleMeshBuilder@physx@@SAXAEBUPxCookingParams@2@AEAVTriangleMeshData@Gu@2@AEAVBV32Tree@52@@Z 0000000180053b60     TriangleMeshBuilder.obj
 0002:0000db70       $chain$0$?createMidPhaseStructure@BV32TriangleMeshBuilder@physx@@SAXAEBUPxCookingParams@2@AEAVTriangleMeshData@Gu@2@AEAVBV32Tree@52@@Z 0000000180053b70     TriangleMeshBuilder.obj
 0002:0000db84       $chain$1$?createMidPhaseStructure@BV32TriangleMeshBuilder@physx@@SAXAEBUPxCookingParams@2@AEAVTriangleMeshData@Gu@2@AEAVBV32Tree@52@@Z 0000000180053b84     TriangleMeshBuilder.obj
 0002:0000db98       $chain$2$?createMidPhaseStructure@BV32TriangleMeshBuilder@physx@@SAXAEBUPxCookingParams@2@AEAVTriangleMeshData@Gu@2@AEAVBV32Tree@52@@Z 0000000180053b98     TriangleMeshBuilder.obj
 0002:0000dba8       $chain$3$?createMidPhaseStructure@BV32TriangleMeshBuilder@physx@@SAXAEBUPxCookingParams@2@AEAVTriangleMeshData@Gu@2@AEAVBV32Tree@52@@Z 0000000180053ba8     TriangleMeshBuilder.obj
 0002:0000dbb8       $unwind$?findAdjacent@physx@@YAIPEBVPxVec3@1@0PEBUuint3@1@IIIAEBVPxPlane@1@PEAUEdgeTriLookup@1@I@Z 0000000180053bb8     TriangleMeshBuilder.obj
 0002:0000dbdc       $unwind$?buildAdjacencies@physx@@YAXPEAUuint4@1@PEAVPxVec3@1@PEBV31@PEBUuint3@1@I@Z 0000000180053bdc     TriangleMeshBuilder.obj
 0002:0000dbe8       $chain$7$?buildAdjacencies@physx@@YAXPEAUuint4@1@PEAVPxVec3@1@PEBV31@PEBUuint3@1@I@Z 0000000180053be8     TriangleMeshBuilder.obj
 0002:0000dc18       $chain$11$?buildAdjacencies@physx@@YAXPEAUuint4@1@PEAVPxVec3@1@PEBV31@PEBUuint3@1@I@Z 0000000180053c18     TriangleMeshBuilder.obj
 0002:0000dc38       $chain$12$?buildAdjacencies@physx@@YAXPEAUuint4@1@PEAVPxVec3@1@PEBV31@PEBUuint3@1@I@Z 0000000180053c38     TriangleMeshBuilder.obj
 0002:0000dc48       $chain$13$?buildAdjacencies@physx@@YAXPEAUuint4@1@PEAVPxVec3@1@PEBV31@PEBUuint3@1@I@Z 0000000180053c48     TriangleMeshBuilder.obj
 0002:0000dc58       $unwind$??$sort@UEdgeTriLookup@physx@@U?$Less@UEdgeTriLookup@physx@@@shdfnd@2@V?$ReflectionAllocator@UEdgeTriLookup@physx@@@42@@shdfnd@physx@@YAXPEAUEdgeTriLookup@1@IAEBU?$Less@UEdgeTriLookup@physx@@@01@AEBV?$ReflectionAllocator@UEdgeTriLookup@physx@@@01@I@Z 0000000180053c58     TriangleMeshBuilder.obj
 0002:0000dc78       $unwind$?precompute@BigConvexDataBuilder@physx@@QEAA_NI@Z 0000000180053c78     BigConvexDataBuilder.obj
 0002:0000dc90       $chain$10$?precompute@BigConvexDataBuilder@physx@@QEAA_NI@Z 0000000180053c90     BigConvexDataBuilder.obj
 0002:0000dccc       $chain$11$?precompute@BigConvexDataBuilder@physx@@QEAA_NI@Z 0000000180053ccc     BigConvexDataBuilder.obj
 0002:0000dcdc       $unwind$?save@BigConvexDataBuilder@physx@@QEBA_NAEAVPxOutputStream@2@_N@Z 0000000180053cdc     BigConvexDataBuilder.obj
 0002:0000dcdc       $unwind$?x_ismbbtype_l@@YAHPEAU__crt_locale_pointers@@IHH@Z 0000000180053cdc     libucrt:ismbbyte.obj
 0002:0000dcec       $unwind$?computeValencies@BigConvexDataBuilder@physx@@QEAA_NAEBVConvexHullBuilder@2@@Z 0000000180053cec     BigConvexDataBuilder.obj
 0002:0000dd00       $chain$2$?computeValencies@BigConvexDataBuilder@physx@@QEAA_NAEBVConvexHullBuilder@2@@Z 0000000180053d00     BigConvexDataBuilder.obj
 0002:0000dd1c       $chain$3$?computeValencies@BigConvexDataBuilder@physx@@QEAA_NAEBVConvexHullBuilder@2@@Z 0000000180053d1c     BigConvexDataBuilder.obj
 0002:0000dd2c       $unwind$?saveValencies@BigConvexDataBuilder@physx@@QEBA_NAEAVPxOutputStream@2@_N@Z 0000000180053d2c     BigConvexDataBuilder.obj
 0002:0000dd38       $chain$1$?saveValencies@BigConvexDataBuilder@physx@@QEBA_NAEAVPxOutputStream@2@_N@Z 0000000180053d38     BigConvexDataBuilder.obj
 0002:0000dd50       $chain$2$?saveValencies@BigConvexDataBuilder@physx@@QEBA_NAEAVPxOutputStream@2@_N@Z 0000000180053d50     BigConvexDataBuilder.obj
 0002:0000dd64       $chain$3$?saveValencies@BigConvexDataBuilder@physx@@QEBA_NAEAVPxOutputStream@2@_N@Z 0000000180053d64     BigConvexDataBuilder.obj
 0002:0000dd74       $chain$4$?saveValencies@BigConvexDataBuilder@physx@@QEBA_NAEAVPxOutputStream@2@_N@Z 0000000180053d74     BigConvexDataBuilder.obj
 0002:0000dd88       $unwind$?init@ConvexHullBuilder@physx@@QEAA_NIPEBVPxVec3@2@PEBIIIPEBUPxHullPolygon@2@_NPEAVConvexHullLib@2@@Z 0000000180053d88     ConvexHullBuilder.obj
 0002:0000dda0       $chain$0$?init@ConvexHullBuilder@physx@@QEAA_NIPEBVPxVec3@2@PEBIIIPEBUPxHullPolygon@2@_NPEAVConvexHullLib@2@@Z 0000000180053da0     ConvexHullBuilder.obj
 0002:0000ddb4       $chain$2$?init@ConvexHullBuilder@physx@@QEAA_NIPEBVPxVec3@2@PEBIIIPEBUPxHullPolygon@2@_NPEAVConvexHullLib@2@@Z 0000000180053db4     ConvexHullBuilder.obj
 0002:0000ddcc       $chain$9$?init@ConvexHullBuilder@physx@@QEAA_NIPEBVPxVec3@2@PEBIIIPEBUPxHullPolygon@2@_NPEAVConvexHullLib@2@@Z 0000000180053dcc     ConvexHullBuilder.obj
 0002:0000ddf8       $chain$10$?init@ConvexHullBuilder@physx@@QEAA_NIPEBVPxVec3@2@PEBIIIPEBUPxHullPolygon@2@_NPEAVConvexHullLib@2@@Z 0000000180053df8     ConvexHullBuilder.obj
 0002:0000de08       $chain$11$?init@ConvexHullBuilder@physx@@QEAA_NIPEBVPxVec3@2@PEBIIIPEBUPxHullPolygon@2@_NPEAVConvexHullLib@2@@Z 0000000180053e08     ConvexHullBuilder.obj
 0002:0000de18       $chain$12$?init@ConvexHullBuilder@physx@@QEAA_NIPEBVPxVec3@2@PEBIIIPEBUPxHullPolygon@2@_NPEAVConvexHullLib@2@@Z 0000000180053e18     ConvexHullBuilder.obj
 0002:0000de28       $chain$13$?init@ConvexHullBuilder@physx@@QEAA_NIPEBVPxVec3@2@PEBIIIPEBUPxHullPolygon@2@_NPEAVConvexHullLib@2@@Z 0000000180053e28     ConvexHullBuilder.obj
 0002:0000de44       $chain$14$?init@ConvexHullBuilder@physx@@QEAA_NIPEBVPxVec3@2@PEBIIIPEBUPxHullPolygon@2@_NPEAVConvexHullLib@2@@Z 0000000180053e44     ConvexHullBuilder.obj
 0002:0000de58       $unwind$?save@ConvexHullBuilder@physx@@QEBA_NAEAVPxOutputStream@2@_N@Z 0000000180053e58     ConvexHullBuilder.obj
 0002:0000de68       $chain$0$?save@ConvexHullBuilder@physx@@QEBA_NAEAVPxOutputStream@2@_N@Z 0000000180053e68     ConvexHullBuilder.obj
 0002:0000de7c       $chain$3$?save@ConvexHullBuilder@physx@@QEBA_NAEAVPxOutputStream@2@_N@Z 0000000180053e7c     ConvexHullBuilder.obj
 0002:0000de98       $chain$4$?save@ConvexHullBuilder@physx@@QEBA_NAEAVPxOutputStream@2@_N@Z 0000000180053e98     ConvexHullBuilder.obj
 0002:0000deac       $chain$5$?save@ConvexHullBuilder@physx@@QEBA_NAEAVPxOutputStream@2@_N@Z 0000000180053eac     ConvexHullBuilder.obj
 0002:0000debc       $unwind$?copy@ConvexHullBuilder@physx@@QEAA_NAEAUConvexHullData@Gu@2@AEAI@Z 0000000180053ebc     ConvexHullBuilder.obj
 0002:0000debc       $unwind$??$copy_and_add_argument_to_buffer@D@@YAHQEBD0_KAEAV?$argument_list@D@?A0x5f5c8891@@@Z 0000000180053ebc     libucrt:argv_wildcards.obj
 0002:0000ded8       $unwind$?createEdgeList@ConvexHullBuilder@physx@@QEAA_N_NI@Z 0000000180053ed8     ConvexHullBuilder.obj
 0002:0000dee8       $chain$4$?createEdgeList@ConvexHullBuilder@physx@@QEAA_N_NI@Z 0000000180053ee8     ConvexHullBuilder.obj
 0002:0000df0c       $chain$6$?createEdgeList@ConvexHullBuilder@physx@@QEAA_N_NI@Z 0000000180053f0c     ConvexHullBuilder.obj
 0002:0000df30       $unwind$?checkHullPolygons@ConvexHullBuilder@physx@@QEBA_NXZ 0000000180053f30     ConvexHullBuilder.obj
 0002:0000df3c       $chain$14$?checkHullPolygons@ConvexHullBuilder@physx@@QEBA_NXZ 0000000180053f3c     ConvexHullBuilder.obj
 0002:0000df88       $chain$16$?checkHullPolygons@ConvexHullBuilder@physx@@QEBA_NXZ 0000000180053f88     ConvexHullBuilder.obj
 0002:0000dfd4       $chain$17$?checkHullPolygons@ConvexHullBuilder@physx@@QEBA_NXZ 0000000180053fd4     ConvexHullBuilder.obj
 0002:0000dfe4       $unwind$?calculateVertexMapTable@ConvexHullBuilder@physx@@QEAA_NI_N@Z 0000000180053fe4     ConvexHullBuilder.obj
 0002:0000dffc       $chain$0$?calculateVertexMapTable@ConvexHullBuilder@physx@@QEAA_NI_N@Z 0000000180053ffc     ConvexHullBuilder.obj
 0002:0000e010       $chain$1$?calculateVertexMapTable@ConvexHullBuilder@physx@@QEAA_NI_N@Z 0000000180054010     ConvexHullBuilder.obj
 0002:0000e020       $unwind$?computeGeomCenter@ConvexHullBuilder@physx@@IEBA_NAEAVPxVec3@2@IPEAUHullTriangleData@2@@Z 0000000180054020     ConvexHullBuilder.obj
 0002:0000e028       $chain$1$?computeGeomCenter@ConvexHullBuilder@physx@@IEBA_NAEAVPxVec3@2@IPEAUHullTriangleData@2@@Z 0000000180054028     ConvexHullBuilder.obj
 0002:0000e040       $chain$10$?computeGeomCenter@ConvexHullBuilder@physx@@IEBA_NAEAVPxVec3@2@IPEAUHullTriangleData@2@@Z 0000000180054040     ConvexHullBuilder.obj
 0002:0000e074       $chain$11$?computeGeomCenter@ConvexHullBuilder@physx@@IEBA_NAEAVPxVec3@2@IPEAUHullTriangleData@2@@Z 0000000180054074     ConvexHullBuilder.obj
 0002:0000e084       $chain$12$?computeGeomCenter@ConvexHullBuilder@physx@@IEBA_NAEAVPxVec3@2@IPEAUHullTriangleData@2@@Z 0000000180054084     ConvexHullBuilder.obj
 0002:0000e094       $chain$0$??$?_UE@@YAPEAX_KV?$ReflectionAllocator@E@shdfnd@physx@@PEBDH@Z 0000000180054094     ConvexHullBuilder.obj
 0002:0000e0a8       $chain$1$??$?_UE@@YAPEAX_KV?$ReflectionAllocator@E@shdfnd@physx@@PEBDH@Z 00000001800540a8     ConvexHullBuilder.obj
 0002:0000e0b8       $unwind$?cleanupVertices@ConvexHullLib@physx@@IEAA_NIPEBVPxVec3@2@IAEAIPEAV32@AEAV32@3@Z 00000001800540b8     ConvexHullLib.obj
 0002:0000e0e0       $chain$7$?cleanupVertices@ConvexHullLib@physx@@IEAA_NIPEBVPxVec3@2@IAEAIPEAV32@AEAV32@3@Z 00000001800540e0     ConvexHullLib.obj
 0002:0000e0f8       $chain$13$?cleanupVertices@ConvexHullLib@physx@@IEAA_NIPEBVPxVec3@2@IAEAIPEAV32@AEAV32@3@Z 00000001800540f8     ConvexHullLib.obj
 0002:0000e120       $chain$14$?cleanupVertices@ConvexHullLib@physx@@IEAA_NIPEBVPxVec3@2@IAEAIPEAV32@AEAV32@3@Z 0000000180054120     ConvexHullLib.obj
 0002:0000e130       $chain$15$?cleanupVertices@ConvexHullLib@physx@@IEAA_NIPEBVPxVec3@2@IAEAIPEAV32@AEAV32@3@Z 0000000180054130     ConvexHullLib.obj
 0002:0000e140       $unwind$?shiftAndcleanupVertices@ConvexHullLib@physx@@IEAA_NIPEBVPxVec3@2@IAEAIPEAV32@AEAV32@3@Z 0000000180054140     ConvexHullLib.obj
 0002:0000e150       $chain$6$?shiftAndcleanupVertices@ConvexHullLib@physx@@IEAA_NIPEBVPxVec3@2@IAEAIPEAV32@AEAV32@3@Z 0000000180054150     ConvexHullLib.obj
 0002:0000e17c       $chain$7$?shiftAndcleanupVertices@ConvexHullLib@physx@@IEAA_NIPEBVPxVec3@2@IAEAIPEAV32@AEAV32@3@Z 000000018005417c     ConvexHullLib.obj
 0002:0000e1a0       $chain$12$?shiftAndcleanupVertices@ConvexHullLib@physx@@IEAA_NIPEBVPxVec3@2@IAEAIPEAV32@AEAV32@3@Z 00000001800541a0     ConvexHullLib.obj
 0002:0000e1c4       $chain$13$?shiftAndcleanupVertices@ConvexHullLib@physx@@IEAA_NIPEBVPxVec3@2@IAEAIPEAV32@AEAV32@3@Z 00000001800541c4     ConvexHullLib.obj
 0002:0000e1d4       $chain$14$?shiftAndcleanupVertices@ConvexHullLib@physx@@IEAA_NIPEBVPxVec3@2@IAEAIPEAV32@AEAV32@3@Z 00000001800541d4     ConvexHullLib.obj
 0002:0000e1e4       $unwind$?swapLargestFace@ConvexHullLib@physx@@IEAAXAEAVPxConvexMeshDesc@2@@Z 00000001800541e4     ConvexHullLib.obj
 0002:0000e1f4       $chain$1$?swapLargestFace@ConvexHullLib@physx@@IEAAXAEAVPxConvexMeshDesc@2@@Z 00000001800541f4     ConvexHullLib.obj
 0002:0000e20c       $chain$2$?swapLargestFace@ConvexHullLib@physx@@IEAAXAEAVPxConvexMeshDesc@2@@Z 000000018005420c     ConvexHullLib.obj
 0002:0000e220       $chain$3$?swapLargestFace@ConvexHullLib@physx@@IEAAXAEAVPxConvexMeshDesc@2@@Z 0000000180054220     ConvexHullLib.obj
 0002:0000e230       $chain$4$?swapLargestFace@ConvexHullLib@physx@@IEAAXAEAVPxConvexMeshDesc@2@@Z 0000000180054230     ConvexHullLib.obj
 0002:0000e240       $unwind$?checkPointsAABBValidity@local@@YA_NIPEBVPxVec3@physx@@IMMAEAV23@1AEAIPEAV23@_N@Z 0000000180054240     ConvexHullLib.obj
 0002:0000e25c       $chain$1$?checkPointsAABBValidity@local@@YA_NIPEBVPxVec3@physx@@IMMAEAV23@1AEAIPEAV23@_N@Z 000000018005425c     ConvexHullLib.obj
 0002:0000e274       $chain$4$?checkPointsAABBValidity@local@@YA_NIPEBVPxVec3@physx@@IMMAEAV23@1AEAIPEAV23@_N@Z 0000000180054274     ConvexHullLib.obj
 0002:0000e290       $chain$5$?checkPointsAABBValidity@local@@YA_NIPEBVPxVec3@physx@@IMMAEAV23@1AEAIPEAV23@_N@Z 0000000180054290     ConvexHullLib.obj
 0002:0000e2a0       $chain$6$?checkPointsAABBValidity@local@@YA_NIPEBVPxVec3@physx@@IMMAEAV23@1AEAIPEAV23@_N@Z 00000001800542a0     ConvexHullLib.obj
 0002:0000e2b0       $unwind$??0PxQuat@physx@@QEAA@AEBVPxMat33@1@@Z 00000001800542b0     ConvexHullUtils.obj
 0002:0000e2b8       $chain$0$??0PxQuat@physx@@QEAA@AEBVPxMat33@1@@Z 00000001800542b8     ConvexHullUtils.obj
 0002:0000e2cc       $chain$1$??0PxQuat@physx@@QEAA@AEBVPxMat33@1@@Z 00000001800542cc     ConvexHullUtils.obj
 0002:0000e2dc       $unwind$?getInverse@PxMat33@physx@@QEBA?BV12@XZ 00000001800542dc     ConvexHullUtils.obj
 0002:0000e2fc       $chain$1$?getInverse@PxMat33@physx@@QEBA?BV12@XZ 00000001800542fc     ConvexHullUtils.obj
 0002:0000e314       $chain$2$?getInverse@PxMat33@physx@@QEBA?BV12@XZ 0000000180054314     ConvexHullUtils.obj
 0002:0000e324       $unwind$??0ConvexHull@physx@@QEAA@AEBVPxVec3@1@AEBVPxTransform@1@AEBV?$Array@VPxPlane@physx@@V?$ReflectionAllocator@VPxPlane@physx@@@shdfnd@2@@shdfnd@1@@Z 0000000180054324     ConvexHullUtils.obj
 0002:0000e35c       $unwind$?findCandidatePlane@ConvexHull@physx@@QEBAHMM@Z 000000018005435c     ConvexHullUtils.obj
 0002:0000e380       $chain$8$?findCandidatePlane@ConvexHull@physx@@QEBAHMM@Z 0000000180054380     ConvexHullUtils.obj
 0002:0000e3b4       $chain$9$?findCandidatePlane@ConvexHull@physx@@QEBAHMM@Z 00000001800543b4     ConvexHullUtils.obj
 0002:0000e3c4       $unwind$?assertIntact@ConvexHull@physx@@QEBA_NM@Z 00000001800543c4     ConvexHullUtils.obj
 0002:0000e408       $unwind$?maxNumVertsPerFace@ConvexHull@physx@@QEBAIXZ 0000000180054408     ConvexHullUtils.obj
 0002:0000e414       $chain$0$?maxNumVertsPerFace@ConvexHull@physx@@QEBAIXZ 0000000180054414     ConvexHullUtils.obj
 0002:0000e428       $chain$1$?maxNumVertsPerFace@ConvexHull@physx@@QEBAIXZ 0000000180054428     ConvexHullUtils.obj
 0002:0000e438       $chain$1$?allocate@?$Array@VHalfEdge@ConvexHull@physx@@V?$ReflectionAllocator@VHalfEdge@ConvexHull@physx@@@shdfnd@3@@shdfnd@physx@@IEAAPEAVHalfEdge@ConvexHull@3@I@Z 0000000180054438     ConvexHullUtils.obj
 0002:0000e450       $chain$3$?allocate@?$Array@VHalfEdge@ConvexHull@physx@@V?$ReflectionAllocator@VHalfEdge@ConvexHull@physx@@@shdfnd@3@@shdfnd@physx@@IEAAPEAVHalfEdge@ConvexHull@3@I@Z 0000000180054450     ConvexHullUtils.obj
 0002:0000e464       $chain$4$?allocate@?$Array@VHalfEdge@ConvexHull@physx@@V?$ReflectionAllocator@VHalfEdge@ConvexHull@physx@@@shdfnd@3@@shdfnd@physx@@IEAAPEAVHalfEdge@ConvexHull@3@I@Z 0000000180054464     ConvexHullUtils.obj
 0002:0000e474       $chain$0$?recreate@?$Array@VHalfEdge@ConvexHull@physx@@V?$ReflectionAllocator@VHalfEdge@ConvexHull@physx@@@shdfnd@3@@shdfnd@physx@@IEAAXI@Z 0000000180054474     ConvexHullUtils.obj
 0002:0000e488       $chain$1$?recreate@?$Array@VHalfEdge@ConvexHull@physx@@V?$ReflectionAllocator@VHalfEdge@ConvexHull@physx@@@shdfnd@3@@shdfnd@physx@@IEAAXI@Z 0000000180054488     ConvexHullUtils.obj
 0002:0000e498       $chain$1$?allocate@?$Array@VPxPlane@physx@@V?$ReflectionAllocator@VPxPlane@physx@@@shdfnd@2@@shdfnd@physx@@IEAAPEAVPxPlane@3@I@Z 0000000180054498     ConvexHullUtils.obj
 0002:0000e4b0       $chain$3$?allocate@?$Array@VPxPlane@physx@@V?$ReflectionAllocator@VPxPlane@physx@@@shdfnd@2@@shdfnd@physx@@IEAAPEAVPxPlane@3@I@Z 00000001800544b0     ConvexHullUtils.obj
 0002:0000e4c4       $chain$4$?allocate@?$Array@VPxPlane@physx@@V?$ReflectionAllocator@VPxPlane@physx@@@shdfnd@2@@shdfnd@physx@@IEAAPEAVPxPlane@3@I@Z 00000001800544c4     ConvexHullUtils.obj
 0002:0000e4d4       $chain$0$?recreate@?$Array@VPxPlane@physx@@V?$ReflectionAllocator@VPxPlane@physx@@@shdfnd@2@@shdfnd@physx@@IEAAXI@Z 00000001800544d4     ConvexHullUtils.obj
 0002:0000e4e8       $chain$1$?recreate@?$Array@VPxPlane@physx@@V?$ReflectionAllocator@VPxPlane@physx@@@shdfnd@2@@shdfnd@physx@@IEAAXI@Z 00000001800544e8     ConvexHullUtils.obj
 0002:0000e4f8       $unwind$?convexHullCrop@physx@@YAPEAVConvexHull@1@AEBV21@AEBVPxPlane@1@M@Z 00000001800544f8     ConvexHullUtils.obj
 0002:0000e508       $chain$5$?convexHullCrop@physx@@YAPEAVConvexHull@1@AEBV21@AEBVPxPlane@1@M@Z 0000000180054508     ConvexHullUtils.obj
 0002:0000e530       $chain$6$?convexHullCrop@physx@@YAPEAVConvexHull@1@AEBV21@AEBVPxPlane@1@M@Z 0000000180054530     ConvexHullUtils.obj
 0002:0000e544       $chain$7$?convexHullCrop@physx@@YAPEAVConvexHull@1@AEBV21@AEBVPxPlane@1@M@Z 0000000180054544     ConvexHullUtils.obj
 0002:0000e544       $chain$9$?convexHullCrop@physx@@YAPEAVConvexHull@1@AEBV21@AEBVPxPlane@1@M@Z 0000000180054544     ConvexHullUtils.obj
 0002:0000e554       $chain$8$?convexHullCrop@physx@@YAPEAVConvexHull@1@AEBV21@AEBVPxPlane@1@M@Z 0000000180054554     ConvexHullUtils.obj
 0002:0000e568       $chain$10$?convexHullCrop@physx@@YAPEAVConvexHull@1@AEBV21@AEBVPxPlane@1@M@Z 0000000180054568     ConvexHullUtils.obj
 0002:0000e578       $unwind$?computeOBBFromConvex@physx@@YA_NAEBVPxConvexMeshDesc@1@AEAVPxVec3@1@AEAVPxTransform@1@@Z 0000000180054578     ConvexHullUtils.obj
 0002:0000e59c       $chain$4$?computeOBBFromConvex@physx@@YA_NAEBVPxConvexMeshDesc@1@AEAVPxVec3@1@AEAVPxTransform@1@@Z 000000018005459c     ConvexHullUtils.obj
 0002:0000e5c0       $chain$5$?computeOBBFromConvex@physx@@YA_NAEBVPxConvexMeshDesc@1@AEAVPxVec3@1@AEAVPxTransform@1@@Z 00000001800545c0     ConvexHullUtils.obj
 0002:0000e5d0       $unwind$?rotate@Box@Gu@physx@@QEBA?AVPxVec3@3@AEBV43@@Z 00000001800545d0     ConvexHullUtils.obj
 0002:0000e5dc       $unwind$?rotateInv@Box@Gu@physx@@QEBA?AVPxVec3@3@AEBV43@@Z 00000001800545dc     ConvexHullUtils.obj
 0002:0000e5dc       $unwind$?transform@Box@Gu@physx@@QEBA?AVPxVec3@3@AEBV43@@Z 00000001800545dc     ConvexHullUtils.obj
 0002:0000e5e8       $unwind$?computeAABBExtent@Box@Gu@physx@@QEBA?AVPxVec3@3@XZ 00000001800545e8     ConvexHullUtils.obj
 0002:0000e5f4       $unwind$?computeOBBSIMD@local@@YAXIPEBT__m128@@AEAT2@AEBT2@1@Z 00000001800545f4     ConvexHullUtils.obj
 0002:0000e618       $chain$1$?computeOBBSIMD@local@@YAXIPEBT__m128@@AEAT2@AEBT2@1@Z 0000000180054618     ConvexHullUtils.obj
 0002:0000e630       $chain$2$?computeOBBSIMD@local@@YAXIPEBT__m128@@AEAT2@AEBT2@1@Z 0000000180054630     ConvexHullUtils.obj
 0002:0000e640       $unwind$?build@ConvexMeshBuilder@physx@@QEAA_NAEBVPxConvexMeshDesc@2@I_NPEAVConvexHullLib@2@@Z 0000000180054640     ConvexMeshBuilder.obj
 0002:0000e650       $chain$0$?build@ConvexMeshBuilder@physx@@QEAA_NAEBVPxConvexMeshDesc@2@I_NPEAVConvexHullLib@2@@Z 0000000180054650     ConvexMeshBuilder.obj
 0002:0000e664       $chain$2$?build@ConvexMeshBuilder@physx@@QEAA_NAEBVPxConvexMeshDesc@2@I_NPEAVConvexHullLib@2@@Z 0000000180054664     ConvexMeshBuilder.obj
 0002:0000e67c       $chain$3$?build@ConvexMeshBuilder@physx@@QEAA_NAEBVPxConvexMeshDesc@2@I_NPEAVConvexHullLib@2@@Z 000000018005467c     ConvexMeshBuilder.obj
 0002:0000e68c       $chain$4$?build@ConvexMeshBuilder@physx@@QEAA_NAEBVPxConvexMeshDesc@2@I_NPEAVConvexHullLib@2@@Z 000000018005468c     ConvexMeshBuilder.obj
 0002:0000e69c       $unwind$?save@ConvexMeshBuilder@physx@@QEBA_NAEAVPxOutputStream@2@_N@Z 000000018005469c     ConvexMeshBuilder.obj
 0002:0000e6ac       $chain$0$?save@ConvexMeshBuilder@physx@@QEBA_NAEAVPxOutputStream@2@_N@Z 00000001800546ac     ConvexMeshBuilder.obj
 0002:0000e6c0       $chain$1$?save@ConvexMeshBuilder@physx@@QEBA_NAEAVPxOutputStream@2@_N@Z 00000001800546c0     ConvexMeshBuilder.obj
 0002:0000e6d0       $unwind$?loadConvexHull@ConvexMeshBuilder@physx@@QEAA_NAEBVPxConvexMeshDesc@2@PEAVConvexHullLib@2@@Z 00000001800546d0     ConvexMeshBuilder.obj
 0002:0000e6f0       $unwind$?computeHullPolygons@ConvexMeshBuilder@physx@@QEAA_NAEBIPEBVPxVec3@2@0PEBIAEAVPxAllocatorCallback@2@AEAIAEAPEAV32@4AEAPEAI4AEAPEAUPxHullPolygon@2@@Z 00000001800546f0     ConvexMeshBuilder.obj
 0002:0000e6fc       $chain$4$?computeHullPolygons@ConvexMeshBuilder@physx@@QEAA_NAEBIPEBVPxVec3@2@0PEBIAEAVPxAllocatorCallback@2@AEAIAEAPEAV32@4AEAPEAI4AEAPEAUPxHullPolygon@2@@Z 00000001800546fc     ConvexMeshBuilder.obj
 0002:0000e71c       $chain$5$?computeHullPolygons@ConvexMeshBuilder@physx@@QEAA_NAEBIPEBVPxVec3@2@0PEBIAEAVPxAllocatorCallback@2@AEAIAEAPEAV32@4AEAPEAI4AEAPEAUPxHullPolygon@2@@Z 000000018005471c     ConvexMeshBuilder.obj
 0002:0000e734       $unwind$?computeMassInfo@ConvexMeshBuilder@physx@@QEAAX_N@Z 0000000180054734     ConvexMeshBuilder.obj
 0002:0000e744       $chain$0$?computeMassInfo@ConvexMeshBuilder@physx@@QEAAX_N@Z 0000000180054744     ConvexMeshBuilder.obj
 0002:0000e758       $chain$1$?computeMassInfo@ConvexMeshBuilder@physx@@QEAAX_N@Z 0000000180054758     ConvexMeshBuilder.obj
 0002:0000e76c       $chain$5$?computeMassInfo@ConvexMeshBuilder@physx@@QEAAX_N@Z 000000018005476c     ConvexMeshBuilder.obj
 0002:0000e78c       $chain$6$?computeMassInfo@ConvexMeshBuilder@physx@@QEAAX_N@Z 000000018005478c     ConvexMeshBuilder.obj
 0002:0000e79c       $chain$7$?computeMassInfo@ConvexMeshBuilder@physx@@QEAAX_N@Z 000000018005479c     ConvexMeshBuilder.obj
 0002:0000e7ac       $chain$8$?computeMassInfo@ConvexMeshBuilder@physx@@QEAAX_N@Z 00000001800547ac     ConvexMeshBuilder.obj
 0002:0000e7bc       $unwind$?ComputeInternalExtent@@YAXAEAUConvexHullData@Gu@physx@@PEBUHullPolygonData@23@@Z 00000001800547bc     ConvexMeshBuilder.obj
 0002:0000e7e4       $chain$0$?ComputeInternalExtent@@YAXAEAUConvexHullData@Gu@physx@@PEBUHullPolygonData@23@@Z 00000001800547e4     ConvexMeshBuilder.obj
 0002:0000e7f8       $chain$1$?ComputeInternalExtent@@YAXAEAUConvexHullData@Gu@physx@@PEBUHullPolygonData@23@@Z 00000001800547f8     ConvexMeshBuilder.obj
 0002:0000e808       $unwind$?computeHullPolygons@ConvexPolygonsBuilder@physx@@QEAA_NAEBIPEBVPxVec3@2@0PEBI@Z 0000000180054808     ConvexPolygonsBuilder.obj
 0002:0000e82c       $chain$0$?computeHullPolygons@ConvexPolygonsBuilder@physx@@QEAA_NAEBIPEBVPxVec3@2@0PEBI@Z 000000018005482c     ConvexPolygonsBuilder.obj
 0002:0000e840       $chain$8$?computeHullPolygons@ConvexPolygonsBuilder@physx@@QEAA_NAEBIPEBVPxVec3@2@0PEBI@Z 0000000180054840     ConvexPolygonsBuilder.obj
 0002:0000e870       $chain$9$?computeHullPolygons@ConvexPolygonsBuilder@physx@@QEAA_NAEBIPEBVPxVec3@2@0PEBI@Z 0000000180054870     ConvexPolygonsBuilder.obj
 0002:0000e8a0       $unwind$?createPolygonData@ConvexPolygonsBuilder@physx@@AEAA_NXZ 00000001800548a0     ConvexPolygonsBuilder.obj
 0002:0000e8b0       $chain$0$?createPolygonData@ConvexPolygonsBuilder@physx@@AEAA_NXZ 00000001800548b0     ConvexPolygonsBuilder.obj
 0002:0000e8c4       $chain$6$?createPolygonData@ConvexPolygonsBuilder@physx@@AEAA_NXZ 00000001800548c4     ConvexPolygonsBuilder.obj
 0002:0000e8ec       $chain$7$?createPolygonData@ConvexPolygonsBuilder@physx@@AEAA_NXZ 00000001800548ec     ConvexPolygonsBuilder.obj
 0002:0000e8fc       $chain$8$?createPolygonData@ConvexPolygonsBuilder@physx@@AEAA_NXZ 00000001800548fc     ConvexPolygonsBuilder.obj
 0002:0000e90c       $chain$9$?createPolygonData@ConvexPolygonsBuilder@physx@@AEAA_NXZ 000000018005490c     ConvexPolygonsBuilder.obj
 0002:0000e938       $chain$14$?createPolygonData@ConvexPolygonsBuilder@physx@@AEAA_NXZ 0000000180054938     ConvexPolygonsBuilder.obj
 0002:0000e95c       $chain$15$?createPolygonData@ConvexPolygonsBuilder@physx@@AEAA_NXZ 000000018005495c     ConvexPolygonsBuilder.obj
 0002:0000e96c       $unwind$?createTrianglesFromPolygons@ConvexPolygonsBuilder@physx@@AEAA_NXZ 000000018005496c     ConvexPolygonsBuilder.obj
 0002:0000e990       $chain$3$?createTrianglesFromPolygons@ConvexPolygonsBuilder@physx@@AEAA_NXZ 0000000180054990     ConvexPolygonsBuilder.obj
 0002:0000e9b0       $chain$4$?createTrianglesFromPolygons@ConvexPolygonsBuilder@physx@@AEAA_NXZ 00000001800549b0     ConvexPolygonsBuilder.obj
 0002:0000e9c0       $unwind$?findLineStrip@@YA_NAEAV?$Array@IV?$ReflectionAllocator@I@shdfnd@physx@@@shdfnd@physx@@AEBV?$Array@VPair@@V?$ReflectionAllocator@VPair@@@shdfnd@physx@@@23@@Z 00000001800549c0     ConvexPolygonsBuilder.obj
 0002:0000e9cc       $chain$3$?findLineStrip@@YA_NAEAV?$Array@IV?$ReflectionAllocator@I@shdfnd@physx@@@shdfnd@physx@@AEBV?$Array@VPair@@V?$ReflectionAllocator@VPair@@@shdfnd@physx@@@23@@Z 00000001800549cc     ConvexPolygonsBuilder.obj
 0002:0000e9ec       $chain$5$?findLineStrip@@YA_NAEAV?$Array@IV?$ReflectionAllocator@I@shdfnd@physx@@@shdfnd@physx@@AEBV?$Array@VPair@@V?$ReflectionAllocator@VPair@@@shdfnd@physx@@@23@@Z 00000001800549ec     ConvexPolygonsBuilder.obj
 0002:0000ea04       $chain$6$?findLineStrip@@YA_NAEAV?$Array@IV?$ReflectionAllocator@I@shdfnd@physx@@@shdfnd@physx@@AEBV?$Array@VPair@@V?$ReflectionAllocator@VPair@@@shdfnd@physx@@@23@@Z 0000000180054a04     ConvexPolygonsBuilder.obj
 0002:0000ea14       $chain$7$?findLineStrip@@YA_NAEAV?$Array@IV?$ReflectionAllocator@I@shdfnd@physx@@@shdfnd@physx@@AEBV?$Array@VPair@@V?$ReflectionAllocator@VPair@@@shdfnd@physx@@@23@@Z 0000000180054a14     ConvexPolygonsBuilder.obj
 0002:0000ea3c       $chain$1$?allocate@?$Array@VPair@@V?$ReflectionAllocator@VPair@@@shdfnd@physx@@@shdfnd@physx@@IEAAPEAVPair@@I@Z 0000000180054a3c     ConvexPolygonsBuilder.obj
 0002:0000ea54       $chain$3$?allocate@?$Array@VPair@@V?$ReflectionAllocator@VPair@@@shdfnd@physx@@@shdfnd@physx@@IEAAPEAVPair@@I@Z 0000000180054a54     ConvexPolygonsBuilder.obj
 0002:0000ea68       $chain$4$?allocate@?$Array@VPair@@V?$ReflectionAllocator@VPair@@@shdfnd@physx@@@shdfnd@physx@@IEAAPEAVPair@@I@Z 0000000180054a68     ConvexPolygonsBuilder.obj
 0002:0000ea78       $unwind$?TestDuplicateTriangles@@YA_NAEAIPEAU?$TriangleT@I@Gu@physx@@_N@Z 0000000180054a78     ConvexPolygonsBuilder.obj
 0002:0000ea94       $unwind$?computeNewellPlane@@YA_NAEAVPxPlane@physx@@IPEBEPEBVPxVec3@2@@Z 0000000180054a94     ConvexPolygonsBuilder.obj
 0002:0000ea9c       $chain$5$?computeNewellPlane@@YA_NAEAVPxPlane@physx@@IPEBEPEBVPxVec3@2@@Z 0000000180054a9c     ConvexPolygonsBuilder.obj
 0002:0000eac4       $chain$8$?computeNewellPlane@@YA_NAEAVPxPlane@physx@@IPEBEPEBVPxVec3@2@@Z 0000000180054ac4     ConvexPolygonsBuilder.obj
 0002:0000eae0       $chain$9$?computeNewellPlane@@YA_NAEAVPxPlane@physx@@IPEBEPEBVPxVec3@2@@Z 0000000180054ae0     ConvexPolygonsBuilder.obj
 0002:0000eaf0       $chain$10$?computeNewellPlane@@YA_NAEAVPxPlane@physx@@IPEBEPEBVPxVec3@2@@Z 0000000180054af0     ConvexPolygonsBuilder.obj
 0002:0000eb10       $chain$11$?computeNewellPlane@@YA_NAEAVPxPlane@physx@@IPEBEPEBVPxVec3@2@@Z 0000000180054b10     ConvexPolygonsBuilder.obj
 0002:0000eb20       $unwind$?checkRedundantVertices@@YAXAEAIAEAV?$Array@IV?$ReflectionAllocator@I@shdfnd@physx@@@shdfnd@physx@@AEBVConvexPolygonsBuilder@3@11@Z 0000000180054b20     ConvexPolygonsBuilder.obj
 0002:0000eb3c       $unwind$?extractHullPolygons@@YA_NAEAIAEAV?$Array@IV?$ReflectionAllocator@I@shdfnd@physx@@@shdfnd@physx@@AEBVConvexPolygonsBuilder@3@PEAV123@1@Z 0000000180054b3c     ConvexPolygonsBuilder.obj
 0002:0000eb58       $unwind$?FloodFill@Local@?7??extractHullPolygons@@YA_NAEAIAEAV?$Array@IV?$ReflectionAllocator@I@shdfnd@physx@@@shdfnd@physx@@AEBVConvexPolygonsBuilder@5@PEAV345@1@Z@SAX1PEBVAdjTriangle@5@IPEA_N@Z 0000000180054b58     ConvexPolygonsBuilder.obj
 0002:0000eb68       $chain$0$?FloodFill@Local@?7??extractHullPolygons@@YA_NAEAIAEAV?$Array@IV?$ReflectionAllocator@I@shdfnd@physx@@@shdfnd@physx@@AEBVConvexPolygonsBuilder@5@PEAV345@1@Z@SAX1PEBVAdjTriangle@5@IPEA_N@Z 0000000180054b68     ConvexPolygonsBuilder.obj
 0002:0000eb7c       $chain$1$?FloodFill@Local@?7??extractHullPolygons@@YA_NAEAIAEAV?$Array@IV?$ReflectionAllocator@I@shdfnd@physx@@@shdfnd@physx@@AEBVConvexPolygonsBuilder@5@PEAV345@1@Z@SAX1PEBVAdjTriangle@5@IPEA_N@Z 0000000180054b7c     ConvexPolygonsBuilder.obj
 0002:0000eb8c       $unwind$?CheckFloodFillFace@Local@?7??extractHullPolygons@@YA_NAEAIAEAV?$Array@IV?$ReflectionAllocator@I@shdfnd@physx@@@shdfnd@physx@@AEBVConvexPolygonsBuilder@5@PEAV345@1@Z@SA_NIPEBVAdjTriangle@5@PEBI@Z 0000000180054b8c     ConvexPolygonsBuilder.obj
 0002:0000eba4       $unwind$?createConvexHull@QuickHullConvexHullLib@physx@@UEAA?AW4Enum@PxConvexMeshCookingResult@2@XZ 0000000180054ba4     QuickHullConvexHullLib.obj
 0002:0000ebbc       $unwind$?createEdgeList@QuickHullConvexHullLib@physx@@UEAA_NIPEBEPEAPEAEPEAPEAG2@Z 0000000180054bbc     QuickHullConvexHullLib.obj
 0002:0000ebdc       $chain$5$?createEdgeList@QuickHullConvexHullLib@physx@@UEAA_NIPEBEPEAPEAEPEAPEAG2@Z 0000000180054bdc     QuickHullConvexHullLib.obj
 0002:0000ebf0       $chain$6$?createEdgeList@QuickHullConvexHullLib@physx@@UEAA_NIPEBEPEAPEAEPEAPEAG2@Z 0000000180054bf0     QuickHullConvexHullLib.obj
 0002:0000ec00       $unwind$?expandHullOBB@QuickHullConvexHullLib@physx@@IEAA?AW4Enum@PxConvexMeshCookingResult@2@XZ 0000000180054c00     QuickHullConvexHullLib.obj
 0002:0000ec0c       $chain$4$?expandHullOBB@QuickHullConvexHullLib@physx@@IEAA?AW4Enum@PxConvexMeshCookingResult@2@XZ 0000000180054c0c     QuickHullConvexHullLib.obj
 0002:0000ec30       $chain$5$?expandHullOBB@QuickHullConvexHullLib@physx@@IEAA?AW4Enum@PxConvexMeshCookingResult@2@XZ 0000000180054c30     QuickHullConvexHullLib.obj
 0002:0000ec44       $chain$6$?expandHullOBB@QuickHullConvexHullLib@physx@@IEAA?AW4Enum@PxConvexMeshCookingResult@2@XZ 0000000180054c44     QuickHullConvexHullLib.obj
 0002:0000ec54       $chain$7$?expandHullOBB@QuickHullConvexHullLib@physx@@IEAA?AW4Enum@PxConvexMeshCookingResult@2@XZ 0000000180054c54     QuickHullConvexHullLib.obj
 0002:0000ec64       $unwind$?expandHull@QuickHullConvexHullLib@physx@@IEAA?AW4Enum@PxConvexMeshCookingResult@2@XZ 0000000180054c64     QuickHullConvexHullLib.obj
 0002:0000ec88       $unwind$?cleanupForSimplex@QuickHullConvexHullLib@physx@@IEAA_NPEAVPxVec3@2@IPEAUQuickHullVertex@local@@1AEAM2@Z 0000000180054c88     QuickHullConvexHullLib.obj
 0002:0000ecac       $chain$4$?cleanupForSimplex@QuickHullConvexHullLib@physx@@IEAA_NPEAVPxVec3@2@IPEAUQuickHullVertex@local@@1AEAM2@Z 0000000180054cac     QuickHullConvexHullLib.obj
 0002:0000ecd0       $chain$6$?cleanupForSimplex@QuickHullConvexHullLib@physx@@IEAA_NPEAVPxVec3@2@IPEAUQuickHullVertex@local@@1AEAM2@Z 0000000180054cd0     QuickHullConvexHullLib.obj
 0002:0000ece8       $chain$7$?cleanupForSimplex@QuickHullConvexHullLib@physx@@IEAA_NPEAVPxVec3@2@IPEAUQuickHullVertex@local@@1AEAM2@Z 0000000180054ce8     QuickHullConvexHullLib.obj
 0002:0000ecfc       $chain$8$?cleanupForSimplex@QuickHullConvexHullLib@physx@@IEAA_NPEAVPxVec3@2@IPEAUQuickHullVertex@local@@1AEAM2@Z 0000000180054cfc     QuickHullConvexHullLib.obj
 0002:0000ed10       $chain$9$?cleanupForSimplex@QuickHullConvexHullLib@physx@@IEAA_NPEAVPxVec3@2@IPEAUQuickHullVertex@local@@1AEAM2@Z 0000000180054d10     QuickHullConvexHullLib.obj
 0002:0000ed20       $chain$10$?cleanupForSimplex@QuickHullConvexHullLib@physx@@IEAA_NPEAVPxVec3@2@IPEAUQuickHullVertex@local@@1AEAM2@Z 0000000180054d20     QuickHullConvexHullLib.obj
 0002:0000ed30       $chain$11$?cleanupForSimplex@QuickHullConvexHullLib@physx@@IEAA_NPEAVPxVec3@2@IPEAUQuickHullVertex@local@@1AEAM2@Z 0000000180054d30     QuickHullConvexHullLib.obj
 0002:0000ed40       $chain$12$?cleanupForSimplex@QuickHullConvexHullLib@physx@@IEAA_NPEAVPxVec3@2@IPEAUQuickHullVertex@local@@1AEAM2@Z 0000000180054d40     QuickHullConvexHullLib.obj
 0002:0000ed50       $unwind$?fillConvexMeshDescFromQuickHull@QuickHullConvexHullLib@physx@@IEAAXAEAVPxConvexMeshDesc@2@@Z 0000000180054d50     QuickHullConvexHullLib.obj
 0002:0000ed68       $unwind$?fillConvexMeshDescFromCroppedHull@QuickHullConvexHullLib@physx@@IEAAXAEAVPxConvexMeshDesc@2@@Z 0000000180054d68     QuickHullConvexHullLib.obj
 0002:0000ed80       $chain$0$??_GConvexHull@physx@@QEAAPEAXI@Z 0000000180054d80     QuickHullConvexHullLib.obj
 0002:0000ed94       $chain$1$??_GConvexHull@physx@@QEAAPEAXI@Z 0000000180054d94     QuickHullConvexHullLib.obj
 0002:0000eda4       $unwind$?mergeAdjacentFace@QuickHullFace@local@@QEAA_NPEAUQuickHullHalfEdge@2@AEAV?$Array@PEAUQuickHullFace@local@@V?$ReflectionAllocator@PEAUQuickHullFace@local@@@shdfnd@physx@@@shdfnd@physx@@@Z 0000000180054da4     QuickHullConvexHullLib.obj
 0002:0000edbc       $chain$4$?mergeAdjacentFace@QuickHullFace@local@@QEAA_NPEAUQuickHullHalfEdge@2@AEAV?$Array@PEAUQuickHullFace@local@@V?$ReflectionAllocator@PEAUQuickHullFace@local@@@shdfnd@physx@@@shdfnd@physx@@@Z 0000000180054dbc     QuickHullConvexHullLib.obj
 0002:0000ede0       $chain$5$?mergeAdjacentFace@QuickHullFace@local@@QEAA_NPEAUQuickHullHalfEdge@2@AEAV?$Array@PEAUQuickHullFace@local@@V?$ReflectionAllocator@PEAUQuickHullFace@local@@@shdfnd@physx@@@shdfnd@physx@@@Z 0000000180054de0     QuickHullConvexHullLib.obj
 0002:0000ede0       $chain$8$?mergeAdjacentFace@QuickHullFace@local@@QEAA_NPEAUQuickHullHalfEdge@2@AEAV?$Array@PEAUQuickHullFace@local@@V?$ReflectionAllocator@PEAUQuickHullFace@local@@@shdfnd@physx@@@shdfnd@physx@@@Z 0000000180054de0     QuickHullConvexHullLib.obj
 0002:0000edf0       $chain$6$?mergeAdjacentFace@QuickHullFace@local@@QEAA_NPEAUQuickHullHalfEdge@2@AEAV?$Array@PEAUQuickHullFace@local@@V?$ReflectionAllocator@PEAUQuickHullFace@local@@@shdfnd@physx@@@shdfnd@physx@@@Z 0000000180054df0     QuickHullConvexHullLib.obj
 0002:0000ee14       $chain$7$?mergeAdjacentFace@QuickHullFace@local@@QEAA_NPEAUQuickHullHalfEdge@2@AEAV?$Array@PEAUQuickHullFace@local@@V?$ReflectionAllocator@PEAUQuickHullFace@local@@@shdfnd@physx@@@shdfnd@physx@@@Z 0000000180054e14     QuickHullConvexHullLib.obj
 0002:0000ee28       $unwind$?connectHalfEdges@QuickHullFace@local@@AEAAPEAU12@PEAUQuickHullHalfEdge@2@0@Z 0000000180054e28     QuickHullConvexHullLib.obj
 0002:0000ee30       $chain$5$?connectHalfEdges@QuickHullFace@local@@AEAAPEAU12@PEAUQuickHullHalfEdge@2@0@Z 0000000180054e30     QuickHullConvexHullLib.obj
 0002:0000ee58       $chain$6$?connectHalfEdges@QuickHullFace@local@@AEAAPEAU12@PEAUQuickHullHalfEdge@2@0@Z 0000000180054e58     QuickHullConvexHullLib.obj
 0002:0000ee7c       $chain$7$?connectHalfEdges@QuickHullFace@local@@AEAAPEAU12@PEAUQuickHullHalfEdge@2@0@Z 0000000180054e7c     QuickHullConvexHullLib.obj
 0002:0000ee90       $chain$8$?connectHalfEdges@QuickHullFace@local@@AEAAPEAU12@PEAUQuickHullHalfEdge@2@0@Z 0000000180054e90     QuickHullConvexHullLib.obj
 0002:0000eea0       $unwind$?parseInputVertices@QuickHull@local@@QEAAXPEBVPxVec3@physx@@I@Z 0000000180054ea0     QuickHullConvexHullLib.obj
 0002:0000eeac       $chain$1$?parseInputVertices@QuickHull@local@@QEAAXPEBVPxVec3@physx@@I@Z 0000000180054eac     QuickHullConvexHullLib.obj
 0002:0000eec4       $chain$2$?parseInputVertices@QuickHull@local@@QEAAXPEBVPxVec3@physx@@I@Z 0000000180054ec4     QuickHullConvexHullLib.obj
 0002:0000eed4       $unwind$?buildHull@QuickHull@local@@QEAA?AW4Enum@QuickHullResult@2@XZ 0000000180054ed4     QuickHullConvexHullLib.obj
 0002:0000eee8       $unwind$?computeMinMaxVerts@QuickHull@local@@IEAAXXZ 0000000180054ee8     QuickHullConvexHullLib.obj
 0002:0000eef4       $unwind$?findSimplex@QuickHull@local@@IEAA_NXZ 0000000180054ef4     QuickHullConvexHullLib.obj
 0002:0000ef08       $chain$8$?findSimplex@QuickHull@local@@IEAA_NXZ 0000000180054f08     QuickHullConvexHullLib.obj
 0002:0000ef3c       $chain$12$?findSimplex@QuickHull@local@@IEAA_NXZ 0000000180054f3c     QuickHullConvexHullLib.obj
 0002:0000ef5c       $chain$13$?findSimplex@QuickHull@local@@IEAA_NXZ 0000000180054f5c     QuickHullConvexHullLib.obj
 0002:0000ef5c       $chain$15$?findSimplex@QuickHull@local@@IEAA_NXZ 0000000180054f5c     QuickHullConvexHullLib.obj
 0002:0000ef90       $chain$14$?findSimplex@QuickHull@local@@IEAA_NXZ 0000000180054f90     QuickHullConvexHullLib.obj
 0002:0000efd4       $chain$16$?findSimplex@QuickHull@local@@IEAA_NXZ 0000000180054fd4     QuickHullConvexHullLib.obj
 0002:0000efe4       $unwind$?addSimplex@QuickHull@local@@IEAAXPEAUQuickHullVertex@2@_N@Z 0000000180054fe4     QuickHullConvexHullLib.obj
 0002:0000eff8       $chain$2$?addSimplex@QuickHull@local@@IEAAXPEAUQuickHullVertex@2@_N@Z 0000000180054ff8     QuickHullConvexHullLib.obj
 0002:0000f014       $chain$8$?addSimplex@QuickHull@local@@IEAAXPEAUQuickHullVertex@2@_N@Z 0000000180055014     QuickHullConvexHullLib.obj
 0002:0000f038       $chain$3$?addSimplex@QuickHull@local@@IEAAXPEAUQuickHullVertex@2@_N@Z 0000000180055038     QuickHullConvexHullLib.obj
 0002:0000f048       $unwind$?nextPointToAdd@QuickHull@local@@IEAAPEAUQuickHullVertex@2@AEAPEAUQuickHullFace@2@@Z 0000000180055048     QuickHullConvexHullLib.obj
 0002:0000f05c       $unwind$?addPointToHull@QuickHull@local@@IEAA_NPEBUQuickHullVertex@2@AEAUQuickHullFace@2@AEA_N@Z 000000018005505c     QuickHullConvexHullLib.obj
 0002:0000f070       $chain$1$?addPointToHull@QuickHull@local@@IEAA_NPEBUQuickHullVertex@2@AEAUQuickHullFace@2@AEA_N@Z 0000000180055070     QuickHullConvexHullLib.obj
 0002:0000f088       $chain$2$?addPointToHull@QuickHull@local@@IEAA_NPEBUQuickHullVertex@2@AEAUQuickHullFace@2@AEA_N@Z 0000000180055088     QuickHullConvexHullLib.obj
 0002:0000f09c       $unwind$?createTriangle@QuickHull@local@@IEAAPEAUQuickHullFace@2@AEBUQuickHullVertex@2@00@Z 000000018005509c     QuickHullConvexHullLib.obj
 0002:0000f0c8       $unwind$?calculateHorizon@QuickHull@local@@IEAAXAEBVPxVec3@physx@@PEAUQuickHullHalfEdge@2@AEAUQuickHullFace@2@AEAV?$Array@PEAUQuickHullHalfEdge@local@@V?$ReflectionAllocator@PEAUQuickHullHalfEdge@local@@@shdfnd@physx@@@shdfnd@4@AEAV?$Array@PEAUQuickHullFace@local@@V?$ReflectionAllocator@PEAUQuickHullFace@local@@@shdfnd@physx@@@84@@Z 00000001800550c8     QuickHullConvexHullLib.obj
 0002:0000f0e0       $chain$1$?doAdjacentMerge@QuickHull@local@@IEAA_NAEAUQuickHullFace@2@_NAEA_N@Z 00000001800550e0     QuickHullConvexHullLib.obj
 0002:0000f0f8       $chain$2$?doAdjacentMerge@QuickHull@local@@IEAA_NAEAUQuickHullFace@2@_NAEA_N@Z 00000001800550f8     QuickHullConvexHullLib.obj
 0002:0000f10c       $chain$3$?doAdjacentMerge@QuickHull@local@@IEAA_NAEAUQuickHullFace@2@_NAEA_N@Z 000000018005510c     QuickHullConvexHullLib.obj
 0002:0000f120       $chain$4$?doAdjacentMerge@QuickHull@local@@IEAA_NAEAUQuickHullFace@2@_NAEA_N@Z 0000000180055120     QuickHullConvexHullLib.obj
 0002:0000f130       $chain$5$?doAdjacentMerge@QuickHull@local@@IEAA_NAEAUQuickHullFace@2@_NAEA_N@Z 0000000180055130     QuickHullConvexHullLib.obj
 0002:0000f140       $unwind$?resolveUnclaimedPoints@QuickHull@local@@IEAAXAEBV?$Array@PEAUQuickHullFace@local@@V?$ReflectionAllocator@PEAUQuickHullFace@local@@@shdfnd@physx@@@shdfnd@physx@@@Z 0000000180055140     QuickHullConvexHullLib.obj
 0002:0000f150       $chain$1$?resolveUnclaimedPoints@QuickHull@local@@IEAAXAEBV?$Array@PEAUQuickHullFace@local@@V?$ReflectionAllocator@PEAUQuickHullFace@local@@@shdfnd@physx@@@shdfnd@physx@@@Z 0000000180055150     QuickHullConvexHullLib.obj
 0002:0000f168       $chain$2$?resolveUnclaimedPoints@QuickHull@local@@IEAAXAEBV?$Array@PEAUQuickHullFace@local@@V?$ReflectionAllocator@PEAUQuickHullFace@local@@@shdfnd@physx@@@shdfnd@physx@@@Z 0000000180055168     QuickHullConvexHullLib.obj
 0002:0000f178       $unwind$?postMergeHull@QuickHull@local@@IEAAXXZ 0000000180055178     QuickHullConvexHullLib.obj
 0002:0000f184       $chain$5$?postMergeHull@QuickHull@local@@IEAAXXZ 0000000180055184     QuickHullConvexHullLib.obj
 0002:0000f1ac       $chain$6$?postMergeHull@QuickHull@local@@IEAAXXZ 00000001800551ac     QuickHullConvexHullLib.obj
 0002:0000f1bc       $chain$7$?postMergeHull@QuickHull@local@@IEAAXXZ 00000001800551bc     QuickHullConvexHullLib.obj
 0002:0000f1e4       $unwind$?canMergeFaces@QuickHull@local@@IEAA_NAEBUQuickHullHalfEdge@2@@Z 00000001800551e4     QuickHullConvexHullLib.obj
 0002:0000f228       $unwind$?init@?$MemBlock@UQuickHullHalfEdge@local@@$0A@@local@@QEAAXI@Z 0000000180055228     QuickHullConvexHullLib.obj
 0002:0000f234       $unwind$??1?$MemBlock@UQuickHullFace@local@@$00@local@@QEAA@XZ 0000000180055234     QuickHullConvexHullLib.obj
 0002:0000f234       $unwind$??1?$MemBlock@UQuickHullHalfEdge@local@@$0A@@local@@QEAA@XZ 0000000180055234     QuickHullConvexHullLib.obj
 0002:0000f240       $chain$0$??1?$MemBlock@UQuickHullFace@local@@$00@local@@QEAA@XZ 0000000180055240     QuickHullConvexHullLib.obj
 0002:0000f240       $chain$0$??1?$MemBlock@UQuickHullHalfEdge@local@@$0A@@local@@QEAA@XZ 0000000180055240     QuickHullConvexHullLib.obj
 0002:0000f254       $chain$1$??1?$MemBlock@UQuickHullFace@local@@$00@local@@QEAA@XZ 0000000180055254     QuickHullConvexHullLib.obj
 0002:0000f254       $chain$1$??1?$MemBlock@UQuickHullHalfEdge@local@@$0A@@local@@QEAA@XZ 0000000180055254     QuickHullConvexHullLib.obj
 0002:0000f264       $unwind$?getFreeItem@?$MemBlock@UQuickHullHalfEdge@local@@$0A@@local@@QEAAPEAUQuickHullHalfEdge@2@XZ 0000000180055264     QuickHullConvexHullLib.obj
 0002:0000f270       $chain$1$?allocate@?$Array@PEAUQuickHullHalfEdge@local@@V?$ReflectionAllocator@PEAUQuickHullHalfEdge@local@@@shdfnd@physx@@@shdfnd@physx@@IEAAPEAPEAUQuickHullHalfEdge@local@@I@Z 0000000180055270     QuickHullConvexHullLib.obj
 0002:0000f288       $chain$3$?allocate@?$Array@PEAUQuickHullHalfEdge@local@@V?$ReflectionAllocator@PEAUQuickHullHalfEdge@local@@@shdfnd@physx@@@shdfnd@physx@@IEAAPEAPEAUQuickHullHalfEdge@local@@I@Z 0000000180055288     QuickHullConvexHullLib.obj
 0002:0000f29c       $chain$4$?allocate@?$Array@PEAUQuickHullHalfEdge@local@@V?$ReflectionAllocator@PEAUQuickHullHalfEdge@local@@@shdfnd@physx@@@shdfnd@physx@@IEAAPEAPEAUQuickHullHalfEdge@local@@I@Z 000000018005529c     QuickHullConvexHullLib.obj
 0002:0000f2ac       $chain$0$?recreate@?$Array@PEAUQuickHullHalfEdge@local@@V?$ReflectionAllocator@PEAUQuickHullHalfEdge@local@@@shdfnd@physx@@@shdfnd@physx@@IEAAXI@Z 00000001800552ac     QuickHullConvexHullLib.obj
 0002:0000f2c0       $chain$1$?recreate@?$Array@PEAUQuickHullHalfEdge@local@@V?$ReflectionAllocator@PEAUQuickHullHalfEdge@local@@@shdfnd@physx@@@shdfnd@physx@@IEAAXI@Z 00000001800552c0     QuickHullConvexHullLib.obj
 0002:0000f2d0       $unwind$?init@?$MemBlock@UQuickHullFace@local@@$00@local@@QEAAXI@Z 00000001800552d0     QuickHullConvexHullLib.obj
 0002:0000f2e0       $unwind$?getFreeItem@?$MemBlock@UQuickHullFace@local@@$00@local@@QEAAPEAUQuickHullFace@2@XZ 00000001800552e0     QuickHullConvexHullLib.obj
 0002:0000f2f0       $chain$1$?allocate@?$Array@PEAUQuickHullFace@local@@V?$ReflectionAllocator@PEAUQuickHullFace@local@@@shdfnd@physx@@@shdfnd@physx@@IEAAPEAPEAUQuickHullFace@local@@I@Z 00000001800552f0     QuickHullConvexHullLib.obj
 0002:0000f308       $chain$3$?allocate@?$Array@PEAUQuickHullFace@local@@V?$ReflectionAllocator@PEAUQuickHullFace@local@@@shdfnd@physx@@@shdfnd@physx@@IEAAPEAPEAUQuickHullFace@local@@I@Z 0000000180055308     QuickHullConvexHullLib.obj
 0002:0000f31c       $chain$4$?allocate@?$Array@PEAUQuickHullFace@local@@V?$ReflectionAllocator@PEAUQuickHullFace@local@@@shdfnd@physx@@@shdfnd@physx@@IEAAPEAPEAUQuickHullFace@local@@I@Z 000000018005531c     QuickHullConvexHullLib.obj
 0002:0000f32c       $chain$0$?recreate@?$Array@PEAUQuickHullFace@local@@V?$ReflectionAllocator@PEAUQuickHullFace@local@@@shdfnd@physx@@@shdfnd@physx@@IEAAXI@Z 000000018005532c     QuickHullConvexHullLib.obj
 0002:0000f340       $chain$1$?recreate@?$Array@PEAUQuickHullFace@local@@V?$ReflectionAllocator@PEAUQuickHullFace@local@@@shdfnd@physx@@@shdfnd@physx@@IEAAXI@Z 0000000180055340     QuickHullConvexHullLib.obj
 0002:0000f350       $chain$1$?allocate@?$Array@PEAUQuickHullVertex@local@@V?$ReflectionAllocator@PEAUQuickHullVertex@local@@@shdfnd@physx@@@shdfnd@physx@@IEAAPEAPEAUQuickHullVertex@local@@I@Z 0000000180055350     QuickHullConvexHullLib.obj
 0002:0000f368       $chain$3$?allocate@?$Array@PEAUQuickHullVertex@local@@V?$ReflectionAllocator@PEAUQuickHullVertex@local@@@shdfnd@physx@@@shdfnd@physx@@IEAAPEAPEAUQuickHullVertex@local@@I@Z 0000000180055368     QuickHullConvexHullLib.obj
 0002:0000f37c       $chain$4$?allocate@?$Array@PEAUQuickHullVertex@local@@V?$ReflectionAllocator@PEAUQuickHullVertex@local@@@shdfnd@physx@@@shdfnd@physx@@IEAAPEAPEAUQuickHullVertex@local@@I@Z 000000018005537c     QuickHullConvexHullLib.obj
 0002:0000f38c       $chain$0$?recreate@?$Array@PEAUQuickHullVertex@local@@V?$ReflectionAllocator@PEAUQuickHullVertex@local@@@shdfnd@physx@@@shdfnd@physx@@IEAAXI@Z 000000018005538c     QuickHullConvexHullLib.obj
 0002:0000f3a0       $chain$1$?recreate@?$Array@PEAUQuickHullVertex@local@@V?$ReflectionAllocator@PEAUQuickHullVertex@local@@@shdfnd@physx@@@shdfnd@physx@@IEAAXI@Z 00000001800553a0     QuickHullConvexHullLib.obj
 0002:0000f3b0       $chain$1$?allocate@?$Array@UExpandPoint@local@@V?$ReflectionAllocator@UExpandPoint@local@@@shdfnd@physx@@@shdfnd@physx@@IEAAPEAUExpandPoint@local@@I@Z 00000001800553b0     QuickHullConvexHullLib.obj
 0002:0000f3c8       $chain$3$?allocate@?$Array@UExpandPoint@local@@V?$ReflectionAllocator@UExpandPoint@local@@@shdfnd@physx@@@shdfnd@physx@@IEAAPEAUExpandPoint@local@@I@Z 00000001800553c8     QuickHullConvexHullLib.obj
 0002:0000f3dc       $chain$4$?allocate@?$Array@UExpandPoint@local@@V?$ReflectionAllocator@UExpandPoint@local@@@shdfnd@physx@@@shdfnd@physx@@IEAAPEAUExpandPoint@local@@I@Z 00000001800553dc     QuickHullConvexHullLib.obj
 0002:0000f3ec       $chain$0$?recreate@?$Array@UExpandPoint@local@@V?$ReflectionAllocator@UExpandPoint@local@@@shdfnd@physx@@@shdfnd@physx@@IEAAXI@Z 00000001800553ec     QuickHullConvexHullLib.obj
 0002:0000f400       $chain$1$?recreate@?$Array@UExpandPoint@local@@V?$ReflectionAllocator@UExpandPoint@local@@@shdfnd@physx@@@shdfnd@physx@@IEAAXI@Z 0000000180055400     QuickHullConvexHullLib.obj
 0002:0000f410       $unwind$?computeVolumeIntegralsEberly@physx@@YA_NAEBVPxConvexMeshDesc@1@MAEAUPxIntegrals@1@AEBVPxVec3@1@@Z 0000000180055410     VolumeIntegration.obj
 0002:0000f410       $unwind$?computeVolumeIntegralsEberlySIMD@physx@@YA_NAEBVPxConvexMeshDesc@1@MAEAUPxIntegrals@1@AEBVPxVec3@1@@Z 0000000180055410     VolumeIntegration.obj
 0002:0000f410       $unwind$_raise_exc         0000000180055410     libucrt:fpexcept.obj
 0002:0000f410       $unwind$_raise_excf        0000000180055410     libucrt:fpexcept.obj
 0002:0000f410       $unwind$__unDName          0000000180055410     libvcruntime:undname.obj
 0002:0000f418       $unwind$?computeVolumeIntegralsSIMD@VolumeIntegratorEberly@?A0xfebab4b6@physx@@QEAA_NAEAUPxIntegrals@3@AEBVPxVec3@3@@Z 0000000180055418     VolumeIntegration.obj
 0002:0000f450       $chain$1$?computeVolumeIntegralsSIMD@VolumeIntegratorEberly@?A0xfebab4b6@physx@@QEAA_NAEAUPxIntegrals@3@AEBVPxVec3@3@@Z 0000000180055450     VolumeIntegration.obj
 0002:0000f468       $chain$2$?computeVolumeIntegralsSIMD@VolumeIntegratorEberly@?A0xfebab4b6@physx@@QEAA_NAEAUPxIntegrals@3@AEBVPxVec3@3@@Z 0000000180055468     VolumeIntegration.obj
 0002:0000f478       $unwind$?computeVolumeIntegrals@VolumeIntegratorEberly@?A0xfebab4b6@physx@@QEAA_NAEAUPxIntegrals@3@AEBVPxVec3@3@@Z 0000000180055478     VolumeIntegration.obj
 0002:0000f4b0       $chain$0$?computeVolumeIntegrals@VolumeIntegratorEberly@?A0xfebab4b6@physx@@QEAA_NAEAUPxIntegrals@3@AEBVPxVec3@3@@Z 00000001800554b0     VolumeIntegration.obj
 0002:0000f4c4       $chain$3$?computeVolumeIntegrals@VolumeIntegratorEberly@?A0xfebab4b6@physx@@QEAA_NAEAUPxIntegrals@3@AEBVPxVec3@3@@Z 00000001800554c4     VolumeIntegration.obj
 0002:0000f4e0       $chain$4$?computeVolumeIntegrals@VolumeIntegratorEberly@?A0xfebab4b6@physx@@QEAA_NAEAUPxIntegrals@3@AEBVPxVec3@3@@Z 00000001800554e0     VolumeIntegration.obj
 0002:0000f4f0       $chain$5$?computeVolumeIntegrals@VolumeIntegratorEberly@?A0xfebab4b6@physx@@QEAA_NAEAUPxIntegrals@3@AEBVPxVec3@3@@Z 00000001800554f0     VolumeIntegration.obj
 0002:0000f500       $chain$1$?cookingDelayHook@@YAP6A_JXZIPEAUDelayLoadInfo@@@Z 0000000180055500     WindowsCookingDelayLoadHook.obj
 0002:0000f518       $chain$3$?cookingDelayHook@@YAP6A_JXZIPEAUDelayLoadInfo@@@Z 0000000180055518     WindowsCookingDelayLoadHook.obj
 0002:0000f518       $chain$5$?cookingDelayHook@@YAP6A_JXZIPEAUDelayLoadInfo@@@Z 0000000180055518     WindowsCookingDelayLoadHook.obj
 0002:0000f530       $chain$6$?cookingDelayHook@@YAP6A_JXZIPEAUDelayLoadInfo@@@Z 0000000180055530     WindowsCookingDelayLoadHook.obj
 0002:0000f540       xdata                      0000000180055540     PhysXCommon_64:PhysXCommon_64.dll
 0002:0000f548       xdata                      0000000180055548     PhysXFoundation_64:PhysXFoundation_64.dll
 0002:0000f550       $unwind$?DloadObtainSection@@YAPEAXPEAK0@Z 0000000180055550     Delayimp:delayhlp.obj
 0002:0000f550       $unwind$strstr             0000000180055550     libvcruntime:strstr.obj
 0002:0000f560       $unwind$?DloadProtectSection@@YAXKPEAK@Z 0000000180055560     Delayimp:delayhlp.obj
 0002:0000f570       $unwind$__delayLoadHelper2 0000000180055570     Delayimp:delayhlp.obj
 0002:0000f590       $xdatasym                  0000000180055590     LIBCMT:chkstk.obj
 0002:0000f598       $unwind$?dllmain_crt_process_attach@@YAHQEAUHINSTANCE__@@QEAX@Z 0000000180055598     LIBCMT:dll_dllmain.obj
 0002:0000f5d4       $unwind$_query_new_handler$fin$0 00000001800555d4     libucrt:new_handler.obj
 0002:0000f5d4       $unwind$?fin$0@?0???$?RV<lambda_0ae27a3a962d80f24befdcbee591983d>@@AEAV<lambda_8d0ee55de4b1038c4002e0adecdf1839>@@V<lambda_dc504788e8f1664fe9b84e20bfb512f2>@@@?$__crt_seh_guarded_call@X@@QEAAX$$QEAV<lambda_0ae27a3a962d80f24befdcbee591983d>@@AEAV<lambda_8d0ee55de4b1038c4002e0adecdf1839>@@$$QEAV<lambda_dc504788e8f1664fe9b84e20bfb512f2>@@@Z@4HA 00000001800555d4     libucrt:per_thread_data.obj
 0002:0000f5d4       $unwind$?fin$0@?0???$?RV<lambda_2d41944a1d46af3157314b8a01080d33>@@AEAV<lambda_8f455de75cd7d7f24b4096f044d8b9e6>@@V<lambda_aa500f224e6afead328df44964fe2772>@@@?$__crt_seh_guarded_call@X@@QEAAX$$QEAV<lambda_2d41944a1d46af3157314b8a01080d33>@@AEAV<lambda_8f455de75cd7d7f24b4096f044d8b9e6>@@$$QEAV<lambda_aa500f224e6afead328df44964fe2772>@@@Z@4HA 00000001800555d4     libucrt:per_thread_data.obj
 0002:0000f5d4       $unwind$?fin$0@?0???$?RV<lambda_aa87e3671a710a21b5dc78c0bdf72e11>@@AEAV<lambda_92619d2358a28f41a33ba319515a20b9>@@V<lambda_6992ecaafeb10aed2b74cb1fae11a551>@@@?$__crt_seh_guarded_call@X@@QEAAX$$QEAV<lambda_aa87e3671a710a21b5dc78c0bdf72e11>@@AEAV<lambda_92619d2358a28f41a33ba319515a20b9>@@$$QEAV<lambda_6992ecaafeb10aed2b74cb1fae11a551>@@@Z@4HA 00000001800555d4     libucrt:per_thread_data.obj
 0002:0000f5d4       $unwind$?fin$0@?0???$?RV<lambda_f2e299630e499de9f9a165e60fcd3db5>@@AEAV<lambda_2ae9d31cdba2644fcbeaf08da7c24588>@@V<lambda_40d01ff24d0e7b3814fdbdcee8eab3c7>@@@?$__crt_seh_guarded_call@X@@QEAAX$$QEAV<lambda_f2e299630e499de9f9a165e60fcd3db5>@@AEAV<lambda_2ae9d31cdba2644fcbeaf08da7c24588>@@$$QEAV<lambda_40d01ff24d0e7b3814fdbdcee8eab3c7>@@@Z@4HA 00000001800555d4     libucrt:per_thread_data.obj
 0002:0000f5d4       $unwind$__acrt_update_thread_locale_data$fin$0 00000001800555d4     libucrt:locale_refcounting.obj
 0002:0000f5d4       $unwind$?fin$0@?0???$?RV<lambda_410d79af7f07d98d83a3f525b3859a53>@@AEAV<lambda_3e16ef9562a7dcce91392c22ab16ea36>@@V<lambda_38119f0e861e05405d8a144b9b982f0a>@@@?$__crt_seh_guarded_call@X@@QEAAX$$QEAV<lambda_410d79af7f07d98d83a3f525b3859a53>@@AEAV<lambda_3e16ef9562a7dcce91392c22ab16ea36>@@$$QEAV<lambda_38119f0e861e05405d8a144b9b982f0a>@@@Z@4HA 00000001800555d4     libucrt:wsetlocale.obj
 0002:0000f5d4       $unwind$?fin$0@?0???$?RV<lambda_751a882b2c74d4b022dec766aa51a29a>@@AEAV<lambda_628dfdc04ba53c8bfc02c9951375f3f5>@@V<lambda_f6c7be5f7998530c34de24c7437d6b54>@@@?$__crt_seh_guarded_call@H@@QEAAH$$QEAV<lambda_751a882b2c74d4b022dec766aa51a29a>@@AEAV<lambda_628dfdc04ba53c8bfc02c9951375f3f5>@@$$QEAV<lambda_f6c7be5f7998530c34de24c7437d6b54>@@@Z@4HA 00000001800555d4     libucrt:close.obj
 0002:0000f5d4       $unwind$?fin$0@?0???$?RV<lambda_a37b2b86f63e897a80ea819b0eb08c01>@@AEAV<lambda_38ce7e780aa69e748d6df282ebc68efe>@@V<lambda_99fb1378e971ab6e7edea83e3a7a83a2>@@@?$__crt_seh_guarded_call@H@@QEAAH$$QEAV<lambda_a37b2b86f63e897a80ea819b0eb08c01>@@AEAV<lambda_38ce7e780aa69e748d6df282ebc68efe>@@$$QEAV<lambda_99fb1378e971ab6e7edea83e3a7a83a2>@@@Z@4HA 00000001800555d4     libucrt:commit.obj
 0002:0000f5d4       $unwind$__acrt_initialize_lowio$fin$0 00000001800555d4     libucrt:ioinit.obj
 0002:0000f5d4       $unwind$__acrt_lowio_ensure_fh_exists$fin$0 00000001800555d4     libucrt:osfinfo.obj
 0002:0000f5d4       $unwind$_write$fin$0       00000001800555d4     libucrt:write.obj
 0002:0000f5d4       $unwind$?fin$0@?0???$?RV<lambda_efdfa57d1f175319df784efa44bb7b81>@@AEAV<lambda_5f0a4c1567f8adc6734073e5d1e1b35c>@@V<lambda_2e8a7d3640ea6ccb4c2413664c2db6fd>@@@?$__crt_seh_guarded_call@X@@QEAAX$$QEAV<lambda_efdfa57d1f175319df784efa44bb7b81>@@AEAV<lambda_5f0a4c1567f8adc6734073e5d1e1b35c>@@$$QEAV<lambda_2e8a7d3640ea6ccb4c2413664c2db6fd>@@@Z@4HA 00000001800555d4     libucrt:mbctype.obj
 0002:0000f5d4       $unwind$?fin$0@?0??update_thread_multibyte_data_internal@@YAPEAU__crt_multibyte_data@@QEAU__acrt_ptd@@QEAPEAU1@@Z@4HA 00000001800555d4     libucrt:mbctype.obj
 0002:0000f5d4       $unwind$?fin$0@?0???$?RV<lambda_450d765d439847d4c735a33c368b5fc0>@@AEAV<lambda_44731a7d0e6d81c3e6aa82d741081786>@@V<lambda_601a2a7da3b7a96e9554ac7215c4b07c>@@@?$__crt_seh_guarded_call@P6AXH@Z@@QEAAP6AXH@Z$$QEAV<lambda_450d765d439847d4c735a33c368b5fc0>@@AEAV<lambda_44731a7d0e6d81c3e6aa82d741081786>@@$$QEAV<lambda_601a2a7da3b7a96e9554ac7215c4b07c>@@@Z@4HA 00000001800555d4     libucrt:signal.obj
 0002:0000f5d4       $unwind$raise$fin$0        00000001800555d4     libucrt:signal.obj
 0002:0000f5d4       $unwind$?filt$0@?0???R<lambda_6e4b09c48022b2350581041d5f6b0c4c>@@QEBA@XZ@4HA 00000001800555d4     libucrt:exit.obj
 0002:0000f5d4       $unwind$?fin$0@?0???$?RV<lambda_d80eeec6fff315bfe5c115232f3240e3>@@AEAV<lambda_6e4b09c48022b2350581041d5f6b0c4c>@@V<lambda_2358e3775559c9db80273638284d5e45>@@@?$__crt_seh_guarded_call@X@@QEAAX$$QEAV<lambda_d80eeec6fff315bfe5c115232f3240e3>@@AEAV<lambda_6e4b09c48022b2350581041d5f6b0c4c>@@$$QEAV<lambda_2358e3775559c9db80273638284d5e45>@@@Z@4HA 00000001800555d4     libucrt:exit.obj
 0002:0000f5d4       $unwind$?fin$0@?0???$?RV<lambda_7777bce6b2f8c936911f934f8298dc43>@@AEAV<lambda_f03950bc5685219e0bcd2087efbe011e>@@V<lambda_3883c3dff614d5e0c5f61bb1ac94921c>@@@?$__crt_seh_guarded_call@H@@QEAAH$$QEAV<lambda_7777bce6b2f8c936911f934f8298dc43>@@AEAV<lambda_f03950bc5685219e0bcd2087efbe011e>@@$$QEAV<lambda_3883c3dff614d5e0c5f61bb1ac94921c>@@@Z@4HA 00000001800555d4     libucrt:onexit.obj
 0002:0000f5d4       $unwind$_fcloseall$fin$0   00000001800555d4     libucrt:closeall.obj
 0002:0000f5d4       $unwind$fclose$fin$0       00000001800555d4     libucrt:fclose.obj
 0002:0000f5d4       $unwind$?fin$0@?0???$?RV<lambda_842d9ff0dc9ef11c61343bbaebe7f885>@@AEAV<lambda_c5860995281e5c4ce005b3de8f5874ee>@@V<lambda_d90129c13df834fdcbf8d2b88dafcf2d>@@@?$__crt_seh_guarded_call@X@@QEAAX$$QEAV<lambda_842d9ff0dc9ef11c61343bbaebe7f885>@@AEAV<lambda_c5860995281e5c4ce005b3de8f5874ee>@@$$QEAV<lambda_d90129c13df834fdcbf8d2b88dafcf2d>@@@Z@4HA 00000001800555d4     libucrt:fflush.obj
 0002:0000f5d4       $unwind$?fin$0@?0???$?RV<lambda_886d6c58226a84441f68b9f2b8217b83>@@AEAV<lambda_ab61a845afdef5b7c387490eaf3616ee>@@V<lambda_f7f22ab5edc0698d5f6905b0d3f44752>@@@?$__crt_seh_guarded_call@X@@QEAAX$$QEAV<lambda_886d6c58226a84441f68b9f2b8217b83>@@AEAV<lambda_ab61a845afdef5b7c387490eaf3616ee>@@$$QEAV<lambda_f7f22ab5edc0698d5f6905b0d3f44752>@@@Z@4HA 00000001800555d4     libucrt:fflush.obj
 0002:0000f5d4       $unwind$_ctrlfp$filt$0     00000001800555d4     libucrt:fpctrl.obj
 0002:0000f5d4       $unwind$common_control87$filt$0 00000001800555d4     libucrt:ieee.obj
 0002:0000f5d4       $unwind$?fin$0@?0??dllmain_crt_process_attach@@YAHQEAUHINSTANCE__@@QEAX@Z@4HA 00000001800555d4     LIBCMT:dll_dllmain.obj
 0002:0000f5d4       $unwind$?fin$0@?0??dllmain_crt_process_detach@@YAH_N@Z@4HA 00000001800555d4     LIBCMT:dll_dllmain.obj
 0002:0000f5d4       $unwind$?fin$1@?0??dllmain_crt_process_detach@@YAH_N@Z@4HA 00000001800555d4     LIBCMT:dll_dllmain.obj
 0002:0000f5d4       $unwind$_IsNonwritableInCurrentImage$filt$0 00000001800555d4     LIBCMT:pesect.obj
 0002:0000f5d4       $unwind$?filt$0@?0??CxxCallCatchBlock@__FrameHandler4@@SAPEAXPEAU_EXCEPTION_RECORD@@@Z@4HA 00000001800555d4     libvcruntime:frame.obj
 0002:0000f5d4       $unwind$__unDNameEx$fin$0  00000001800555d4     libvcruntime:undname.obj
 0002:0000f5dc       $unwind$?dllmain_crt_process_detach@@YAH_N@Z 00000001800555dc     LIBCMT:dll_dllmain.obj
 0002:0000f630       $unwind$?dllmain_dispatch@@YAHQEAUHINSTANCE__@@KQEAX@Z 0000000180055630     LIBCMT:dll_dllmain.obj
 0002:0000f658       $unwind$?filt$0@?0??dllmain_dispatch@@YAHQEAUHINSTANCE__@@KQEAX@Z@4HA 0000000180055658     LIBCMT:dll_dllmain.obj
 0002:0000f658       $unwind$?filt$0@?0??FrameUnwindToState@__FrameHandler4@@SAXPEA_KPEAU_xDISPATCHER_CONTEXT@@PEAUFuncInfo4@FH4@@H@Z@4HA 0000000180055658     libvcruntime:frame.obj
 0002:0000f658       $unwind$?fin$1@?0??FrameUnwindToState@__FrameHandler4@@SAXPEA_KPEAU_xDISPATCHER_CONTEXT@@PEAUFuncInfo4@FH4@@H@Z@4HA 0000000180055658     libvcruntime:frame.obj
 0002:0000f660       $unwind$__isa_available_init 0000000180055660     LIBCMT:cpu_disp.obj
 0002:0000f670       $xdatasym                  0000000180055670     LIBCMT:svml_ssinf4_sse2.obj
 0002:0000f6a8       $xdatasym                  00000001800556a8     LIBCMT:svml_ssinf4_sse4.obj
 0002:0000f6dc       $unwind$__security_init_cookie 00000001800556dc     LIBCMT:gs_support.obj
 0002:0000f6e8       $unwind$__scrt_is_nonwritable_in_current_image 00000001800556e8     LIBCMT:utility.obj
 0002:0000f708       $unwind$__scrt_is_nonwritable_in_current_image$filt$0 0000000180055708     LIBCMT:utility.obj
 0002:0000f710       $unwind$__scrt_fastfail    0000000180055710     LIBCMT:utility_desktop.obj
 0002:0000f720       $xdatasym                  0000000180055720     LIBCMT:guard_dispatch.obj
 0002:0000f728       $xdatasym                  0000000180055728     LIBCMT:guard_xfg_dispatch.obj
 0002:0000f730       $xdatasym                  0000000180055730     LIBCMT:svml_s_sin_cout.obj
 0002:0000f738       $unwind$__C_specific_handler 0000000180055738     libvcruntime:riscchandler.obj
 0002:0000f738       $unwind$__std_type_info_name 0000000180055738     libvcruntime:std_type_info.obj
 0002:0000f758       $xdatasym                  0000000180055758     libvcruntime:memset.obj
 0002:0000f768       $xdatasym                  0000000180055768     libvcruntime:memcpy.obj
 0002:0000f778       $unwind$__DestructExceptionObject 0000000180055778     libvcruntime:ehhelpers.obj
 0002:0000f798       $unwind$__DestructExceptionObject$filt$0 0000000180055798     libvcruntime:ehhelpers.obj
 0002:0000f798       $unwind$?fin$1@?0??CxxCallCatchBlock@__FrameHandler4@@SAPEAXPEAU_EXCEPTION_RECORD@@@Z@4HA 0000000180055798     libvcruntime:frame.obj
 0002:0000f7a4       $unwind$__unDNameEx        00000001800557a4     libvcruntime:undname.obj
 0002:0000f7d4       $unwind$snprintf           00000001800557d4     libvcruntime:undname.obj
 0002:0000f7d4       $unwind$sprintf_s          00000001800557d4     libvcruntime:undname.obj
 0002:0000f7e4       $unwind$??0DName@@QEAA@_J@Z 00000001800557e4     libvcruntime:undname.obj
 0002:0000f7e4       $unwind$??0DName@@QEAA@_K@Z 00000001800557e4     libvcruntime:undname.obj
 0002:0000f7f4       $unwind$?doPchar@DName@@AEAAXD@Z 00000001800557f4     libvcruntime:undname.obj
 0002:0000f800       $unwind$?getDecoratedName@UnDecorator@@CA?AVDName@@XZ 0000000180055800     libvcruntime:undname.obj
 0002:0000f820       $cppxdata$?getDecoratedName@UnDecorator@@CA?AVDName@@XZ 0000000180055820     libvcruntime:undname.obj
 0002:0000f829       $stateUnwindMap$?getDecoratedName@UnDecorator@@CA?AVDName@@XZ 0000000180055829     libvcruntime:undname.obj
 0002:0000f830       $ip2state$?getDecoratedName@UnDecorator@@CA?AVDName@@XZ 0000000180055830     libvcruntime:undname.obj
 0002:0000f838       $unwind$?getZName@UnDecorator@@CA?AVDName@@_N0@Z 0000000180055838     libvcruntime:undname.obj
 0002:0000f858       $unwind$?getOperatorName@UnDecorator@@CA?AVDName@@_NPEA_N@Z 0000000180055858     libvcruntime:undname.obj
 0002:0000f874       $unwind$?getScope@UnDecorator@@CA?AVDName@@XZ 0000000180055874     libvcruntime:undname.obj
 0002:0000f890       $unwind$?getScopedName@UnDecorator@@CA?AVDName@@XZ 0000000180055890     libvcruntime:undname.obj
 0002:0000f8a0       $unwind$_mbsdec_l          00000001800558a0     libucrt:mbsdec.obj
 0002:0000f8a0       $unwind$?getSignedDimension@UnDecorator@@CA?AVDName@@XZ 00000001800558a0     libvcruntime:undname.obj
 0002:0000f8ac       $unwind$?getDimension@UnDecorator@@CA?AVDName@@_N@Z 00000001800558ac     libvcruntime:undname.obj
 0002:0000f8c4       $unwind$?getFloatingPoint@UnDecorator@@CA?AVDName@@H@Z 00000001800558c4     libvcruntime:undname.obj
 0002:0000f8dc       $unwind$?getValueObject@UnDecorator@@CA?AVDName@@XZ 00000001800558dc     libvcruntime:undname.obj
 0002:0000f8e8       $unwind$?getArgumentTypes@UnDecorator@@CA?AVDName@@XZ 00000001800558e8     libvcruntime:undname.obj
 0002:0000f8e8       $unwind$?getPointerToMember@UnDecorator@@CA?AVDName@@XZ 00000001800558e8     libvcruntime:undname.obj
 0002:0000f8f4       $unwind$?getTemplateName@UnDecorator@@CA?AVDName@@_N@Z 00000001800558f4     libvcruntime:undname.obj
 0002:0000f910       $unwind$?getTemplateArgumentList@UnDecorator@@CA?AVDName@@XZ 0000000180055910     libvcruntime:undname.obj
 0002:0000f930       $unwind$?getTemplateNonTypeArgument@UnDecorator@@CA?AVDName@@XZ 0000000180055930     libvcruntime:undname.obj
 0002:0000f950       $unwind$?getTemplateTypeArgument@UnDecorator@@CA?AVDName@@XZ 0000000180055950     libvcruntime:undname.obj
 0002:0000f968       $unwind$?composeDeclaration@UnDecorator@@CA?AVDName@@AEBV2@@Z 0000000180055968     libvcruntime:undname.obj
 0002:0000f984       $unwind$?getBasedType@UnDecorator@@CA?AVDName@@XZ 0000000180055984     libvcruntime:undname.obj
 0002:0000f984       $unwind$?getEnumType@UnDecorator@@CA?AVDName@@XZ 0000000180055984     libvcruntime:undname.obj
 0002:0000f990       $unwind$?getCallingConvention@UnDecorator@@CA?AVDName@@XZ 0000000180055990     libvcruntime:undname.obj
 0002:0000f9a0       $unwind$?getDataType@UnDecorator@@CA?AVDName@@PEAV2@@Z 00000001800559a0     libvcruntime:undname.obj
 0002:0000f9ac       $unwind$?getExtendedDataIndirectType@UnDecorator@@CA?AVDName@@AEAW4IndirectionKind@@AEA_NH@Z 00000001800559ac     libvcruntime:undname.obj
 0002:0000f9ac       $unwind$?getPrimaryDataType@UnDecorator@@CA?AVDName@@AEBV2@@Z 00000001800559ac     libvcruntime:undname.obj
 0002:0000f9ac       $unwind$?getPtrRefDataType@UnDecorator@@CA?AVDName@@AEBV2@H@Z 00000001800559ac     libvcruntime:undname.obj
 0002:0000f9bc       $unwind$?getDataIndirectType@UnDecorator@@CA?AVDName@@AEBV2@W4IndirectionKind@@0H@Z 00000001800559bc     libvcruntime:undname.obj
 0002:0000f9dc       $unwind$?getBasicDataType@UnDecorator@@CA?AVDName@@AEBV2@@Z 00000001800559dc     libvcruntime:undname.obj
 0002:0000f9f4       $unwind$?getECSUDataType@UnDecorator@@CA?AVDName@@XZ 00000001800559f4     libvcruntime:undname.obj
 0002:0000fa04       $unwind$?getPtrRefType@UnDecorator@@CA?AVDName@@AEBV2@0W4IndirectionKind@@@Z 0000000180055a04     libvcruntime:undname.obj
 0002:0000fa1c       $unwind$?getArrayType@UnDecorator@@CA?AVDName@@AEBV2@@Z 0000000180055a1c     libvcruntime:undname.obj
 0002:0000fa34       $unwind$?getFunctionIndirectType@UnDecorator@@CA?AVDName@@AEBV2@@Z 0000000180055a34     libvcruntime:undname.obj
 0002:0000fa54       $unwind$?getRestrictionSpec@UnDecorator@@CA?AVDName@@XZ 0000000180055a54     libvcruntime:undname.obj
 0002:0000fa6c       $unwind$?getLexicalFrame@UnDecorator@@CA?AVDName@@XZ 0000000180055a6c     libvcruntime:undname.obj
 0002:0000fa6c       $unwind$?parseDecoratedName@UnDecorator@@CA?AVDName@@XZ 0000000180055a6c     libvcruntime:undname.obj
 0002:0000fa78       $unwind$?getExternalDataType@UnDecorator@@CA?AVDName@@AEBV2@@Z 0000000180055a78     libvcruntime:undname.obj
 0002:0000fa88       $unwind$?getVfTableType@UnDecorator@@CA?AVDName@@AEBV2@@Z 0000000180055a88     libvcruntime:undname.obj
 0002:0000fa9c       $unwind$?UScore@UnDecorator@@SA?AUStringLiteral@@W4Tokens@@@Z 0000000180055a9c     libvcruntime:undname.obj
 0002:0000faa8       $xdatasym                  0000000180055aa8     libvcruntime:notify.obj
 0002:0000fab4       $unwind$?StateFromIp@__FrameHandler4@@SAHPEAUFuncInfo4@FH4@@PEAU_xDISPATCHER_CONTEXT@@_K@Z 0000000180055ab4     libvcruntime:ehstate.obj
 0002:0000fab4       $unwind$?DecompFuncInfo@FH4@@YA_JPEAEAEAUFuncInfo4@1@_KH_N@Z 0000000180055ab4     libvcruntime:risctrnsctrl.obj
 0002:0000facc       $unwind$?UnwindNestedFrames@__FrameHandler4@@SAXPEA_KPEAUEHExceptionRecord@@PEAU_CONTEXT@@0PEAXPEAUFuncInfo4@FH4@@HHPEAUHandlerType4@5@PEAU_xDISPATCHER_CONTEXT@@E@Z 0000000180055acc     libvcruntime:risctrnsctrl.obj
 0002:0000fae0       $unwind$?GetRangeOfTrysToCheck@__FrameHandler4@@SA?AU?$pair@Viterator@TryBlockMap4@FH4@@V123@@std@@AEAVTryBlockMap4@FH4@@HPEAU_xDISPATCHER_CONTEXT@@PEAUFuncInfo4@5@H@Z 0000000180055ae0     libvcruntime:risctrnsctrl.obj
 0002:0000fafc       $unwind$__CxxFrameHandler4 0000000180055afc     libvcruntime:risctrnsctrl.obj
 0002:0000fb10       $unwind$??$_CallSETranslator@V__FrameHandler4@@@@YAHPEAUEHExceptionRecord@@PEA_KPEAU_CONTEXT@@PEAU_xDISPATCHER_CONTEXT@@PEAUFuncInfo4@FH4@@K1H@Z 0000000180055b10     libvcruntime:risctrnsctrl.obj
 0002:0000fb30       $unwind$?filt$0@?0???$_CallSETranslator@V__FrameHandler4@@@@YAHPEAUEHExceptionRecord@@PEA_KPEAU_CONTEXT@@PEAU_xDISPATCHER_CONTEXT@@PEAUFuncInfo4@FH4@@K1H@Z@4HA 0000000180055b30     libvcruntime:risctrnsctrl.obj
 0002:0000fb3c       $unwind$?try_get_function@@YAPEAXW4function_id@?A0x391cf84c@@QEBDQEBW4module_id@2@2@Z 0000000180055b3c     libucrt:winapi_thunks.obj
 0002:0000fb3c       $unwind$?try_get_function@@YAPEAXW4function_id@?A0x14174aea@@QEBDQEBW4module_id@2@2@Z 0000000180055b3c     libvcruntime:winapi_downlevel.obj
 0002:0000fb58       $unwind$?getStartStop@UWMap4@FH4@@QEAAXHHAEAViterator@12@0@Z 0000000180055b58     libvcruntime:frame.obj
 0002:0000fb70       $unwind$?FrameUnwindToState@__FrameHandler4@@SAXPEA_KPEAU_xDISPATCHER_CONTEXT@@PEAUFuncInfo4@FH4@@H@Z 0000000180055b70     libvcruntime:frame.obj
 0002:0000fbb8       $unwind$?CxxCallCatchBlock@__FrameHandler4@@SAPEAXPEAU_EXCEPTION_RECORD@@@Z 0000000180055bb8     libvcruntime:frame.obj
 0002:0000fc14       $unwind$?IsInExceptionSpec@@YAEPEAUEHExceptionRecord@@PEBU_s_ESTypeList@@@Z 0000000180055c14     libvcruntime:frame.obj
 0002:0000fc30       $unwind$??$__InternalCxxFrameHandler@V__FrameHandler4@@@@YA?AW4_EXCEPTION_DISPOSITION@@PEAUEHExceptionRecord@@PEA_KPEAU_CONTEXT@@PEAU_xDISPATCHER_CONTEXT@@PEAUFuncInfo4@FH4@@H1E@Z 0000000180055c30     libvcruntime:frame.obj
 0002:0000fc48       $unwind$?initialize_stdio_handles_nolock@@YAXXZ 0000000180055c48     libucrt:ioinit.obj
 0002:0000fc48       $unwind$__acrt_initialize_stdio 0000000180055c48     libucrt:_file.obj
 0002:0000fc48       $unwind$?type_case_integer@?$output_processor@DV?$string_output_adapter@D@__crt_stdio_output@@V?$format_validation_base@DV?$string_output_adapter@D@__crt_stdio_output@@@2@@__crt_stdio_output@@AEAA_NI_N@Z 0000000180055c48     libucrt:output.obj
 0002:0000fc48       $unwind$?type_case_integer@?$output_processor@DV?$string_output_adapter@D@__crt_stdio_output@@V?$standard_base@DV?$string_output_adapter@D@__crt_stdio_output@@@2@@__crt_stdio_output@@AEAA_NI_N@Z 0000000180055c48     libucrt:output.obj
 0002:0000fc48       $unwind$__GSHandlerCheck_SEH 0000000180055c48     LIBCMT:gshandlerseh.obj
 0002:0000fc48       $unwind$??$TypeMatchHelper@V__FrameHandler3@@@@YAHPEBU_s_HandlerType@@PEBU_s_CatchableType@@PEBU_s_ThrowInfo@@@Z 0000000180055c48     libvcruntime:frame.obj
 0002:0000fc48       $unwind$??$TypeMatchHelper@V__FrameHandler4@@@@YAHPEAUHandlerType4@FH4@@PEBU_s_CatchableType@@PEBU_s_ThrowInfo@@@Z 0000000180055c48     libvcruntime:frame.obj
 0002:0000fc60       $unwind$??$BuildCatchObjectHelperInternal@V__FrameHandler4@@@@YAHPEAUEHExceptionRecord@@PEAXPEAUHandlerType4@FH4@@PEBU_s_CatchableType@@@Z 0000000180055c60     libvcruntime:frame.obj
 0002:0000fca0       $unwind$??$BuildCatchObjectInternal@V__FrameHandler4@@@@YAXPEAUEHExceptionRecord@@PEAXPEAUHandlerType4@FH4@@PEBU_s_CatchableType@@@Z 0000000180055ca0     libvcruntime:frame.obj
 0002:0000fccc       $unwind$??$FindHandler@V__FrameHandler4@@@@YAXPEAUEHExceptionRecord@@PEA_KPEAU_CONTEXT@@PEAU_xDISPATCHER_CONTEXT@@PEAUFuncInfo4@FH4@@EH1@Z 0000000180055ccc     libvcruntime:frame.obj
 0002:0000fcec       $unwind$??$CatchIt@V__FrameHandler4@@@@YAXPEAUEHExceptionRecord@@PEA_KPEAU_CONTEXT@@PEAU_xDISPATCHER_CONTEXT@@PEAUFuncInfo4@FH4@@PEAUHandlerType4@4@PEBU_s_CatchableType@@PEAUTryBlockMapEntry4@4@H1EE@Z 0000000180055cec     libvcruntime:frame.obj
 0002:0000fd04       $unwind$??$FindHandlerForForeignException@V__FrameHandler4@@@@YAXPEAUEHExceptionRecord@@PEA_KPEAU_CONTEXT@@PEAU_xDISPATCHER_CONTEXT@@PEAUFuncInfo4@FH4@@HH1@Z 0000000180055d04     libvcruntime:frame.obj
 0002:0000fd28       $xdatasym                  0000000180055d28     libvcruntime:handlers.obj
 0002:0000fd48       $unwind$_CxxThrowException 0000000180055d48     libvcruntime:throw.obj
 0002:0000fd58       $xdatasym                  0000000180055d58     libucrt:strcmp.obj
 0002:0000fd5c       $unwind$atan2f             0000000180055d5c     libucrt:atan2f.obj
 0002:0000fd80       $xdatasym                  0000000180055d80     libucrt:cosf.obj
 0002:0000fd88       $xdatasym                  0000000180055d88     libucrt:sinf.obj
 0002:0000fd90       $unwind$?common_exit@@YAXHW4_crt_exit_cleanup_mode@@W4_crt_exit_return_mode@@@Z 0000000180055d90     libucrt:exit.obj
 0002:0000fd9c       $unwind$??R<lambda_6e4b09c48022b2350581041d5f6b0c4c>@@QEBA@XZ 0000000180055d9c     libucrt:exit.obj
 0002:0000fdbc       $unwind$??$?RV<lambda_d80eeec6fff315bfe5c115232f3240e3>@@AEAV<lambda_6e4b09c48022b2350581041d5f6b0c4c>@@V<lambda_2358e3775559c9db80273638284d5e45>@@@?$__crt_seh_guarded_call@X@@QEAAX$$QEAV<lambda_d80eeec6fff315bfe5c115232f3240e3>@@AEAV<lambda_6e4b09c48022b2350581041d5f6b0c4c>@@$$QEAV<lambda_2358e3775559c9db80273638284d5e45>@@@Z 0000000180055dbc     libucrt:exit.obj
 0002:0000fde0       $unwind$_configure_narrow_argv 0000000180055de0     libucrt:argv_parsing.obj
 0002:0000fdf4       $unwind$?should_round_up@@YA_NQEBN_KFW4__acrt_rounding_mode@@@Z 0000000180055df4     libucrt:cvt.obj
 0002:0000fdf4       $unwind$??$parse_command_line@D@@YAXPEADPEAPEAD0PEA_K2@Z 0000000180055df4     libucrt:argv_parsing.obj
 0002:0000fe10       $unwind$??$free_environment@D@@YAXQEAPEAD@Z 0000000180055e10     libucrt:environment_initialization.obj
 0002:0000fe10       $unwind$??$free_environment@_W@@YAXQEAPEA_W@Z 0000000180055e10     libucrt:environment_initialization.obj
 0002:0000fe1c       $unwind$??$create_environment@D@@YAQEAPEADQEAD@Z 0000000180055e1c     libucrt:environment_initialization.obj
 0002:0000fe34       $unwind$_execute_onexit_table 0000000180055e34     libucrt:onexit.obj
 0002:0000fe3c       $unwind$__acrt_fp_strflt_to_string 0000000180055e3c     libucrt:_fptostr.obj
 0002:0000fe3c       $unwind$__acrt_DownlevelLocaleNameToLCID 0000000180055e3c     libucrt:lcidtoname_downlevel.obj
 0002:0000fe3c       $unwind$??R<lambda_f03950bc5685219e0bcd2087efbe011e>@@QEBAHXZ 0000000180055e3c     libucrt:onexit.obj
 0002:0000fe54       $unwind$??$?RV<lambda_7777bce6b2f8c936911f934f8298dc43>@@AEAV<lambda_f03950bc5685219e0bcd2087efbe011e>@@V<lambda_3883c3dff614d5e0c5f61bb1ac94921c>@@@?$__crt_seh_guarded_call@H@@QEAAH$$QEAV<lambda_7777bce6b2f8c936911f934f8298dc43>@@AEAV<lambda_f03950bc5685219e0bcd2087efbe011e>@@$$QEAV<lambda_3883c3dff614d5e0c5f61bb1ac94921c>@@@Z 0000000180055e54     libucrt:onexit.obj
 0002:0000fe78       $unwind$terminate          0000000180055e78     libucrt:terminate.obj
 0002:0000fe98       $unwind$??$common_vsprintf@Vformat_validation_base@__crt_stdio_output@@D@@YAH_KQEAD0QEBDQEAU__crt_locale_pointers@@1@Z 0000000180055e98     libucrt:output.obj
 0002:0000fe98       $unwind$??$common_vsprintf@Vstandard_base@__crt_stdio_output@@D@@YAH_KQEAD0QEBDQEAU__crt_locale_pointers@@1@Z 0000000180055e98     libucrt:output.obj
 0002:0000feb8       $unwind$?write_string@?$string_output_adapter@D@__crt_stdio_output@@QEBAXQEBDHQEAHAEAV__crt_deferred_errno_cache@@@Z 0000000180055eb8     libucrt:output.obj
 0002:0000fed0       $unwind$?process@?$output_processor@DV?$string_output_adapter@D@__crt_stdio_output@@V?$standard_base@DV?$string_output_adapter@D@__crt_stdio_output@@@2@@__crt_stdio_output@@QEAAHXZ 0000000180055ed0     libucrt:output.obj
 0002:0000fee0       $unwind$?parse_int_from_format_string@?$output_processor@DV?$string_output_adapter@D@__crt_stdio_output@@V?$format_validation_base@DV?$string_output_adapter@D@__crt_stdio_output@@@2@@__crt_stdio_output@@AEAA_NQEAH@Z 0000000180055ee0     libucrt:output.obj
 0002:0000fee0       $unwind$?parse_int_from_format_string@?$output_processor@DV?$string_output_adapter@D@__crt_stdio_output@@V?$standard_base@DV?$string_output_adapter@D@__crt_stdio_output@@@2@@__crt_stdio_output@@AEAA_NQEAH@Z 0000000180055ee0     libucrt:output.obj
 0002:0000fef4       $unwind$?state_case_type@?$output_processor@DV?$string_output_adapter@D@__crt_stdio_output@@V?$format_validation_base@DV?$string_output_adapter@D@__crt_stdio_output@@@2@@__crt_stdio_output@@AEAA_NXZ 0000000180055ef4     libucrt:output.obj
 0002:0000fef4       $unwind$?state_case_type@?$output_processor@DV?$string_output_adapter@D@__crt_stdio_output@@V?$standard_base@DV?$string_output_adapter@D@__crt_stdio_output@@@2@@__crt_stdio_output@@AEAA_NXZ 0000000180055ef4     libucrt:output.obj
 0002:0000ff0c       $unwind$?type_case_a@?$output_processor@DV?$string_output_adapter@D@__crt_stdio_output@@V?$format_validation_base@DV?$string_output_adapter@D@__crt_stdio_output@@@2@@__crt_stdio_output@@AEAA_NXZ 0000000180055f0c     libucrt:output.obj
 0002:0000ff0c       $unwind$?type_case_a@?$output_processor@DV?$string_output_adapter@D@__crt_stdio_output@@V?$standard_base@DV?$string_output_adapter@D@__crt_stdio_output@@@2@@__crt_stdio_output@@AEAA_NXZ 0000000180055f0c     libucrt:output.obj
 0002:0000ff18       $unwind$?write_stored_string_tchar@?$output_processor@DV?$string_output_adapter@D@__crt_stdio_output@@V?$format_validation_base@DV?$string_output_adapter@D@__crt_stdio_output@@@2@@__crt_stdio_output@@AEAA_ND@Z 0000000180055f18     libucrt:output.obj
 0002:0000ff18       $unwind$?write_stored_string_tchar@?$output_processor@DV?$string_output_adapter@D@__crt_stdio_output@@V?$standard_base@DV?$string_output_adapter@D@__crt_stdio_output@@@2@@__crt_stdio_output@@AEAA_ND@Z 0000000180055f18     libucrt:output.obj
 0002:0000ff30       $unwind$??$write_multiple_characters@V?$string_output_adapter@D@__crt_stdio_output@@D@__crt_stdio_output@@YAXAEBV?$string_output_adapter@D@0@DHQEAH@Z 0000000180055f30     libucrt:output.obj
 0002:0000ff3c       $unwind$??$type_case_integer_parse_into_buffer@I@?$output_processor@DV?$string_output_adapter@D@__crt_stdio_output@@V?$format_validation_base@DV?$string_output_adapter@D@__crt_stdio_output@@@2@@__crt_stdio_output@@AEAAXII_N@Z 0000000180055f3c     libucrt:output.obj
 0002:0000ff3c       $unwind$??$type_case_integer_parse_into_buffer@I@?$output_processor@DV?$string_output_adapter@D@__crt_stdio_output@@V?$standard_base@DV?$string_output_adapter@D@__crt_stdio_output@@@2@@__crt_stdio_output@@AEAAXII_N@Z 0000000180055f3c     libucrt:output.obj
 0002:0000ff3c       $unwind$??$type_case_integer_parse_into_buffer@_K@?$output_processor@DV?$string_output_adapter@D@__crt_stdio_output@@V?$format_validation_base@DV?$string_output_adapter@D@__crt_stdio_output@@@2@@__crt_stdio_output@@AEAAX_KI_N@Z 0000000180055f3c     libucrt:output.obj
 0002:0000ff3c       $unwind$??$type_case_integer_parse_into_buffer@_K@?$output_processor@DV?$string_output_adapter@D@__crt_stdio_output@@V?$standard_base@DV?$string_output_adapter@D@__crt_stdio_output@@@2@@__crt_stdio_output@@AEAAX_KI_N@Z 0000000180055f3c     libucrt:output.obj
 0002:0000ff3c       $unwind$strrchr            0000000180055f3c     libvcruntime:strrchr.obj
 0002:0000ff44       $unwind$??$parse_integer@KV?$c_string_character_source@D@__crt_strtox@@@__crt_strtox@@YAKQEAU__crt_locale_pointers@@V?$c_string_character_source@D@0@H_N@Z 0000000180055f44     libucrt:atox.obj
 0002:0000ff60       $xdatasym                  0000000180055f60     libucrt:strncmp.obj
 0002:0000ff64       $unwind$_ctrlfp            0000000180055f64     libucrt:fpctrl.obj
 0002:0000ff8c       $unwind$_call_matherr      0000000180055f8c     libucrt:libm_error.obj
 0002:0000ff94       $unwind$_handle_error      0000000180055f94     libucrt:libm_error.obj
 0002:0000ff94       $unwind$_handle_errorf     0000000180055f94     libucrt:libm_error.obj
 0002:0000ffb8       $xdatasym                  0000000180055fb8     libucrt:remainder_piby2f_forasm.obj
 0002:0000ffc0       $xdatasym                  0000000180055fc0     libucrt:remainder_piby2_forfma3.obj
 0002:0000ffcc       $unwind$_sincosf_special   0000000180055fcc     libucrt:sincos_special.obj
 0002:0000ffd4       $unwind$__acrt_initialize_fma3 0000000180055fd4     libucrt:fma3_available.obj
 0002:0000ffe0       $xdatasym                  0000000180055fe0     libucrt:remainder_piby2f_forc.obj
 0002:0000fff0       $unwind$_free_base         0000000180055ff0     libucrt:free_base.obj
 0002:0000fff0       $unwind$?destroy_fls@@YAXPEAX@Z 0000000180055ff0     libucrt:per_thread_data.obj
 0002:0000fff0       $unwind$__acrt_locale_free_numeric 0000000180055ff0     libucrt:initnum.obj
 0002:0000fff0       $unwind$__acrt_locale_free_lc_time_if_unreferenced 0000000180055ff0     libucrt:locale_refcounting.obj
 0002:0000fff8       $unwind$?construct_ptd_array@@YAXQEAU__acrt_ptd@@@Z 0000000180055ff8     libucrt:per_thread_data.obj
 0002:00010000       $unwind$?destroy_ptd_array@@YAXQEAU__acrt_ptd@@@Z 0000000180056000     libucrt:per_thread_data.obj
 0002:00010008       $unwind$??$?RV<lambda_0ae27a3a962d80f24befdcbee591983d>@@AEAV<lambda_8d0ee55de4b1038c4002e0adecdf1839>@@V<lambda_dc504788e8f1664fe9b84e20bfb512f2>@@@?$__crt_seh_guarded_call@X@@QEAAX$$QEAV<lambda_0ae27a3a962d80f24befdcbee591983d>@@AEAV<lambda_8d0ee55de4b1038c4002e0adecdf1839>@@$$QEAV<lambda_dc504788e8f1664fe9b84e20bfb512f2>@@@Z 0000000180056008     libucrt:per_thread_data.obj
 0002:0001002c       $unwind$??$?RV<lambda_aa87e3671a710a21b5dc78c0bdf72e11>@@AEAV<lambda_92619d2358a28f41a33ba319515a20b9>@@V<lambda_6992ecaafeb10aed2b74cb1fae11a551>@@@?$__crt_seh_guarded_call@X@@QEAAX$$QEAV<lambda_aa87e3671a710a21b5dc78c0bdf72e11>@@AEAV<lambda_92619d2358a28f41a33ba319515a20b9>@@$$QEAV<lambda_6992ecaafeb10aed2b74cb1fae11a551>@@@Z 000000018005602c     libucrt:per_thread_data.obj
 0002:00010050       $unwind$??$?RV<lambda_f2e299630e499de9f9a165e60fcd3db5>@@AEAV<lambda_2ae9d31cdba2644fcbeaf08da7c24588>@@V<lambda_40d01ff24d0e7b3814fdbdcee8eab3c7>@@@?$__crt_seh_guarded_call@X@@QEAAX$$QEAV<lambda_f2e299630e499de9f9a165e60fcd3db5>@@AEAV<lambda_2ae9d31cdba2644fcbeaf08da7c24588>@@$$QEAV<lambda_40d01ff24d0e7b3814fdbdcee8eab3c7>@@@Z 0000000180056050     libucrt:per_thread_data.obj
 0002:00010074       $unwind$??$?RV<lambda_2d41944a1d46af3157314b8a01080d33>@@AEAV<lambda_8f455de75cd7d7f24b4096f044d8b9e6>@@V<lambda_aa500f224e6afead328df44964fe2772>@@@?$__crt_seh_guarded_call@X@@QEAAX$$QEAV<lambda_2d41944a1d46af3157314b8a01080d33>@@AEAV<lambda_8f455de75cd7d7f24b4096f044d8b9e6>@@$$QEAV<lambda_aa500f224e6afead328df44964fe2772>@@@Z 0000000180056074     libucrt:per_thread_data.obj
 0002:00010098       $unwind$__acrt_call_reportfault 0000000180056098     libucrt:invalid_parameter.obj
 0002:000100b8       $unwind$??$__acrt_mbs_to_wcs_cp@U__crt_win32_buffer_internal_dynamic_resizing@@@@YAHQEBDAEAV?$__crt_win32_buffer@_WU__crt_win32_buffer_internal_dynamic_resizing@@@@I@Z 00000001800560b8     libucrt:argv_wildcards.obj
 0002:000100d0       $unwind$__dcrt_get_narrow_environment_from_os 00000001800560d0     libucrt:get_environment_from_os.obj
 0002:000100d0       $unwind$?fp_format_f_internal@@YAHQEAD_KHQEAU_strflt@@_NQEAU__crt_locale_pointers@@@Z 00000001800560d0     libucrt:cvt.obj
 0002:000100d0       $unwind$??$__acrt_wcs_to_mbs_cp@U__crt_win32_buffer_internal_dynamic_resizing@@@@YAHQEB_WAEAV?$__crt_win32_buffer@DU__crt_win32_buffer_internal_dynamic_resizing@@@@I@Z 00000001800560d0     libucrt:argv_wildcards.obj
 0002:000100e8       $unwind$??$common_expand_argv_wildcards@D@@YAHQEAPEADQEAPEAPEAD@Z 00000001800560e8     libucrt:argv_wildcards.obj
 0002:00010100       $unwind$??$expand_argument_wildcards@D@@YAHQEAD0AEAV?$argument_list@D@?A0x5f5c8891@@@Z 0000000180056100     libucrt:argv_wildcards.obj
 0002:00010124       $unwind$__acrt_GetModuleFileNameA 0000000180056124     libucrt:getmodulefilenamea.obj
 0002:00010140       $unwind$__dcrt_write_console 0000000180056140     libucrt:initcon.obj
 0002:00010140       $unwind$??$__acrt_wcs_to_mbs_cp@U__crt_win32_buffer_no_resizing@@@@YAHQEB_WAEAV?$__crt_win32_buffer@DU__crt_win32_buffer_no_resizing@@@@I@Z 0000000180056140     libucrt:getmodulefilenamea.obj
 0002:00010154       $unwind$_setmbcp_nolock    0000000180056154     libucrt:mbctype.obj
 0002:00010174       $unwind$?update_thread_multibyte_data_internal@@YAPEAU__crt_multibyte_data@@QEAU__acrt_ptd@@QEAPEAU1@@Z 0000000180056174     libucrt:mbctype.obj
 0002:0001019c       $unwind$?setmbcp_internal@@YAHH_NQEAU__acrt_ptd@@QEAPEAU__crt_multibyte_data@@@Z 000000018005619c     libucrt:mbctype.obj
 0002:000101ac       $unwind$?setSBUpLow@@YAXPEAU__crt_multibyte_data@@@Z 00000001800561ac     libucrt:mbctype.obj
 0002:000101c8       $unwind$??$?RV<lambda_efdfa57d1f175319df784efa44bb7b81>@@AEAV<lambda_5f0a4c1567f8adc6734073e5d1e1b35c>@@V<lambda_2e8a7d3640ea6ccb4c2413664c2db6fd>@@@?$__crt_seh_guarded_call@X@@QEAAX$$QEAV<lambda_efdfa57d1f175319df784efa44bb7b81>@@AEAV<lambda_5f0a4c1567f8adc6734073e5d1e1b35c>@@$$QEAV<lambda_2e8a7d3640ea6ccb4c2413664c2db6fd>@@@Z 00000001800561c8     libucrt:mbctype.obj
 0002:000101ec       $unwind$__acrt_WideCharToMultiByte 00000001800561ec     libucrt:widechartomultibyte.obj
